time=2025-01-12T16:32:40.351-05:00 level=INFO msg="Grafana Beyla" Version=a-cuda-tracer Revision=705dd7cb "OpenTelemetry SDK Version"=1.32.0
time=2025-01-12T16:32:40.351-05:00 level=WARN msg="'print_traces' configuration option has been deprecated and will be removed in the future - use 'trace_printer' instead"
time=2025-01-12T16:32:40.351-05:00 level=DEBUG msg="not reporting internal metrics"
time=2025-01-12T16:32:40.351-05:00 level=DEBUG msg="trying to fetch host ID" component=ContextInfo func=fetchHostID fetcher=AWS
time=2025-01-12T16:32:40.852-05:00 level=DEBUG msg="didn't get host ID" component=ContextInfo func=fetchHostID fetcher=AWS cause="timed out waiting for host ID connection"
time=2025-01-12T16:32:40.852-05:00 level=DEBUG msg="trying to fetch host ID" component=ContextInfo func=fetchHostID fetcher=Azure
time=2025-01-12T16:32:41.353-05:00 level=DEBUG msg="didn't get host ID" component=ContextInfo func=fetchHostID fetcher=Azure cause="timed out waiting for host ID connection"
time=2025-01-12T16:32:41.353-05:00 level=DEBUG msg="trying to fetch host ID" component=ContextInfo func=fetchHostID fetcher=GCP
time=2025-01-12T16:32:41.424-05:00 level=DEBUG msg="didn't get host ID" component=ContextInfo func=fetchHostID fetcher=GCP cause="can't find host.id in []"
time=2025-01-12T16:32:41.424-05:00 level=DEBUG msg="trying to fetch host ID" component=ContextInfo func=fetchHostID fetcher=KubeNode
time=2025-01-12T16:32:41.424-05:00 level=DEBUG msg="didn't get host ID" component=ContextInfo func=fetchHostID fetcher=KubeNode cause="kubernetes is not enabled"
time=2025-01-12T16:32:41.424-05:00 level=DEBUG msg="trying to fetch host ID" component=ContextInfo func=fetchHostID fetcher=local
time=2025-01-12T16:32:41.424-05:00 level=INFO msg="got host ID" component=ContextInfo func=fetchHostID fetcher=local hostID=73ef4853eb3442389a6bf071ceffb41c
time=2025-01-12T16:32:41.424-05:00 level=INFO msg="starting Beyla in Application Observability mode"
time=2025-01-12T16:32:41.424-05:00 level=DEBUG msg="Linux kernel version" component=go.Tracer major=6 minor=8
time=2025-01-12T16:32:41.424-05:00 level=DEBUG msg="checking kernel lockdown mode, [none] allows us to propagate trace context" component=ebpf.ProcessTracer
time=2025-01-12T16:32:41.424-05:00 level=DEBUG msg="Kernel not in lockdown mode, trace context propagation is supported." component=go.Tracer
time=2025-01-12T16:32:41.424-05:00 level=DEBUG msg="creating instrumentation pipeline" component=beyla.Instrumenter
time=2025-01-12T16:32:41.424-05:00 level=DEBUG msg="starting criteria matcher node" component=discover.CriteriaMatcher
time=2025-01-12T16:32:41.424-05:00 level=DEBUG msg="loading independent eBPF program" component=ebpf.ProcessTracer
time=2025-01-12T16:32:41.424-05:00 level=DEBUG msg="found FQDN hosts" component=HostnameResolver hosts=[monster]
time=2025-01-12T16:32:41.424-05:00 level=DEBUG msg="Notifying observers" component=HostnameResolver change=2
time=2025-01-12T16:32:41.424-05:00 level=INFO msg="using hostname" component=traces.ReadDecorator function=instance_ID_hostNamePIDDecorator hostname=monster
time=2025-01-12T16:32:41.425-05:00 level=INFO msg="Starting main node" component=beyla.Instrumenter
time=2025-01-12T16:32:41.773-05:00 level=DEBUG msg="going to add kprobe to function" component=ebpf.Instrumenter probes=kprobes function=sys_bind probes="{Required:true Start:Kprobe(beyla_kprobe_sys_bind)#11 End:<nil> StartOffset:0 ReturnOffsets:[]}"
time=2025-01-12T16:32:41.783-05:00 level=DEBUG msg="start reading and forwarding" component=watcher.Tracer
time=2025-01-12T16:32:41.783-05:00 level=DEBUG msg="starting to read ring buffer" component=watcher.Tracer
time=2025-01-12T16:32:43.704-05:00 level=DEBUG msg="Executable not ready" component=discover.ProcessWatcher pid=94541
time=2025-01-12T16:32:43.772-05:00 level=DEBUG msg="new process watching events" component=discover.ProcessWatcher interval=5s events="[{Type:0 Obj:{pid:108 openPorts:[] metadata:map[] podLabels:map[]}} {Type:0 Obj:{pid:2069 openPorts:[] metadata:map[] podLabels:map[]}} {Type:0 Obj:{pid:2160 openPorts:[] metadata:map[] podLabels:map[]}} {Type:0 Obj:{pid:2273 openPorts:[] metadata:map[] podLabels:map[]}} {Type:0 Obj:{pid:5002 openPorts:[] metadata:map[] podLabels:map[]}} {Type:0 Obj:{pid:5138 openPorts:[] metadata:map[] podLabels:map[]}} {Type:0 Obj:{pid:52 openPorts:[] metadata:map[] podLabels:map[]}} {Type:0 Obj:{pid:90 openPorts:[] metadata:map[] podLabels:map[]}} {Type:0 Obj:{pid:112 openPorts:[] metadata:map[] podLabels:map[]}} {Type:0 Obj:{pid:686 openPorts:[] metadata:map[] podLabels:map[]}} {Type:0 Obj:{pid:21461 openPorts:[22] metadata:map[] podLabels:map[]}} {Type:0 Obj:{pid:94536 openPorts:[] metadata:map[] podLabels:map[]}} {Type:0 Obj:{pid:69 openPorts:[] metadata:map[] podLabels:map[]}} {Type:0 Obj:{pid:145 openPorts:[] metadata:map[] podLabels:map[]}} {Type:0 Obj:{pid:206 openPorts:[] metadata:map[] podLabels:map[]}} {Type:0 Obj:{pid:610 openPorts:[] metadata:map[] podLabels:map[]}} {Type:0 Obj:{pid:2174 openPorts:[] metadata:map[] podLabels:map[]}} {Type:0 Obj:{pid:5206 openPorts:[] metadata:map[] podLabels:map[]}} {Type:0 Obj:{pid:85215 openPorts:[] metadata:map[] podLabels:map[]}} {Type:0 Obj:{pid:51 openPorts:[] metadata:map[] podLabels:map[]}} {Type:0 Obj:{pid:119 openPorts:[] metadata:map[] podLabels:map[]}} {Type:0 Obj:{pid:4996 openPorts:[] metadata:map[] podLabels:map[]}} {Type:0 Obj:{pid:17431 openPorts:[] metadata:map[] podLabels:map[]}} {Type:0 Obj:{pid:13 openPorts:[] metadata:map[] podLabels:map[]}} {Type:0 Obj:{pid:14 openPorts:[] metadata:map[] podLabels:map[]}} {Type:0 Obj:{pid:32 openPorts:[] metadata:map[] podLabels:map[]}} {Type:0 Obj:{pid:68 openPorts:[] metadata:map[] podLabels:map[]}} {Type:0 Obj:{pid:812 openPorts:[] metadata:map[] podLabels:map[]}} {Type:0 Obj:{pid:3606 openPorts:[] metadata:map[] podLabels:map[]}} {Type:0 Obj:{pid:5190 openPorts:[] metadata:map[] podLabels:map[]}} {Type:0 Obj:{pid:1 openPorts:[] metadata:map[] podLabels:map[]}} {Type:0 Obj:{pid:224 openPorts:[] metadata:map[] podLabels:map[]}} {Type:0 Obj:{pid:607 openPorts:[] metadata:map[] podLabels:map[]}} {Type:0 Obj:{pid:928 openPorts:[] metadata:map[] podLabels:map[]}} {Type:0 Obj:{pid:1934 openPorts:[] metadata:map[] podLabels:map[]}} {Type:0 Obj:{pid:1947 openPorts:[] metadata:map[] podLabels:map[]}} {Type:0 Obj:{pid:32019 openPorts:[] metadata:map[] podLabels:map[]}} {Type:0 Obj:{pid:62903 openPorts:[] metadata:map[] podLabels:map[]}} {Type:0 Obj:{pid:58 openPorts:[] metadata:map[] podLabels:map[]}} {Type:0 Obj:{pid:82295 openPorts:[] metadata:map[] podLabels:map[]}} {Type:0 Obj:{pid:263 openPorts:[] metadata:map[] podLabels:map[]}} {Type:0 Obj:{pid:831 openPorts:[] metadata:map[] podLabels:map[]}} {Type:0 Obj:{pid:2164 openPorts:[] metadata:map[] podLabels:map[]}} {Type:0 Obj:{pid:2432 openPorts:[] metadata:map[] podLabels:map[]}} {Type:0 Obj:{pid:21912 openPorts:[] metadata:map[] podLabels:map[]}} {Type:0 Obj:{pid:57411 openPorts:[] metadata:map[] podLabels:map[]}} {Type:0 Obj:{pid:50 openPorts:[] metadata:map[] podLabels:map[]}} {Type:0 Obj:{pid:204 openPorts:[] metadata:map[] podLabels:map[]}} {Type:0 Obj:{pid:1988 openPorts:[] metadata:map[] podLabels:map[]}} {Type:0 Obj:{pid:4272 openPorts:[] metadata:map[] podLabels:map[]}} {Type:0 Obj:{pid:5142 openPorts:[22] metadata:map[] podLabels:map[]}} {Type:0 Obj:{pid:84553 openPorts:[] metadata:map[] podLabels:map[]}} {Type:0 Obj:{pid:110 openPorts:[] metadata:map[] podLabels:map[]}} {Type:0 Obj:{pid:2221 openPorts:[] metadata:map[] podLabels:map[]}} {Type:0 Obj:{pid:4489 openPorts:[] metadata:map[] podLabels:map[]}} {Type:0 Obj:{pid:4667 openPorts:[48462 8443 9100 9000 8000] metadata:map[] podLabels:map[]}} {Type:0 Obj:{pid:82011 openPorts:[] metadata:map[] podLabels:map[]}} {Type:0 Obj:{pid:28 openPorts:[] metadata:map[] podLabels:map[]}} {Type:0 Obj:{pid:1936 openPorts:[] metadata:map[] podLabels:map[]}} {Type:0 Obj:{pid:2159 openPorts:[] metadata:map[] podLabels:map[]}} {Type:0 Obj:{pid:93990 openPorts:[] metadata:map[] podLabels:map[]}} {Type:0 Obj:{pid:408 openPorts:[] metadata:map[] podLabels:map[]}} {Type:0 Obj:{pid:1922 openPorts:[] metadata:map[] podLabels:map[]}} {Type:0 Obj:{pid:2161 openPorts:[] metadata:map[] podLabels:map[]}} {Type:0 Obj:{pid:5120 openPorts:[] metadata:map[] podLabels:map[]}} {Type:0 Obj:{pid:19715 openPorts:[] metadata:map[] podLabels:map[]}} {Type:0 Obj:{pid:84651 openPorts:[] metadata:map[] podLabels:map[]}} {Type:0 Obj:{pid:139 openPorts:[] metadata:map[] podLabels:map[]}} {Type:0 Obj:{pid:667 openPorts:[] metadata:map[] podLabels:map[]}} {Type:0 Obj:{pid:1030 openPorts:[22 22] metadata:map[] podLabels:map[]}} {Type:0 Obj:{pid:4684 openPorts:[35738 47166 10250 10250 10250] metadata:map[] podLabels:map[]}} {Type:0 Obj:{pid:5167 openPorts:[] metadata:map[] podLabels:map[]}} {Type:0 Obj:{pid:205 openPorts:[] metadata:map[] podLabels:map[]}} {Type:0 Obj:{pid:107 openPorts:[] metadata:map[] podLabels:map[]}} {Type:0 Obj:{pid:227 openPorts:[] metadata:map[] podLabels:map[]}} {Type:0 Obj:{pid:821 openPorts:[] metadata:map[] podLabels:map[]}} {Type:0 Obj:{pid:2293 openPorts:[] metadata:map[] podLabels:map[]}} {Type:0 Obj:{pid:2419 openPorts:[6444 10248 10249 10256 10257 10258 10259 6444 40610 48870 59604 6444 59582 59630 59614 59634 6444 57144 57722 58028 6444 40570 59552 59632 35238 6444 59606 6444 48866 59646 6444 6444 59596 6444 10250 6443 10250 6443 6443 6443 6443 6443 6443 6443 6443 6443 6443 6443] metadata:map[] podLabels:map[]}} {Type:0 Obj:{pid:83624 openPorts:[] metadata:map[] podLabels:map[]}} {Type:0 Obj:{pid:85214 openPorts:[] metadata:map[] podLabels:map[]}} {Type:0 Obj:{pid:12 openPorts:[] metadata:map[] podLabels:map[]}} {Type:0 Obj:{pid:484 openPorts:[] metadata:map[] podLabels:map[]}} {Type:0 Obj:{pid:858 openPorts:[] metadata:map[] podLabels:map[]}} {Type:0 Obj:{pid:2187 openPorts:[] metadata:map[] podLabels:map[]}} {Type:0 Obj:{pid:5192 openPorts:[] metadata:map[] podLabels:map[]}} {Type:0 Obj:{pid:5421 openPorts:[] metadata:map[] podLabels:map[]}} {Type:0 Obj:{pid:184 openPorts:[] metadata:map[] podLabels:map[]}} {Type:0 Obj:{pid:608 openPorts:[] metadata:map[] podLabels:map[]}} {Type:0 Obj:{pid:1378 openPorts:[] metadata:map[] podLabels:map[]}} {Type:0 Obj:{pid:2154 openPorts:[] metadata:map[] podLabels:map[]}} {Type:0 Obj:{pid:265 openPorts:[] metadata:map[] podLabels:map[]}} {Type:0 Obj:{pid:99 openPorts:[] metadata:map[] podLabels:map[]}} {Type:0 Obj:{pid:109 openPorts:[] metadata:map[] podLabels:map[]}} {Type:0 Obj:{pid:2246 openPorts:[] metadata:map[] podLabels:map[]}} {Type:0 Obj:{pid:5168 openPorts:[] metadata:map[] podLabels:map[]}} {Type:0 Obj:{pid:19762 openPorts:[25000] metadata:map[] podLabels:map[]}} {Type:0 Obj:{pid:19 openPorts:[] metadata:map[] podLabels:map[]}} {Type:0 Obj:{pid:104 openPorts:[] metadata:map[] podLabels:map[]}} {Type:0 Obj:{pid:111 openPorts:[] metadata:map[] podLabels:map[]}} {Type:0 Obj:{pid:21151 openPorts:[] metadata:map[] podLabels:map[]}} {Type:0 Obj:{pid:57192 openPorts:[] metadata:map[] podLabels:map[]}} {Type:0 Obj:{pid:64 openPorts:[] metadata:map[] podLabels:map[]}} {Type:0 Obj:{pid:2167 openPorts:[] metadata:map[] podLabels:map[]}} {Type:0 Obj:{pid:17803 openPorts:[] metadata:map[] podLabels:map[]}} {Type:0 Obj:{pid:83261 openPorts:[] metadata:map[] podLabels:map[]}} {Type:0 Obj:{pid:3 openPorts:[] metadata:map[] podLabels:map[]}} {Type:0 Obj:{pid:1328 openPorts:[] metadata:map[] podLabels:map[]}} {Type:0 Obj:{pid:17484 openPorts:[] metadata:map[] podLabels:map[]}} {Type:0 Obj:{pid:21629 openPorts:[] metadata:map[] podLabels:map[]}} {Type:0 Obj:{pid:82967 openPorts:[] metadata:map[] podLabels:map[]}} {Type:0 Obj:{pid:123 openPorts:[] metadata:map[] podLabels:map[]}} {Type:0 Obj:{pid:75 openPorts:[] metadata:map[] podLabels:map[]}} {Type:0 Obj:{pid:180 openPorts:[] metadata:map[] podLabels:map[]}} {Type:0 Obj:{pid:2377 openPorts:[] metadata:map[] podLabels:map[]}} {Type:0 Obj:{pid:5005 openPorts:[] metadata:map[] podLabels:map[]}} {Type:0 Obj:{pid:21561 openPorts:[33145 33145] metadata:map[] podLabels:map[]}} {Type:0 Obj:{pid:54 openPorts:[] metadata:map[] podLabels:map[]}} {Type:0 Obj:{pid:59 openPorts:[] metadata:map[] podLabels:map[]}} {Type:0 Obj:{pid:87 openPorts:[] metadata:map[] podLabels:map[]}} {Type:0 Obj:{pid:117 openPorts:[] metadata:map[] podLabels:map[]}} {Type:0 Obj:{pid:226 openPorts:[] metadata:map[] podLabels:map[]}} {Type:0 Obj:{pid:668 openPorts:[53 53] metadata:map[] podLabels:map[]}} {Type:0 Obj:{pid:825 openPorts:[] metadata:map[] podLabels:map[]}} {Type:0 Obj:{pid:1935 openPorts:[] metadata:map[] podLabels:map[]}} {Type:0 Obj:{pid:18 openPorts:[] metadata:map[] podLabels:map[]}} {Type:0 Obj:{pid:5029 openPorts:[] metadata:map[] podLabels:map[]}} {Type:0 Obj:{pid:94544 openPorts:[57906] metadata:map[] podLabels:map[]}} {Type:0 Obj:{pid:4833 openPorts:[] metadata:map[] podLabels:map[]}} {Type:0 Obj:{pid:228 openPorts:[] metadata:map[] podLabels:map[]}} {Type:0 Obj:{pid:1980 openPorts:[] metadata:map[] podLabels:map[]}} {Type:0 Obj:{pid:2026 openPorts:[] metadata:map[] podLabels:map[]}} {Type:0 Obj:{pid:85209 openPorts:[] metadata:map[] podLabels:map[]}} {Type:0 Obj:{pid:85210 openPorts:[] metadata:map[] podLabels:map[]}} {Type:0 Obj:{pid:124 openPorts:[] metadata:map[] podLabels:map[]}} {Type:0 Obj:{pid:4677 openPorts:[38170] metadata:map[] podLabels:map[]}} {Type:0 Obj:{pid:19957 openPorts:[22] metadata:map[] podLabels:map[]}} {Type:0 Obj:{pid:21662 openPorts:[] metadata:map[] podLabels:map[]}} {Type:0 Obj:{pid:80626 openPorts:[] metadata:map[] podLabels:map[]}} {Type:0 Obj:{pid:94322 openPorts:[] metadata:map[] podLabels:map[]}} {Type:0 Obj:{pid:267 openPorts:[] metadata:map[] podLabels:map[]}} {Type:0 Obj:{pid:45 openPorts:[] metadata:map[] podLabels:map[]}} {Type:0 Obj:{pid:81 openPorts:[] metadata:map[] podLabels:map[]}} {Type:0 Obj:{pid:854 openPorts:[] metadata:map[] podLabels:map[]}} {Type:0 Obj:{pid:955 openPorts:[6379 6379] metadata:map[] podLabels:map[]}} {Type:0 Obj:{pid:1974 openPorts:[] metadata:map[] podLabels:map[]}} {Type:0 Obj:{pid:2062 openPorts:[] metadata:map[] podLabels:map[]}} {Type:0 Obj:{pid:2166 openPorts:[] metadata:map[] podLabels:map[]}} {Type:0 Obj:{pid:5 openPorts:[] metadata:map[] podLabels:map[]}} {Type:0 Obj:{pid:1927 openPorts:[] metadata:map[] podLabels:map[]}} {Type:0 Obj:{pid:2178 openPorts:[] metadata:map[] podLabels:map[]}} {Type:0 Obj:{pid:849 openPorts:[] metadata:map[] podLabels:map[]}} {Type:0 Obj:{pid:72 openPorts:[] metadata:map[] podLabels:map[]}} {Type:0 Obj:{pid:80 openPorts:[] metadata:map[] podLabels:map[]}} {Type:0 Obj:{pid:81993 openPorts:[] metadata:map[] podLabels:map[]}} {Type:0 Obj:{pid:17 openPorts:[] metadata:map[] podLabels:map[]}} {Type:0 Obj:{pid:1071 openPorts:[631 631] metadata:map[] podLabels:map[]}} {Type:0 Obj:{pid:5179 openPorts:[] metadata:map[] podLabels:map[]}} {Type:0 Obj:{pid:17487 openPorts:[] metadata:map[] podLabels:map[]}} {Type:0 Obj:{pid:83323 openPorts:[] metadata:map[] podLabels:map[]}} {Type:0 Obj:{pid:94338 openPorts:[] metadata:map[] podLabels:map[]}} {Type:0 Obj:{pid:20 openPorts:[] metadata:map[] podLabels:map[]}} {Type:0 Obj:{pid:810 openPorts:[5353 38872 59855 5353] metadata:map[] podLabels:map[]}} {Type:0 Obj:{pid:4762 openPorts:[] metadata:map[] podLabels:map[]}} {Type:0 Obj:{pid:82895 openPorts:[] metadata:map[] podLabels:map[]}} {Type:0 Obj:{pid:94270 openPorts:[] metadata:map[] podLabels:map[]}} {Type:0 Obj:{pid:4 openPorts:[] metadata:map[] podLabels:map[]}} {Type:0 Obj:{pid:4992 openPorts:[22] metadata:map[] podLabels:map[]}} {Type:0 Obj:{pid:85220 openPorts:[] metadata:map[] podLabels:map[]}} {Type:0 Obj:{pid:47 openPorts:[] metadata:map[] podLabels:map[]}} {Type:0 Obj:{pid:132 openPorts:[] metadata:map[] podLabels:map[]}} {Type:0 Obj:{pid:409 openPorts:[] metadata:map[] podLabels:map[]}} {Type:0 Obj:{pid:2184 openPorts:[] metadata:map[] podLabels:map[]}} {Type:0 Obj:{pid:15 openPorts:[] metadata:map[] podLabels:map[]}} {Type:0 Obj:{pid:114 openPorts:[] metadata:map[] podLabels:map[]}} {Type:0 Obj:{pid:120 openPorts:[] metadata:map[] podLabels:map[]}} {Type:0 Obj:{pid:223 openPorts:[] metadata:map[] podLabels:map[]}} {Type:0 Obj:{pid:4468 openPorts:[] metadata:map[] podLabels:map[]}} {Type:0 Obj:{pid:4660 openPorts:[] metadata:map[] podLabels:map[]}} {Type:0 Obj:{pid:5086 openPorts:[] metadata:map[] podLabels:map[]}} {Type:0 Obj:{pid:21504 openPorts:[] metadata:map[] podLabels:map[]}} {Type:0 Obj:{pid:62 openPorts:[] metadata:map[] podLabels:map[]}} {Type:0 Obj:{pid:21625 openPorts:[] metadata:map[] podLabels:map[]}} {Type:0 Obj:{pid:115 openPorts:[] metadata:map[] podLabels:map[]}} {Type:0 Obj:{pid:121 openPorts:[] metadata:map[] podLabels:map[]}} {Type:0 Obj:{pid:134 openPorts:[] metadata:map[] podLabels:map[]}} {Type:0 Obj:{pid:137 openPorts:[] metadata:map[] podLabels:map[]}} {Type:0 Obj:{pid:1012 openPorts:[] metadata:map[] podLabels:map[]}} {Type:0 Obj:{pid:85213 openPorts:[] metadata:map[] podLabels:map[]}} {Type:0 Obj:{pid:74 openPorts:[] metadata:map[] podLabels:map[]}} {Type:0 Obj:{pid:268 openPorts:[] metadata:map[] podLabels:map[]}} {Type:0 Obj:{pid:609 openPorts:[] metadata:map[] podLabels:map[]}} {Type:0 Obj:{pid:2088 openPorts:[] metadata:map[] podLabels:map[]}} {Type:0 Obj:{pid:4282 openPorts:[] metadata:map[] podLabels:map[]}} {Type:0 Obj:{pid:4416 openPorts:[] metadata:map[] podLabels:map[]}} {Type:0 Obj:{pid:80389 openPorts:[] metadata:map[] podLabels:map[]}} {Type:0 Obj:{pid:76 openPorts:[] metadata:map[] podLabels:map[]}} {Type:0 Obj:{pid:5044 openPorts:[] metadata:map[] podLabels:map[]}} {Type:0 Obj:{pid:21506 openPorts:[] metadata:map[] podLabels:map[]}} {Type:0 Obj:{pid:80728 openPorts:[] metadata:map[] podLabels:map[]}} {Type:0 Obj:{pid:60 openPorts:[] metadata:map[] podLabels:map[]}} {Type:0 Obj:{pid:113 openPorts:[] metadata:map[] podLabels:map[]}} {Type:0 Obj:{pid:231 openPorts:[] metadata:map[] podLabels:map[]}} {Type:0 Obj:{pid:2237 openPorts:[] metadata:map[] podLabels:map[]}} {Type:0 Obj:{pid:5243 openPorts:[] metadata:map[] podLabels:map[]}} {Type:0 Obj:{pid:85217 openPorts:[] metadata:map[] podLabels:map[]}} {Type:0 Obj:{pid:94542 openPorts:[] metadata:map[] podLabels:map[]}} {Type:0 Obj:{pid:63 openPorts:[] metadata:map[] podLabels:map[]}} {Type:0 Obj:{pid:71 openPorts:[] metadata:map[] podLabels:map[]}} {Type:0 Obj:{pid:232 openPorts:[] metadata:map[] podLabels:map[]}} {Type:0 Obj:{pid:41 openPorts:[] metadata:map[] podLabels:map[]}} {Type:0 Obj:{pid:225 openPorts:[] metadata:map[] podLabels:map[]}} {Type:0 Obj:{pid:2039 openPorts:[] metadata:map[] podLabels:map[]}} {Type:0 Obj:{pid:2098 openPorts:[] metadata:map[] podLabels:map[]}} {Type:0 Obj:{pid:5251 openPorts:[] metadata:map[] podLabels:map[]}} {Type:0 Obj:{pid:125 openPorts:[] metadata:map[] podLabels:map[]}} {Type:0 Obj:{pid:5165 openPorts:[] metadata:map[] podLabels:map[]}} {Type:0 Obj:{pid:79354 openPorts:[] metadata:map[] podLabels:map[]}} {Type:0 Obj:{pid:3146 openPorts:[10010] metadata:map[] podLabels:map[]}} {Type:0 Obj:{pid:122 openPorts:[] metadata:map[] podLabels:map[]}} {Type:0 Obj:{pid:611 openPorts:[] metadata:map[] podLabels:map[]}} {Type:0 Obj:{pid:850 openPorts:[] metadata:map[] podLabels:map[]}} {Type:0 Obj:{pid:5200 openPorts:[] metadata:map[] podLabels:map[]}} {Type:0 Obj:{pid:85216 openPorts:[] metadata:map[] podLabels:map[]}} {Type:0 Obj:{pid:85221 openPorts:[] metadata:map[] podLabels:map[]}} {Type:0 Obj:{pid:48 openPorts:[] metadata:map[] podLabels:map[]}} {Type:0 Obj:{pid:200 openPorts:[] metadata:map[] podLabels:map[]}} {Type:0 Obj:{pid:1966 openPorts:[] metadata:map[] podLabels:map[]}} {Type:0 Obj:{pid:2064 openPorts:[] metadata:map[] podLabels:map[]}} {Type:0 Obj:{pid:2065 openPorts:[] metadata:map[] podLabels:map[]}} {Type:0 Obj:{pid:3607 openPorts:[] metadata:map[] podLabels:map[]}} {Type:0 Obj:{pid:4485 openPorts:[] metadata:map[] podLabels:map[]}} {Type:0 Obj:{pid:5175 openPorts:[] metadata:map[] podLabels:map[]}} {Type:0 Obj:{pid:84 openPorts:[] metadata:map[] podLabels:map[]}} {Type:0 Obj:{pid:103 openPorts:[] metadata:map[] podLabels:map[]}} {Type:0 Obj:{pid:299 openPorts:[] metadata:map[] podLabels:map[]}} {Type:0 Obj:{pid:684 openPorts:[] metadata:map[] podLabels:map[]}} {Type:0 Obj:{pid:1325 openPorts:[] metadata:map[] podLabels:map[]}} {Type:0 Obj:{pid:77 openPorts:[] metadata:map[] podLabels:map[]}} {Type:0 Obj:{pid:66 openPorts:[] metadata:map[] podLabels:map[]}} {Type:0 Obj:{pid:39 openPorts:[] metadata:map[] podLabels:map[]}} {Type:0 Obj:{pid:56 openPorts:[] metadata:map[] podLabels:map[]}} {Type:0 Obj:{pid:183 openPorts:[] metadata:map[] podLabels:map[]}} {Type:0 Obj:{pid:17488 openPorts:[] metadata:map[] podLabels:map[]}} {Type:0 Obj:{pid:55483 openPorts:[] metadata:map[] podLabels:map[]}} {Type:0 Obj:{pid:82893 openPorts:[] metadata:map[] podLabels:map[]}} {Type:0 Obj:{pid:36 openPorts:[] metadata:map[] podLabels:map[]}} {Type:0 Obj:{pid:17486 openPorts:[] metadata:map[] podLabels:map[]}} {Type:0 Obj:{pid:66305 openPorts:[] metadata:map[] podLabels:map[]}} {Type:0 Obj:{pid:846 openPorts:[] metadata:map[] podLabels:map[]}} {Type:0 Obj:{pid:2411 openPorts:[] metadata:map[] podLabels:map[]}} {Type:0 Obj:{pid:2051 openPorts:[] metadata:map[] podLabels:map[]}} {Type:0 Obj:{pid:34 openPorts:[] metadata:map[] podLabels:map[]}} {Type:0 Obj:{pid:46 openPorts:[] metadata:map[] podLabels:map[]}} {Type:0 Obj:{pid:807 openPorts:[] metadata:map[] podLabels:map[]}} {Type:0 Obj:{pid:828 openPorts:[] metadata:map[] podLabels:map[]}} {Type:0 Obj:{pid:5151 openPorts:[] metadata:map[] podLabels:map[]}} {Type:0 Obj:{pid:85222 openPorts:[] metadata:map[] podLabels:map[]}} {Type:0 Obj:{pid:7 openPorts:[] metadata:map[] podLabels:map[]}} {Type:0 Obj:{pid:57 openPorts:[] metadata:map[] podLabels:map[]}} {Type:0 Obj:{pid:691 openPorts:[] metadata:map[] podLabels:map[]}} {Type:0 Obj:{pid:2158 openPorts:[] metadata:map[] podLabels:map[]}} {Type:0 Obj:{pid:2313 openPorts:[] metadata:map[] podLabels:map[]}} {Type:0 Obj:{pid:17483 openPorts:[] metadata:map[] podLabels:map[]}} {Type:0 Obj:{pid:21923 openPorts:[] metadata:map[] podLabels:map[]}} {Type:0 Obj:{pid:78 openPorts:[] metadata:map[] podLabels:map[]}} {Type:0 Obj:{pid:847 openPorts:[] metadata:map[] podLabels:map[]}} {Type:0 Obj:{pid:2132 openPorts:[] metadata:map[] podLabels:map[]}} {Type:0 Obj:{pid:2179 openPorts:[] metadata:map[] podLabels:map[]}} {Type:0 Obj:{pid:2235 openPorts:[] metadata:map[] podLabels:map[]}} {Type:0 Obj:{pid:79786 openPorts:[] metadata:map[] podLabels:map[]}} {Type:0 Obj:{pid:84650 openPorts:[] metadata:map[] podLabels:map[]}} {Type:0 Obj:{pid:94543 openPorts:[] metadata:map[] podLabels:map[]}} {Type:0 Obj:{pid:844 openPorts:[] metadata:map[] podLabels:map[]}} {Type:0 Obj:{pid:24 openPorts:[] metadata:map[] podLabels:map[]}} {Type:0 Obj:{pid:461 openPorts:[] metadata:map[] podLabels:map[]}} {Type:0 Obj:{pid:4995 openPorts:[] metadata:map[] podLabels:map[]}} {Type:0 Obj:{pid:21 openPorts:[] metadata:map[] podLabels:map[]}} {Type:0 Obj:{pid:229 openPorts:[] metadata:map[] podLabels:map[]}} {Type:0 Obj:{pid:233 openPorts:[] metadata:map[] podLabels:map[]}} {Type:0 Obj:{pid:841 openPorts:[] metadata:map[] podLabels:map[]}} {Type:0 Obj:{pid:2083 openPorts:[] metadata:map[] podLabels:map[]}} {Type:0 Obj:{pid:2121 openPorts:[] metadata:map[] podLabels:map[]}} {Type:0 Obj:{pid:68446 openPorts:[] metadata:map[] podLabels:map[]}} {Type:0 Obj:{pid:127 openPorts:[] metadata:map[] podLabels:map[]}} {Type:0 Obj:{pid:86 openPorts:[] metadata:map[] podLabels:map[]}} {Type:0 Obj:{pid:1326 openPorts:[] metadata:map[] podLabels:map[]}} {Type:0 Obj:{pid:5063 openPorts:[] metadata:map[] podLabels:map[]}} {Type:0 Obj:{pid:21502 openPorts:[22 37526] metadata:map[] podLabels:map[]}} {Type:0 Obj:{pid:16 openPorts:[] metadata:map[] podLabels:map[]}} {Type:0 Obj:{pid:209 openPorts:[] metadata:map[] podLabels:map[]}} {Type:0 Obj:{pid:669 openPorts:[] metadata:map[] podLabels:map[]}} {Type:0 Obj:{pid:685 openPorts:[] metadata:map[] podLabels:map[]}} {Type:0 Obj:{pid:978 openPorts:[] metadata:map[] podLabels:map[]}} {Type:0 Obj:{pid:1973 openPorts:[] metadata:map[] podLabels:map[]}} {Type:0 Obj:{pid:19999 openPorts:[22] metadata:map[] podLabels:map[]}} {Type:0 Obj:{pid:85219 openPorts:[] metadata:map[] podLabels:map[]}} {Type:0 Obj:{pid:44 openPorts:[] metadata:map[] podLabels:map[]}} {Type:0 Obj:{pid:136 openPorts:[] metadata:map[] podLabels:map[]}} {Type:0 Obj:{pid:198 openPorts:[] metadata:map[] podLabels:map[]}} {Type:0 Obj:{pid:813 openPorts:[] metadata:map[] podLabels:map[]}} {Type:0 Obj:{pid:98 openPorts:[] metadata:map[] podLabels:map[]}} {Type:0 Obj:{pid:101 openPorts:[] metadata:map[] podLabels:map[]}} {Type:0 Obj:{pid:488 openPorts:[] metadata:map[] podLabels:map[]}} {Type:0 Obj:{pid:674 openPorts:[] metadata:map[] podLabels:map[]}} {Type:0 Obj:{pid:2129 openPorts:[] metadata:map[] podLabels:map[]}} {Type:0 Obj:{pid:2137 openPorts:[] metadata:map[] podLabels:map[]}} {Type:0 Obj:{pid:2368 openPorts:[] metadata:map[] podLabels:map[]}} {Type:0 Obj:{pid:85218 openPorts:[] metadata:map[] podLabels:map[]}} {Type:0 Obj:{pid:70 openPorts:[] metadata:map[] podLabels:map[]}} {Type:0 Obj:{pid:65 openPorts:[] metadata:map[] podLabels:map[]}} {Type:0 Obj:{pid:83 openPorts:[] metadata:map[] podLabels:map[]}} {Type:0 Obj:{pid:88 openPorts:[] metadata:map[] podLabels:map[]}} {Type:0 Obj:{pid:126 openPorts:[] metadata:map[] podLabels:map[]}} {Type:0 Obj:{pid:1984 openPorts:[] metadata:map[] podLabels:map[]}} {Type:0 Obj:{pid:2181 openPorts:[] metadata:map[] podLabels:map[]}} {Type:0 Obj:{pid:2 openPorts:[] metadata:map[] podLabels:map[]}} {Type:0 Obj:{pid:95 openPorts:[] metadata:map[] podLabels:map[]}} {Type:0 Obj:{pid:160 openPorts:[] metadata:map[] podLabels:map[]}} {Type:0 Obj:{pid:815 openPorts:[68] metadata:map[] podLabels:map[]}} {Type:0 Obj:{pid:2013 openPorts:[] metadata:map[] podLabels:map[]}} {Type:0 Obj:{pid:2063 openPorts:[] metadata:map[] podLabels:map[]}} {Type:0 Obj:{pid:62977 openPorts:[] metadata:map[] podLabels:map[]}} {Type:0 Obj:{pid:80075 openPorts:[] metadata:map[] podLabels:map[]}} {Type:0 Obj:{pid:33 openPorts:[] metadata:map[] podLabels:map[]}} {Type:0 Obj:{pid:1939 openPorts:[] metadata:map[] podLabels:map[]}} {Type:0 Obj:{pid:2022 openPorts:[] metadata:map[] podLabels:map[]}} {Type:0 Obj:{pid:68445 openPorts:[] metadata:map[] podLabels:map[]}} {Type:0 Obj:{pid:83949 openPorts:[] metadata:map[] podLabels:map[]}} {Type:0 Obj:{pid:85212 openPorts:[] metadata:map[] podLabels:map[]}} {Type:0 Obj:{pid:973 openPorts:[36417] metadata:map[] podLabels:map[]}} {Type:0 Obj:{pid:35 openPorts:[] metadata:map[] podLabels:map[]}} {Type:0 Obj:{pid:82 openPorts:[] metadata:map[] podLabels:map[]}} {Type:0 Obj:{pid:97 openPorts:[] metadata:map[] podLabels:map[]}} {Type:0 Obj:{pid:230 openPorts:[] metadata:map[] podLabels:map[]}} {Type:0 Obj:{pid:300 openPorts:[] metadata:map[] podLabels:map[]}} {Type:0 Obj:{pid:340 openPorts:[] metadata:map[] podLabels:map[]}} {Type:0 Obj:{pid:823 openPorts:[] metadata:map[] podLabels:map[]}} {Type:0 Obj:{pid:23 openPorts:[] metadata:map[] podLabels:map[]}} {Type:0 Obj:{pid:17430 openPorts:[22] metadata:map[] podLabels:map[]}} {Type:0 Obj:{pid:85211 openPorts:[] metadata:map[] podLabels:map[]}} {Type:0 Obj:{pid:5004 openPorts:[] metadata:map[] podLabels:map[]}} {Type:0 Obj:{pid:27 openPorts:[] metadata:map[] podLabels:map[]}} {Type:0 Obj:{pid:30 openPorts:[] metadata:map[] podLabels:map[]}} {Type:0 Obj:{pid:94 openPorts:[] metadata:map[] podLabels:map[]}} {Type:0 Obj:{pid:116 openPorts:[] metadata:map[] podLabels:map[]}} {Type:0 Obj:{pid:118 openPorts:[] metadata:map[] podLabels:map[]}} {Type:0 Obj:{pid:222 openPorts:[] metadata:map[] podLabels:map[]}} {Type:0 Obj:{pid:1928 openPorts:[] metadata:map[] podLabels:map[]}} {Type:0 Obj:{pid:26 openPorts:[] metadata:map[] podLabels:map[]}} {Type:0 Obj:{pid:2042 openPorts:[] metadata:map[] podLabels:map[]}} {Type:0 Obj:{pid:5003 openPorts:[] metadata:map[] podLabels:map[]}} {Type:0 Obj:{pid:2004 openPorts:[] metadata:map[] podLabels:map[]}} {Type:0 Obj:{pid:40 openPorts:[] metadata:map[] podLabels:map[]}} {Type:0 Obj:{pid:42 openPorts:[] metadata:map[] podLabels:map[]}} {Type:0 Obj:{pid:675 openPorts:[] metadata:map[] podLabels:map[]}} {Type:0 Obj:{pid:1446 openPorts:[] metadata:map[] podLabels:map[]}} {Type:0 Obj:{pid:6 openPorts:[] metadata:map[] podLabels:map[]}} {Type:0 Obj:{pid:100 openPorts:[] metadata:map[] podLabels:map[]}} {Type:0 Obj:{pid:208 openPorts:[] metadata:map[] podLabels:map[]}} {Type:0 Obj:{pid:2169 openPorts:[] metadata:map[] podLabels:map[]}} {Type:0 Obj:{pid:4394 openPorts:[] metadata:map[] podLabels:map[]}} {Type:0 Obj:{pid:20000 openPorts:[] metadata:map[] podLabels:map[]}} {Type:0 Obj:{pid:83986 openPorts:[] metadata:map[] podLabels:map[]}} {Type:0 Obj:{pid:38 openPorts:[] metadata:map[] podLabels:map[]}} {Type:0 Obj:{pid:53 openPorts:[] metadata:map[] podLabels:map[]}} {Type:0 Obj:{pid:96 openPorts:[] metadata:map[] podLabels:map[]}} {Type:0 Obj:{pid:2106 openPorts:[] metadata:map[] podLabels:map[]}} {Type:0 Obj:{pid:17389 openPorts:[22] metadata:map[] podLabels:map[]}} {Type:0 Obj:{pid:80344 openPorts:[] metadata:map[] podLabels:map[]}} {Type:0 Obj:{pid:85208 openPorts:[] metadata:map[] podLabels:map[]}} {Type:0 Obj:{pid:29 openPorts:[] metadata:map[] podLabels:map[]}} {Type:0 Obj:{pid:22 openPorts:[] metadata:map[] podLabels:map[]}} {Type:0 Obj:{pid:102 openPorts:[] metadata:map[] podLabels:map[]}} {Type:0 Obj:{pid:549 openPorts:[] metadata:map[] podLabels:map[]}} {Type:0 Obj:{pid:1946 openPorts:[] metadata:map[] podLabels:map[]}} {Type:0 Obj:{pid:4476 openPorts:[] metadata:map[] podLabels:map[]}} {Type:0 Obj:{pid:4570 openPorts:[] metadata:map[] podLabels:map[]}} {Type:0 Obj:{pid:4669 openPorts:[42324 53 8080 8181 9153 49028 53] metadata:map[] podLabels:map[]}} {Type:0 Obj:{pid:10 openPorts:[] metadata:map[] podLabels:map[]}} {Type:0 Obj:{pid:83540 openPorts:[] metadata:map[] podLabels:map[]}}]"
time=2025-01-12T16:32:43.773-05:00 level=DEBUG msg="filtering processes" component=discover.CriteriaMatcher len=380
time=2025-01-12T16:32:43.786-05:00 level=DEBUG msg="found process" component=discover.CriteriaMatcher pid=17484 comm=/home/nino/work/ml/llama.cpp/main metadata=map[] podLabels=map[]
time=2025-01-12T16:32:43.826-05:00 level=DEBUG msg="processes matching selection criteria" component=discover.CriteriaMatcher len=1
time=2025-01-12T16:32:43.826-05:00 level=DEBUG msg="Found namespace" component=pids.Tracer nsPid=pid:[4026531836]
time=2025-01-12T16:32:43.826-05:00 level=DEBUG msg="getting instrumentable information" component=discover.ExecTyper pid=17484 comm=/home/nino/work/ml/llama.cpp/main
time=2025-01-12T16:32:43.827-05:00 level=DEBUG msg=inspecting component=discover.ExecTyper pid=17484 comm=/home/nino/work/ml/llama.cpp/main
time=2025-01-12T16:32:43.827-05:00 level=DEBUG msg="searching for instrumentation points" component=goexec.instructions functions="[net/http.(*conn).serve github.com/redis/go-redis/v9.(*baseClient)._process github.com/IBM/sarama.(*responsePromise).handle github.com/Shopify/sarama.(*Broker).sendInternal net/http.(*conn).readRequest golang.org/x/net/http2.(*ClientConn).roundTrip net/http.(*response).WriteHeader google.golang.org/grpc/internal/transport.(*http2Client).NewStream github.com/segmentio/kafka-go.(*reader).read github.com/segmentio/kafka-go.(*reader).sendMessage net/textproto.(*Reader).readContinuedLineSlice net/http.(*Transport).roundTrip net/http.(*http2serverConn).runHandler net/http.(*persistConn).roundTrip github.com/segmentio/kafka-go.(*Client).roundTrip net/http.(*http2responseWriterState).writeHeader golang.org/x/net/http2.(*serverConn).runHandler google.golang.org/grpc.(*ClientConn).NewStream google.golang.org/grpc/internal/transport.(*http2Server).operateHeaders github.com/redis/go-redis/v9/internal/pool.(*Conn).WithWriter github.com/segmentio/kafka-go.(*Writer).produce github.com/Shopify/sarama.(*responsePromise).handle net.(*netFD).Read google.golang.org/grpc/internal/transport.(*http2Server).WriteStatus database/sql.(*DB).queryDC google.golang.org/grpc.(*Server).handleStream google.golang.org/grpc/internal/transport.(*serverHandlerTransport).HandleStreams github.com/redis/go-redis/v9.(*baseClient).txPipelineProcessCmds github.com/IBM/sarama.(*Broker).write runtime.goexit1 golang.org/x/net/http2.(*responseWriterState).writeHeader github.com/Shopify/sarama.(*Broker).write net/http.serverHandler.ServeHTTP google.golang.org/grpc.(*clientStream).CloseSend net/http.(*http2ClientConn).roundTrip golang.org/x/net/http2.(*serverConn).processHeaders database/sql.(*DB).execDC google.golang.org/grpc.(*ClientConn).Close google.golang.org/grpc.(*clientStream).RecvMsg github.com/redis/go-redis/v9.(*baseClient).pipelineProcessCmds runtime.newproc1 net/http.(*http2ClientConn).RoundTrip github.com/IBM/sarama.(*Broker).sendInternal golang.org/x/net/http2.(*Framer).WriteHeaders google.golang.org/grpc.(*ClientConn).Invoke github.com/segmentio/kafka-go.(*Writer).WriteMessages github.com/segmentio/kafka-go/protocol.RoundTrip net/http.Header.writeSubset net/http.(*http2Framer).WriteHeaders golang.org/x/net/http2.(*ClientConn).RoundTrip net/http.(*http2serverConn).processHeaders]"
time=2025-01-12T16:32:43.827-05:00 level=DEBUG msg="couldn't find go specific tracers" component=discover.ExecTyper error="couldn't find any instrumentation point in /home/nino/work/ml/llama.cpp/main"
time=2025-01-12T16:32:43.827-05:00 level=DEBUG msg="identified as a generic, non-Go executable" component=discover.ExecTyper pid=17484 comm=/home/nino/work/ml/llama.cpp/main
time=2025-01-12T16:32:43.829-05:00 level=DEBUG msg=instrumented component=discover.ExecTyper pid=17484 comm=/home/nino/work/ml/llama.cpp/main comm=/home/nino/work/ml/llama.cpp/main pid=17484 child=[] language=generic
time=2025-01-12T16:32:43.829-05:00 level=DEBUG msg="found an instrumentable process" component=discover.ExecTyper type=generic exec=/home/nino/work/ml/llama.cpp/main pid=17484
time=2025-01-12T16:32:43.829-05:00 level=DEBUG msg=Instrumentable component=discover.TraceAttacher created=0 type=generic exec=/home/nino/work/ml/llama.cpp/main pid=17484
time=2025-01-12T16:32:43.829-05:00 level=INFO msg="instrumenting process" component=discover.TraceAttacher cmd=/home/nino/work/ml/llama.cpp/main pid=17484 ino=17732000 type=generic
Name: ggml_vec_dot_bf16, address: 262496
	->Name: ggml_vec_dot_bf16, address: 196960, vaddr: 65536
Name: ggml_vec_mad_f32_unroll, address: 262848
	->Name: ggml_vec_mad_f32_unroll, address: 197312, vaddr: 65536
Name: ggml_vec_dot_f32, address: 264400
	->Name: ggml_vec_dot_f32, address: 198864, vaddr: 65536
Name: ggml_vec_dot_f16, address: 264912
	->Name: ggml_vec_dot_f16, address: 199376, vaddr: 65536
Name: rope_yarn, address: 265168
	->Name: rope_yarn, address: 199632, vaddr: 65536
Name: ggml_vec_dot_f16.constprop.0, address: 265440
	->Name: ggml_vec_dot_f16.constprop.0, address: 199904, vaddr: 65536
Name: ggml_vec_dot_f16.constprop.1, address: 265696
	->Name: ggml_vec_dot_f16.constprop.1, address: 200160, vaddr: 65536
Name: ggml_vec_dot_f32.constprop.0, address: 265952
	->Name: ggml_vec_dot_f32.constprop.0, address: 200416, vaddr: 65536
Name: ggml_vec_dot_f32.constprop.1, address: 266464
	->Name: ggml_vec_dot_f32.constprop.1, address: 200928, vaddr: 65536
Name: gguf_bwrite_str, address: 268720
	->Name: gguf_bwrite_str, address: 203184, vaddr: 65536
Name: ggml_new_object, address: 269184
	->Name: ggml_new_object, address: 203648, vaddr: 65536
Name: ggml_set_op_params.part.0, address: 269440
	->Name: ggml_set_op_params.part.0, address: 203904, vaddr: 65536
Name: ggml_compute_forward_im2col, address: 269520
	->Name: ggml_compute_forward_im2col, address: 203984, vaddr: 65536
Name: ggml_compute_forward_flash_attn_f16, address: 275776
	->Name: ggml_compute_forward_flash_attn_f16, address: 210240, vaddr: 65536
Name: ggml_compute_forward_flash_attn_f32, address: 281344
	->Name: ggml_compute_forward_flash_attn_f32, address: 215808, vaddr: 65536
Name: ggml_compute_forward_flash_attn_ext_f16, address: 285056
	->Name: ggml_compute_forward_flash_attn_ext_f16, address: 219520, vaddr: 65536
Name: ggml_compute_forward_flash_ff_f16, address: 288336
	->Name: ggml_compute_forward_flash_ff_f16, address: 222800, vaddr: 65536
Name: gguf_type_size.part.0, address: 291632
	->Name: gguf_type_size.part.0, address: 226096, vaddr: 65536
Name: ggml_div_impl.part.0, address: 291712
	->Name: ggml_div_impl.part.0, address: 226176, vaddr: 65536
Name: ggml_norm_impl.part.0, address: 291792
	->Name: ggml_norm_impl.part.0, address: 226256, vaddr: 65536
Name: ggml_group_norm_impl.part.0, address: 291872
	->Name: ggml_group_norm_impl.part.0, address: 226336, vaddr: 65536
Name: gguf_write_to_buf.constprop.0, address: 291952
	->Name: gguf_write_to_buf.constprop.0, address: 226416, vaddr: 65536
Name: ggml_compute_forward_diag, address: 297488
	->Name: ggml_compute_forward_diag, address: 231952, vaddr: 65536
Name: ggml_compute_forward_out_prod_f32.isra.0, address: 298544
	->Name: ggml_compute_forward_out_prod_f32.isra.0, address: 233008, vaddr: 65536
Name: ggml_compute_forward_sum_rows, address: 301072
	->Name: ggml_compute_forward_sum_rows, address: 235536, vaddr: 65536
Name: gguf_fread_str, address: 301888
	->Name: gguf_fread_str, address: 236352, vaddr: 65536
Name: ggml_compute_forward_get_rows, address: 304480
	->Name: ggml_compute_forward_get_rows, address: 238944, vaddr: 65536
Name: ggml_compute_forward_ssm_conv_f32, address: 306864
	->Name: ggml_compute_forward_ssm_conv_f32, address: 241328, vaddr: 65536
Name: ggml_compute_forward_ssm_scan_f32, address: 310624
	->Name: ggml_compute_forward_ssm_scan_f32, address: 245088, vaddr: 65536
Name: ggml_compute_forward_soft_max, address: 312752
	->Name: ggml_compute_forward_soft_max, address: 247216, vaddr: 65536
Name: ggml_compute_forward_sub, address: 315456
	->Name: ggml_compute_forward_sub, address: 249920, vaddr: 65536
Name: ggml_compute_forward_conv_transpose_1d_f16_f32, address: 317856
	->Name: ggml_compute_forward_conv_transpose_1d_f16_f32, address: 252320, vaddr: 65536
Name: ggml_compute_forward_conv_transpose_1d_f32, address: 319152
	->Name: ggml_compute_forward_conv_transpose_1d_f32, address: 253616, vaddr: 65536
Name: ggml_compute_forward_conv_transpose_2d, address: 320480
	->Name: ggml_compute_forward_conv_transpose_2d, address: 254944, vaddr: 65536
Name: ggml_compute_forward_pool_2d, address: 322304
	->Name: ggml_compute_forward_pool_2d, address: 256768, vaddr: 65536
Name: ggml_compute_forward_out_prod_q_f32, address: 323280
	->Name: ggml_compute_forward_out_prod_q_f32, address: 257744, vaddr: 65536
Name: ggml_compute_forward_flash_attn_back_f32, address: 325264
	->Name: ggml_compute_forward_flash_attn_back_f32, address: 259728, vaddr: 65536
Name: ggml_new_tensor_impl.constprop.0, address: 333744
	->Name: ggml_new_tensor_impl.constprop.0, address: 268208, vaddr: 65536
Name: ggml_new_tensor_impl.constprop.1, address: 334480
	->Name: ggml_new_tensor_impl.constprop.1, address: 268944, vaddr: 65536
Name: ggml_new_tensor_impl.constprop.2, address: 335120
	->Name: ggml_new_tensor_impl.constprop.2, address: 269584, vaddr: 65536
Name: ggml_new_tensor_impl.constprop.3, address: 335728
	->Name: ggml_new_tensor_impl.constprop.3, address: 270192, vaddr: 65536
Name: ggml_compute_forward_dup_same_cont, address: 337424
	->Name: ggml_compute_forward_dup_same_cont, address: 271888, vaddr: 65536
Name: ggml_compute_forward_dup, address: 337824
	->Name: ggml_compute_forward_dup, address: 272288, vaddr: 65536
Name: ggml_compute_forward_mul_mat, address: 363376
	->Name: ggml_compute_forward_mul_mat, address: 297840, vaddr: 65536
Name: ggml_compute_forward_mul_mat_id, address: 368032
	->Name: ggml_compute_forward_mul_mat_id, address: 302496, vaddr: 65536
Name: ggml_compute_forward_get_rows_back, address: 370592
	->Name: ggml_compute_forward_get_rows_back, address: 305056, vaddr: 65536
Name: ggml_compute_forward_diag_mask_f32, address: 371968
	->Name: ggml_compute_forward_diag_mask_f32, address: 306432, vaddr: 65536
Name: ggml_compute_forward_repeat_back, address: 373072
	->Name: ggml_compute_forward_repeat_back, address: 307536, vaddr: 65536
Name: ggml_compute_forward_repeat, address: 375568
	->Name: ggml_compute_forward_repeat, address: 310032, vaddr: 65536
Name: ggml_compute_forward_add, address: 379680
	->Name: ggml_compute_forward_add, address: 314144, vaddr: 65536
Name: ggml_compute_forward_add1, address: 393616
	->Name: ggml_compute_forward_add1, address: 328080, vaddr: 65536
Name: ggml_compute_forward_acc, address: 403856
	->Name: ggml_compute_forward_acc, address: 338320, vaddr: 65536
Name: ggml_compute_forward_mul, address: 405376
	->Name: ggml_compute_forward_mul, address: 339840, vaddr: 65536
Name: ggml_compute_forward_div, address: 407520
	->Name: ggml_compute_forward_div, address: 341984, vaddr: 65536
Name: ggml_compute_forward_silu_back, address: 409632
	->Name: ggml_compute_forward_silu_back, address: 344096, vaddr: 65536
Name: ggml_compute_forward_norm, address: 410528
	->Name: ggml_compute_forward_norm, address: 344992, vaddr: 65536
Name: ggml_compute_forward_rms_norm, address: 411968
	->Name: ggml_compute_forward_rms_norm, address: 346432, vaddr: 65536
Name: ggml_compute_forward_rms_norm_back, address: 413408
	->Name: ggml_compute_forward_rms_norm_back, address: 347872, vaddr: 65536
Name: ggml_compute_forward_group_norm, address: 416192
	->Name: ggml_compute_forward_group_norm, address: 350656, vaddr: 65536
Name: ggml_compute_forward_set, address: 417920
	->Name: ggml_compute_forward_set, address: 352384, vaddr: 65536
Name: ggml_compute_forward_soft_max_back, address: 419296
	->Name: ggml_compute_forward_soft_max_back, address: 353760, vaddr: 65536
Name: ggml_compute_forward_cross_entropy_loss_f32, address: 420896
	->Name: ggml_compute_forward_cross_entropy_loss_f32, address: 355360, vaddr: 65536
Name: ggml_compute_forward_cross_entropy_loss_back, address: 423280
	->Name: ggml_compute_forward_cross_entropy_loss_back, address: 357744, vaddr: 65536
Name: ggml_get_n_tasks, address: 437712
	->Name: ggml_get_n_tasks, address: 372176, vaddr: 65536
Name: ggml_compute_forward_unary, address: 438512
	->Name: ggml_compute_forward_unary, address: 372976, vaddr: 65536
Name: ggml_add_impl, address: 445232
	->Name: ggml_add_impl, address: 379696, vaddr: 65536
Name: ggml_acc_impl, address: 445696
	->Name: ggml_acc_impl, address: 380160, vaddr: 65536
Name: ggml_compute_forward_rope_f16, address: 487120
	->Name: ggml_compute_forward_rope_f16, address: 421584, vaddr: 65536
Name: ggml_compute_forward_rope_f32, address: 490240
	->Name: ggml_compute_forward_rope_f32, address: 424704, vaddr: 65536
Name: ggml_compute_forward.part.0, address: 494288
	->Name: ggml_compute_forward.part.0, address: 428752, vaddr: 65536
Name: ggml_graph_compute_thread, address: 516384
	->Name: ggml_graph_compute_thread, address: 450848, vaddr: 65536
Name: ggml_recompute_graph_node, address: 518384
	->Name: ggml_recompute_graph_node, address: 452848, vaddr: 65536
Name: ggml_sub_or_set, address: 519168
	->Name: ggml_sub_or_set, address: 453632, vaddr: 65536
Name: ggml_visit_parents, address: 519632
	->Name: ggml_visit_parents, address: 454096, vaddr: 65536
Name: ggml_build_backward_expand.cold, address: 76496
	->Name: ggml_build_backward_expand.cold, address: 10960, vaddr: 65536
Name: ggml_graph_compute_with_ctx.cold, address: 76536
	->Name: ggml_graph_compute_with_ctx.cold, address: 11000, vaddr: 65536
Name: ggml_opt_adam, address: 547472
	->Name: ggml_opt_adam, address: 481936, vaddr: 65536
Name: ggml_opt_lbfgs, address: 550608
	->Name: ggml_opt_lbfgs, address: 485072, vaddr: 65536
Name: _ZL21llama_model_type_name7e_model, address: 579856
	->Name: _ZL21llama_model_type_name7e_model, address: 514320, vaddr: 65536
Name: _ZL35llama_grammar_detect_left_recursionRKSt6vectorIS_I21llama_grammar_elementSaIS0_EESaIS2_EEmPS_IbSaIbEES9_S9_, address: 580384
	->Name: _ZL35llama_grammar_detect_left_recursionRKSt6vectorIS_I21llama_grammar_elementSaIS0_EESaIS2_EEmPS_IbSaIbEES9_S9_, address: 514848, vaddr: 65536
Name: _ZNSt17_Function_handlerIFvP11ggml_tensorPKciEZL24llama_build_graph_defragR13llama_contextRKSt6vectorIjSaIjEEEUlS1_S3_iE_E9_M_invokeERKSt9_Any_dataOS1_OS3_Oi, address: 580832
	->Name: _ZNSt17_Function_handlerIFvP11ggml_tensorPKciEZL24llama_build_graph_defragR13llama_contextRKSt6vectorIjSaIjEEEUlS1_S3_iE_E9_M_invokeERKSt9_Any_dataOS1_OS3_Oi, address: 515296, vaddr: 65536
Name: _ZNSt17_Function_handlerIFvP11ggml_tensorPKciEZL24llama_build_graph_defragR13llama_contextRKSt6vectorIjSaIjEEEUlS1_S3_iE_E10_M_managerERSt9_Any_dataRKSE_St18_Manager_operation, address: 580848
	->Name: _ZNSt17_Function_handlerIFvP11ggml_tensorPKciEZL24llama_build_graph_defragR13llama_contextRKSt6vectorIjSaIjEEEUlS1_S3_iE_E10_M_managerERSt9_Any_dataRKSE_St18_Manager_operation, address: 515312, vaddr: 65536
Name: _ZNSt17_Function_handlerIFvP11ggml_tensorPKciEZL25llama_build_graph_k_shiftR13llama_contextEUlS1_S3_iE_E10_M_managerERSt9_Any_dataRKS9_St18_Manager_operation, address: 580896
	->Name: _ZNSt17_Function_handlerIFvP11ggml_tensorPKciEZL25llama_build_graph_k_shiftR13llama_contextEUlS1_S3_iE_E10_M_managerERSt9_Any_dataRKS9_St18_Manager_operation, address: 515360, vaddr: 65536
Name: _ZNSt17_Function_handlerIFvP11ggml_tensorPKciEZL24llama_build_graph_s_copyR13llama_contextEUlS1_S3_iE_E10_M_managerERSt9_Any_dataRKS9_St18_Manager_operation, address: 580944
	->Name: _ZNSt17_Function_handlerIFvP11ggml_tensorPKciEZL24llama_build_graph_s_copyR13llama_contextEUlS1_S3_iE_E10_M_managerERSt9_Any_dataRKS9_St18_Manager_operation, address: 515408, vaddr: 65536
Name: _ZSt13__adjust_heapIN9__gnu_cxx17__normal_iteratorIPmSt6vectorImSaImEEEElmNS0_5__ops15_Iter_comp_iterIZ20llama_sample_typicalEUlmmE_EEEvT_T0_SC_T1_T2_, address: 580992
	->Name: _ZSt13__adjust_heapIN9__gnu_cxx17__normal_iteratorIPmSt6vectorImSaImEEEElmNS0_5__ops15_Iter_comp_iterIZ20llama_sample_typicalEUlmmE_EEEvT_T0_SC_T1_T2_, address: 515456, vaddr: 65536
Name: _ZSt16__introsort_loopIN9__gnu_cxx17__normal_iteratorIPmSt6vectorImSaImEEEElNS0_5__ops15_Iter_comp_iterIZ20llama_sample_typicalEUlmmE_EEEvT_SB_T0_T1_, address: 581360
	->Name: _ZSt16__introsort_loopIN9__gnu_cxx17__normal_iteratorIPmSt6vectorImSaImEEEElNS0_5__ops15_Iter_comp_iterIZ20llama_sample_typicalEUlmmE_EEEvT_SB_T0_T1_, address: 515824, vaddr: 65536
Name: _ZL20llama_log_internal_v14ggml_log_levelPKcP13__va_list_tag, address: 581872
	->Name: _ZL20llama_log_internal_v14ggml_log_levelPKcP13__va_list_tag, address: 516336, vaddr: 65536
Name: _ZSt16__insertion_sortIN9__gnu_cxx17__normal_iteratorIPmSt6vectorImSaImEEEENS0_5__ops15_Iter_comp_iterIZ20llama_sample_typicalEUlmmE_EEEvT_SB_T0_, address: 582128
	->Name: _ZSt16__insertion_sortIN9__gnu_cxx17__normal_iteratorIPmSt6vectorImSaImEEEENS0_5__ops15_Iter_comp_iterIZ20llama_sample_typicalEUlmmE_EEEvT_SB_T0_, address: 516592, vaddr: 65536
Name: _ZL17llama_log_softmaxPfm, address: 582384
	->Name: _ZL17llama_log_softmaxPfm, address: 516848, vaddr: 65536
Name: _ZNSt6thread11_State_implINS_8_InvokerISt5tupleIJZL32llama_tensor_dequantize_internalP11ggml_tensorRSt6vectorI7no_initIfESaIS7_EERS5_IS_SaIS_EEmiEUl9ggml_typePhPfiE_SE_SF_SG_mEEEEED2Ev, address: 582576
	->Name: _ZNSt6thread11_State_implINS_8_InvokerISt5tupleIJZL32llama_tensor_dequantize_internalP11ggml_tensorRSt6vectorI7no_initIfESaIS7_EERS5_IS_SaIS_EEmiEUl9ggml_typePhPfiE_SE_SF_SG_mEEEEED2Ev, address: 517040, vaddr: 65536
Name: _ZNSt6thread11_State_implINS_8_InvokerISt5tupleIJZL32llama_tensor_dequantize_internalP11ggml_tensorRSt6vectorI7no_initIfESaIS7_EERS5_IS_SaIS_EEmiEUl9ggml_typePhPfiE_SE_SF_SG_mEEEEED1Ev, address: 582576
	->Name: _ZNSt6thread11_State_implINS_8_InvokerISt5tupleIJZL32llama_tensor_dequantize_internalP11ggml_tensorRSt6vectorI7no_initIfESaIS7_EERS5_IS_SaIS_EEmiEUl9ggml_typePhPfiE_SE_SF_SG_mEEEEED1Ev, address: 517040, vaddr: 65536
Name: _ZNSt6thread11_State_implINS_8_InvokerISt5tupleIJZL32llama_tensor_dequantize_internalP11ggml_tensorRSt6vectorI7no_initIfESaIS7_EERS5_IS_SaIS_EEmiEUl9ggml_typePhPfiE_SE_SF_SG_mEEEEED0Ev, address: 582608
	->Name: _ZNSt6thread11_State_implINS_8_InvokerISt5tupleIJZL32llama_tensor_dequantize_internalP11ggml_tensorRSt6vectorI7no_initIfESaIS7_EERS5_IS_SaIS_EEmiEUl9ggml_typePhPfiE_SE_SF_SG_mEEEEED0Ev, address: 517072, vaddr: 65536
Name: _ZNSt6thread11_State_implINS_8_InvokerISt5tupleIJZL30llama_tensor_quantize_internal9ggml_typePKfPvlllS5_RSt6vectorIS_SaIS_EEiEUlvE_EEEEED2Ev, address: 582640
	->Name: _ZNSt6thread11_State_implINS_8_InvokerISt5tupleIJZL30llama_tensor_quantize_internal9ggml_typePKfPvlllS5_RSt6vectorIS_SaIS_EEiEUlvE_EEEEED2Ev, address: 517104, vaddr: 65536
Name: _ZNSt6thread11_State_implINS_8_InvokerISt5tupleIJZL30llama_tensor_quantize_internal9ggml_typePKfPvlllS5_RSt6vectorIS_SaIS_EEiEUlvE_EEEEED1Ev, address: 582640
	->Name: _ZNSt6thread11_State_implINS_8_InvokerISt5tupleIJZL30llama_tensor_quantize_internal9ggml_typePKfPvlllS5_RSt6vectorIS_SaIS_EEiEUlvE_EEEEED1Ev, address: 517104, vaddr: 65536
Name: _ZNSt6thread11_State_implINS_8_InvokerISt5tupleIJZL30llama_tensor_quantize_internal9ggml_typePKfPvlllS5_RSt6vectorIS_SaIS_EEiEUlvE_EEEEED0Ev, address: 582672
	->Name: _ZNSt6thread11_State_implINS_8_InvokerISt5tupleIJZL30llama_tensor_quantize_internal9ggml_typePKfPvlllS5_RSt6vectorIS_SaIS_EEiEUlvE_EEEEED0Ev, address: 517136, vaddr: 65536
Name: _ZNSt17_Function_handlerIFvP11ggml_tensorPKciEZL17llama_build_graphR13llama_contextRK11llama_batchbEUlS1_S3_iE_E9_M_invokeERKSt9_Any_dataOS1_OS3_Oi, address: 582704
	->Name: _ZNSt17_Function_handlerIFvP11ggml_tensorPKciEZL17llama_build_graphR13llama_contextRK11llama_batchbEUlS1_S3_iE_E9_M_invokeERKSt9_Any_dataOS1_OS3_Oi, address: 517168, vaddr: 65536
Name: _ZL13llm_build_kqvP12ggml_contextRK11llama_modelRK13llama_hparamsRK13llama_cparamsRK14llama_kv_cacheP11ggml_cgraphP11ggml_tensorSG_SG_SG_iifRKSt8functionIFvSG_PKciEEi, address: 583056
	->Name: _ZL13llm_build_kqvP12ggml_contextRK11llama_modelRK13llama_hparamsRK13llama_cparamsRK14llama_kv_cacheP11ggml_cgraphP11ggml_tensorSG_SG_SG_iifRKSt8functionIFvSG_PKciEEi, address: 517520, vaddr: 65536
Name: _ZNSt6thread11_State_implINS_8_InvokerISt5tupleIJZL32llama_tensor_dequantize_internalP11ggml_tensorRSt6vectorI7no_initIfESaIS7_EERS5_IS_SaIS_EEmiEUl9ggml_typePhPfiE_SE_SF_SG_mEEEEE6_M_runEv, address: 584992
	->Name: _ZNSt6thread11_State_implINS_8_InvokerISt5tupleIJZL32llama_tensor_dequantize_internalP11ggml_tensorRSt6vectorI7no_initIfESaIS7_EERS5_IS_SaIS_EEmiEUl9ggml_typePhPfiE_SE_SF_SG_mEEEEE6_M_runEv, address: 519456, vaddr: 65536
Name: _ZL26llama_log_callback_default14ggml_log_levelPKcPv, address: 585072
	->Name: _ZL26llama_log_callback_default14ggml_log_levelPKcPv, address: 519536, vaddr: 65536
Name: _ZNK10llama_file4tellEv.part.0, address: 585104
	->Name: _ZNK10llama_file4tellEv.part.0, address: 519568, vaddr: 65536
Name: _ZNK10llama_file4seekEmi.part.0, address: 585184
	->Name: _ZNK10llama_file4seekEmi.part.0, address: 519648, vaddr: 65536
Name: _ZN11llama_mlock7grow_toEm.part.0, address: 585264
	->Name: _ZN11llama_mlock7grow_toEm.part.0, address: 519728, vaddr: 65536
Name: _ZL24llama_grammar_match_charPK21llama_grammar_elementj, address: 585344
	->Name: _ZL24llama_grammar_match_charPK21llama_grammar_elementj, address: 519808, vaddr: 65536
Name: _ZNSt17_Function_handlerIFvP11ggml_tensorPKciEZL17llama_build_graphR13llama_contextRK11llama_batchbEUlS1_S3_iE_E10_M_managerERSt9_Any_dataRKSC_St18_Manager_operation, address: 585536
	->Name: _ZNSt17_Function_handlerIFvP11ggml_tensorPKciEZL17llama_build_graphR13llama_contextRK11llama_batchbEUlS1_S3_iE_E10_M_managerERSt9_Any_dataRKSC_St18_Manager_operation, address: 520000, vaddr: 65536
Name: _ZNSt17_Function_handlerIFvP11ggml_tensorPKciEZL25llama_build_graph_k_shiftR13llama_contextEUlS1_S3_iE_E9_M_invokeERKSt9_Any_dataOS1_OS3_Oi, address: 585616
	->Name: _ZNSt17_Function_handlerIFvP11ggml_tensorPKciEZL25llama_build_graph_k_shiftR13llama_contextEUlS1_S3_iE_E9_M_invokeERKSt9_Any_dataOS1_OS3_Oi, address: 520080, vaddr: 65536
Name: _ZSt13__adjust_heapIP16llama_token_datalS0_N9__gnu_cxx5__ops15_Iter_comp_iterIZ18llama_sample_min_pEUlRKS0_S6_E_EEEvT_T0_SA_T1_T2_.constprop.0, address: 585632
	->Name: _ZSt13__adjust_heapIP16llama_token_datalS0_N9__gnu_cxx5__ops15_Iter_comp_iterIZ18llama_sample_min_pEUlRKS0_S6_E_EEEvT_T0_SA_T1_T2_.constprop.0, address: 520096, vaddr: 65536
Name: _ZSt16__insertion_sortIP16llama_token_dataN9__gnu_cxx5__ops15_Iter_comp_iterIZ18llama_sample_min_pEUlRKS0_S6_E_EEEvT_S9_T0_.constprop.0, address: 586016
	->Name: _ZSt16__insertion_sortIP16llama_token_dataN9__gnu_cxx5__ops15_Iter_comp_iterIZ18llama_sample_min_pEUlRKS0_S6_E_EEEvT_S9_T0_.constprop.0, address: 520480, vaddr: 65536
Name: _ZSt16__insertion_sortIP16llama_token_dataN9__gnu_cxx5__ops15_Iter_comp_iterIZ18llama_sample_top_kEUlRKS0_S6_E_EEEvT_S9_T0_.constprop.0, address: 586304
	->Name: _ZSt16__insertion_sortIP16llama_token_dataN9__gnu_cxx5__ops15_Iter_comp_iterIZ18llama_sample_top_kEUlRKS0_S6_E_EEEvT_S9_T0_.constprop.0, address: 520768, vaddr: 65536
Name: _ZSt13__adjust_heapIP16llama_token_datalS0_N9__gnu_cxx5__ops15_Iter_comp_iterIZ18llama_sample_top_kEUlRKS0_S6_E_EEEvT_T0_SA_T1_T2_.constprop.0, address: 586592
	->Name: _ZSt13__adjust_heapIP16llama_token_datalS0_N9__gnu_cxx5__ops15_Iter_comp_iterIZ18llama_sample_top_kEUlRKS0_S6_E_EEEvT_T0_SA_T1_T2_.constprop.0, address: 521056, vaddr: 65536
Name: _ZSt13__heap_selectIP16llama_token_dataN9__gnu_cxx5__ops15_Iter_comp_iterIZ18llama_sample_top_kEUlRKS0_S6_E_EEEvT_S9_S9_T0_, address: 586976
	->Name: _ZSt13__heap_selectIP16llama_token_dataN9__gnu_cxx5__ops15_Iter_comp_iterIZ18llama_sample_top_kEUlRKS0_S6_E_EEEvT_S9_S9_T0_, address: 521440, vaddr: 65536
Name: _ZSt13__adjust_heapIP16llama_token_datalS0_N9__gnu_cxx5__ops15_Iter_comp_iterIZ20llama_sample_softmaxEUlRKS0_S6_E_EEEvT_T0_SA_T1_T2_.constprop.0, address: 587232
	->Name: _ZSt13__adjust_heapIP16llama_token_datalS0_N9__gnu_cxx5__ops15_Iter_comp_iterIZ20llama_sample_softmaxEUlRKS0_S6_E_EEEvT_T0_SA_T1_T2_.constprop.0, address: 521696, vaddr: 65536
Name: _ZSt16__insertion_sortIP16llama_token_dataN9__gnu_cxx5__ops15_Iter_comp_iterIZ20llama_sample_softmaxEUlRKS0_S6_E_EEEvT_S9_T0_.constprop.0, address: 587616
	->Name: _ZSt16__insertion_sortIP16llama_token_dataN9__gnu_cxx5__ops15_Iter_comp_iterIZ20llama_sample_softmaxEUlRKS0_S6_E_EEEvT_S9_T0_.constprop.0, address: 522080, vaddr: 65536
Name: _ZL17llm_build_moe_ffnP12ggml_contextP11ggml_tensorS2_S2_S2_S2_ll15llm_ffn_op_typebRKSt8functionIFvS2_PKciEEi.constprop.0, address: 587904
	->Name: _ZL17llm_build_moe_ffnP12ggml_contextP11ggml_tensorS2_S2_S2_S2_ll15llm_ffn_op_typebRKSt8functionIFvS2_PKciEEi.constprop.0, address: 522368, vaddr: 65536
Name: _ZL13llm_build_ffnP12ggml_contextP11ggml_tensorS2_S2_S2_S2_S2_S2_S2_15llm_ffn_op_type17llm_ffn_gate_typeRKSt8functionIFvS2_PKciEEi.constprop.0, address: 589488
	->Name: _ZL13llm_build_ffnP12ggml_contextP11ggml_tensorS2_S2_S2_S2_S2_S2_S2_15llm_ffn_op_type17llm_ffn_gate_typeRKSt8functionIFvS2_PKciEEi.constprop.0, address: 523952, vaddr: 65536
Name: _ZL13llm_build_ffnP12ggml_contextP11ggml_tensorS2_S2_S2_S2_S2_S2_S2_15llm_ffn_op_type17llm_ffn_gate_typeRKSt8functionIFvS2_PKciEEi.constprop.1, address: 590624
	->Name: _ZL13llm_build_ffnP12ggml_contextP11ggml_tensorS2_S2_S2_S2_S2_S2_S2_15llm_ffn_op_type17llm_ffn_gate_typeRKSt8functionIFvS2_PKciEEi.constprop.1, address: 525088, vaddr: 65536
Name: _ZL14llm_build_normP12ggml_contextP11ggml_tensorRK13llama_hparamsS2_S2_13llm_norm_typeRKSt8functionIFvS2_PKciEEi.constprop.2, address: 591600
	->Name: _ZL14llm_build_normP12ggml_contextP11ggml_tensorRK13llama_hparamsS2_S2_13llm_norm_typeRKSt8functionIFvS2_PKciEEi.constprop.2, address: 526064, vaddr: 65536
Name: _ZL18llama_log_internal14ggml_log_levelPKcz.constprop.0, address: 591904
	->Name: _ZL18llama_log_internal14ggml_log_levelPKcz.constprop.0, address: 526368, vaddr: 65536
Name: _ZZ26llama_load_model_from_fileENUlfPvE_4_FUNEfS_, address: 592096
	->Name: _ZZ26llama_load_model_from_fileENUlfPvE_4_FUNEfS_, address: 526560, vaddr: 65536
Name: _ZL18llama_log_internal14ggml_log_levelPKcz.constprop.1, address: 592240
	->Name: _ZL18llama_log_internal14ggml_log_levelPKcz.constprop.1, address: 526704, vaddr: 65536
Name: _ZL18llama_log_internal14ggml_log_levelPKcz.constprop.2, address: 592432
	->Name: _ZL18llama_log_internal14ggml_log_levelPKcz.constprop.2, address: 526896, vaddr: 65536
Name: _ZNSt6vectorIPK21llama_grammar_elementSaIS2_EEaSERKS4_.isra.0, address: 592624
	->Name: _ZNSt6vectorIPK21llama_grammar_elementSaIS2_EEaSERKS4_.isra.0, address: 527088, vaddr: 65536
Name: _ZSt16__introsort_loopIP16llama_token_datalN9__gnu_cxx5__ops15_Iter_comp_iterIZ18llama_sample_min_pEUlRKS0_S6_E_EEEvT_S9_T0_T1_, address: 592976
	->Name: _ZSt16__introsort_loopIP16llama_token_datalN9__gnu_cxx5__ops15_Iter_comp_iterIZ18llama_sample_min_pEUlRKS0_S6_E_EEEvT_S9_T0_T1_, address: 527440, vaddr: 65536
Name: _ZSt16__introsort_loopIP16llama_token_datalN9__gnu_cxx5__ops15_Iter_comp_iterIZ20llama_sample_softmaxEUlRKS0_S6_E_EEEvT_S9_T0_T1_, address: 593664
	->Name: _ZSt16__introsort_loopIP16llama_token_datalN9__gnu_cxx5__ops15_Iter_comp_iterIZ20llama_sample_softmaxEUlRKS0_S6_E_EEEvT_S9_T0_T1_, address: 528128, vaddr: 65536
Name: _ZSt13__adjust_heapIN9__gnu_cxx17__normal_iteratorIP16llama_token_dataSt6vectorIS2_SaIS2_EEEElS2_NS0_5__ops15_Iter_comp_iterIZN16llama_logit_info5top_kEmEUlRKS2_SC_E_EEEvT_T0_SG_T1_T2_.isra.0, address: 961744
	->Name: _ZSt13__adjust_heapIN9__gnu_cxx17__normal_iteratorIP16llama_token_dataSt6vectorIS2_SaIS2_EEEElS2_NS0_5__ops15_Iter_comp_iterIZN16llama_logit_info5top_kEmEUlRKS2_SC_E_EEEvT_T0_SG_T1_T2_.isra.0, address: 896208, vaddr: 65536
Name: _ZNSt7__cxx1112basic_stringIcSt11char_traitsIcESaIcEE6assignEPKc.isra.0, address: 594352
	->Name: _ZNSt7__cxx1112basic_stringIcSt11char_traitsIcESaIcEE6assignEPKc.isra.0, address: 528816, vaddr: 65536
Name: _ZNSt6vectorIlSaIlEEC2ESt16initializer_listIlERKS0_.constprop.0, address: 594400
	->Name: _ZNSt6vectorIlSaIlEEC2ESt16initializer_listIlERKS0_.constprop.0, address: 528864, vaddr: 65536
Name: _ZNSt6vectorIlSaIlEEC2ESt16initializer_listIlERKS0_.constprop.0.cold, address: 76576
	->Name: _ZNSt6vectorIlSaIlEEC2ESt16initializer_listIlERKS0_.constprop.0.cold, address: 11040, vaddr: 65536
Name: _ZNSt7__cxx1112basic_stringIcSt11char_traitsIcESaIcEEaSEOS4_.isra.0, address: 594576
	->Name: _ZNSt7__cxx1112basic_stringIcSt11char_traitsIcESaIcEEaSEOS4_.isra.0, address: 529040, vaddr: 65536
Name: _ZL18llm_build_kv_storeP12ggml_contextRK13llama_hparamsRK13llama_cparamsRK14llama_kv_cacheP11ggml_cgraphP11ggml_tensorSD_iiRKSt8functionIFvSD_PKciEEl.isra.0, address: 594784
	->Name: _ZL18llm_build_kv_storeP12ggml_contextRK13llama_hparamsRK13llama_cparamsRK14llama_kv_cacheP11ggml_cgraphP11ggml_tensorSD_iiRKSt8functionIFvSD_PKciEEl.isra.0, address: 529248, vaddr: 65536
Name: _ZL12llm_build_kvP12ggml_contextRK11llama_modelRK13llama_hparamsRK13llama_cparamsRK14llama_kv_cacheP11ggml_cgraphP11ggml_tensorSG_SG_SG_SG_SG_iiifRKSt8functionIFvSG_PKciEEi.constprop.1, address: 595472
	->Name: _ZL12llm_build_kvP12ggml_contextRK11llama_modelRK13llama_hparamsRK13llama_cparamsRK14llama_kv_cacheP11ggml_cgraphP11ggml_tensorSG_SG_SG_SG_SG_iiifRKSt8functionIFvSG_PKciEEi.constprop.1, address: 529936, vaddr: 65536
Name: _ZL12llm_build_kvP12ggml_contextRK11llama_modelRK13llama_hparamsRK13llama_cparamsRK14llama_kv_cacheP11ggml_cgraphP11ggml_tensorSG_SG_SG_SG_SG_iiifRKSt8functionIFvSG_PKciEEi.constprop.0, address: 595920
	->Name: _ZL12llm_build_kvP12ggml_contextRK11llama_modelRK13llama_hparamsRK13llama_cparamsRK14llama_kv_cacheP11ggml_cgraphP11ggml_tensorSG_SG_SG_SG_SG_iiifRKSt8functionIFvSG_PKciEEi.constprop.0, address: 530384, vaddr: 65536
Name: _ZL12llm_build_kvP12ggml_contextRK11llama_modelRK13llama_hparamsRK13llama_cparamsRK14llama_kv_cacheP11ggml_cgraphP11ggml_tensorSG_SG_SG_SG_SG_iiifRKSt8functionIFvSG_PKciEEi, address: 596352
	->Name: _ZL12llm_build_kvP12ggml_contextRK11llama_modelRK13llama_hparamsRK13llama_cparamsRK14llama_kv_cacheP11ggml_cgraphP11ggml_tensorSG_SG_SG_SG_SG_iiifRKSt8functionIFvSG_PKciEEi, address: 530816, vaddr: 65536
Name: _ZL18llm_build_inp_embdP12ggml_contextR13llama_contextRK13llama_hparamsRK11llama_batchP11ggml_tensorRKSt8functionIFvSA_PKciEE.isra.0, address: 596800
	->Name: _ZL18llm_build_inp_embdP12ggml_contextR13llama_contextRK13llama_hparamsRK11llama_batchP11ggml_tensorRKSt8functionIFvSA_PKciEE.isra.0, address: 531264, vaddr: 65536
Name: _ZNSt17_Function_handlerIFvP11ggml_tensorPKciEZL24llama_build_graph_s_copyR13llama_contextEUlS1_S3_iE_E9_M_invokeERKSt9_Any_dataOS1_OS3_Oi, address: 597120
	->Name: _ZNSt17_Function_handlerIFvP11ggml_tensorPKciEZL24llama_build_graph_s_copyR13llama_contextEUlS1_S3_iE_E9_M_invokeERKSt9_Any_dataOS1_OS3_Oi, address: 531584, vaddr: 65536
Name: _ZNSt10_HashtableIjSt4pairIKjP19ggml_backend_bufferESaIS4_ENSt8__detail10_Select1stESt8equal_toIjESt4hashIjENS6_18_Mod_range_hashingENS6_20_Default_ranged_hashENS6_20_Prime_rehash_policyENS6_17_Hashtable_traitsILb0ELb0ELb1EEEE9_M_assignIRKSH_NS6_10_AllocNodeISaINS6_10_Hash_nodeIS4_Lb0EEEEEEEEvOT_RKT0_.isra.0, address: 597136
	->Name: _ZNSt10_HashtableIjSt4pairIKjP19ggml_backend_bufferESaIS4_ENSt8__detail10_Select1stESt8equal_toIjESt4hashIjENS6_18_Mod_range_hashingENS6_20_Default_ranged_hashENS6_20_Prime_rehash_policyENS6_17_Hashtable_traitsILb0ELb0ELb1EEEE9_M_assignIRKSH_NS6_10_AllocNodeISaINS6_10_Hash_nodeIS4_Lb0EEEEEEEEvOT_RKT0_.isra.0, address: 531600, vaddr: 65536
Name: _ZNSt10_HashtableIjSt4pairIKjP19ggml_backend_bufferESaIS4_ENSt8__detail10_Select1stESt8equal_toIjESt4hashIjENS6_18_Mod_range_hashingENS6_20_Default_ranged_hashENS6_20_Prime_rehash_policyENS6_17_Hashtable_traitsILb0ELb0ELb1EEEE9_M_assignIRKSH_NS6_10_AllocNodeISaINS6_10_Hash_nodeIS4_Lb0EEEEEEEEvOT_RKT0_.isra.0.cold, address: 76606
	->Name: _ZNSt10_HashtableIjSt4pairIKjP19ggml_backend_bufferESaIS4_ENSt8__detail10_Select1stESt8equal_toIjESt4hashIjENS6_18_Mod_range_hashingENS6_20_Default_ranged_hashENS6_20_Prime_rehash_policyENS6_17_Hashtable_traitsILb0ELb0ELb1EEEE9_M_assignIRKSH_NS6_10_AllocNodeISaINS6_10_Hash_nodeIS4_Lb0EEEEEEEEvOT_RKT0_.isra.0.cold, address: 11070, vaddr: 65536
Name: _ZNSt7__cxx1112basic_stringIcSt11char_traitsIcESaIcEE12_M_constructIPKcEEvT_S8_St20forward_iterator_tag.constprop.0, address: 597456
	->Name: _ZNSt7__cxx1112basic_stringIcSt11char_traitsIcESaIcEE12_M_constructIPKcEEvT_S8_St20forward_iterator_tag.constprop.0, address: 531920, vaddr: 65536
Name: _ZNSt6vectorIiSaIiEEaSERKS1_.isra.0, address: 962912
	->Name: _ZNSt6vectorIiSaIiEEaSERKS1_.isra.0, address: 897376, vaddr: 65536
Name: _ZSt16__introsort_loopIP16llama_token_datalN9__gnu_cxx5__ops15_Iter_comp_iterIZ18llama_sample_top_kEUlRKS0_S6_E_EEEvT_S9_T0_T1_, address: 597664
	->Name: _ZSt16__introsort_loopIP16llama_token_datalN9__gnu_cxx5__ops15_Iter_comp_iterIZ18llama_sample_top_kEUlRKS0_S6_E_EEEvT_S9_T0_T1_, address: 532128, vaddr: 65536
Name: _ZStlsImLm32ELm624ELm397ELm31ELm2567483615ELm11ELm4294967295ELm7ELm2636928640ELm15ELm4022730752ELm18ELm1812433253EcSt11char_traitsIcEERSt13basic_ostreamIT13_T14_ES6_RKSt23mersenne_twister_engineIT_XT0_EXT1_EXT2_EXT3_EXT4_EXT5_EXT6_EXT7_EXT8_EXT9_EXT10_EXT11_EXT12_EE.isra.0, address: 598240
	->Name: _ZStlsImLm32ELm624ELm397ELm31ELm2567483615ELm11ELm4294967295ELm7ELm2636928640ELm15ELm4022730752ELm18ELm1812433253EcSt11char_traitsIcEERSt13basic_ostreamIT13_T14_ES6_RKSt23mersenne_twister_engineIT_XT0_EXT1_EXT2_EXT3_EXT4_EXT5_EXT6_EXT7_EXT8_EXT9_EXT10_EXT11_EXT12_EE.isra.0, address: 532704, vaddr: 65536
Name: _ZL22tokenizer_st_partitionRK11llama_vocabRSt12forward_listI23fragment_buffer_variantSaIS3_EE, address: 598896
	->Name: _ZL22tokenizer_st_partitionRK11llama_vocabRSt12forward_listI23fragment_buffer_variantSaIS3_EE, address: 533360, vaddr: 65536
Name: _ZL22tokenizer_st_partitionRK11llama_vocabRSt12forward_listI23fragment_buffer_variantSaIS3_EE.cold, address: 76726
	->Name: _ZL22tokenizer_st_partitionRK11llama_vocabRSt12forward_listI23fragment_buffer_variantSaIS3_EE.cold, address: 11190, vaddr: 65536
Name: _ZNSt8_Rb_treeI8llm_archSt4pairIKS0_PKcESt10_Select1stIS5_ESt4lessIS0_ESaIS5_EE8_M_eraseEPSt13_Rb_tree_nodeIS5_E.isra.0, address: 600160
	->Name: _ZNSt8_Rb_treeI8llm_archSt4pairIKS0_PKcESt10_Select1stIS5_ESt4lessIS0_ESaIS5_EE8_M_eraseEPSt13_Rb_tree_nodeIS5_E.isra.0, address: 534624, vaddr: 65536
Name: _ZNSt8_Rb_treeI23llama_rope_scaling_typeSt4pairIKS0_PKcESt10_Select1stIS5_ESt4lessIS0_ESaIS5_EE8_M_eraseEPSt13_Rb_tree_nodeIS5_E.isra.0, address: 600592
	->Name: _ZNSt8_Rb_treeI23llama_rope_scaling_typeSt4pairIKS0_PKcESt10_Select1stIS5_ESt4lessIS0_ESaIS5_EE8_M_eraseEPSt13_Rb_tree_nodeIS5_E.isra.0, address: 535056, vaddr: 65536
Name: _ZNSt8_Rb_treeI6llm_kvSt4pairIKS0_PKcESt10_Select1stIS5_ESt4lessIS0_ESaIS5_EE8_M_eraseEPSt13_Rb_tree_nodeIS5_E.isra.0, address: 601024
	->Name: _ZNSt8_Rb_treeI6llm_kvSt4pairIKS0_PKcESt10_Select1stIS5_ESt4lessIS0_ESaIS5_EE8_M_eraseEPSt13_Rb_tree_nodeIS5_E.isra.0, address: 535488, vaddr: 65536
Name: _ZNSt8_Rb_treeI9ggml_typeSt4pairIKS0_jESt10_Select1stIS3_ESt4lessIS0_ESaIS3_EE8_M_eraseEPSt13_Rb_tree_nodeIS3_E.isra.0, address: 965568
	->Name: _ZNSt8_Rb_treeI9ggml_typeSt4pairIKS0_jESt10_Select1stIS3_ESt4lessIS0_ESaIS3_EE8_M_eraseEPSt13_Rb_tree_nodeIS3_E.isra.0, address: 900032, vaddr: 65536
Name: _ZSt13__adjust_heapIN9__gnu_cxx17__normal_iteratorIP10llama_beamSt6vectorIS2_SaIS2_EEEElS2_NS0_5__ops15_Iter_comp_iterIZN22llama_beam_search_data36fill_next_beams_by_top_probabilitiesERS2_EUlRKS2_SD_E_EEEvT_T0_SH_T1_T2_.isra.0, address: 601456
	->Name: _ZSt13__adjust_heapIN9__gnu_cxx17__normal_iteratorIP10llama_beamSt6vectorIS2_SaIS2_EEEElS2_NS0_5__ops15_Iter_comp_iterIZN22llama_beam_search_data36fill_next_beams_by_top_probabilitiesERS2_EUlRKS2_SD_E_EEEvT_T0_SH_T1_T2_.isra.0, address: 535920, vaddr: 65536
Name: _ZNSt8_Rb_treeINSt7__cxx1112basic_stringIcSt11char_traitsIcESaIcEEESt4pairIKS5_S6_IiiEESt10_Select1stIS9_ESt4lessIS5_ESaIS9_EE8_M_eraseEPSt13_Rb_tree_nodeIS9_E.isra.0, address: 602176
	->Name: _ZNSt8_Rb_treeINSt7__cxx1112basic_stringIcSt11char_traitsIcESaIcEEESt4pairIKS5_S6_IiiEESt10_Select1stIS9_ESt4lessIS5_ESaIS9_EE8_M_eraseEPSt13_Rb_tree_nodeIS9_E.isra.0, address: 536640, vaddr: 65536
Name: _ZNSt8_Rb_treeISt4pairINSt7__cxx1112basic_stringIcSt11char_traitsIcESaIcEEES6_ES0_IKS7_iESt10_Select1stIS9_ESt4lessIS7_ESaIS9_EE8_M_eraseEPSt13_Rb_tree_nodeIS9_E.isra.0, address: 967088
	->Name: _ZNSt8_Rb_treeISt4pairINSt7__cxx1112basic_stringIcSt11char_traitsIcESaIcEEES6_ES0_IKS7_iESt10_Select1stIS9_ESt4lessIS7_ESaIS9_EE8_M_eraseEPSt13_Rb_tree_nodeIS9_E.isra.0, address: 901552, vaddr: 65536
Name: _ZNSt8_Rb_treeINSt7__cxx1112basic_stringIcSt11char_traitsIcESaIcEEESt4pairIKS5_ZL35llama_apply_lora_from_file_internalRK11llama_modelPKcfSC_iE11tensor_metaESt10_Select1stISE_ESt4lessIS5_ESaISE_EE8_M_eraseEPSt13_Rb_tree_nodeISE_E.isra.0, address: 602960
	->Name: _ZNSt8_Rb_treeINSt7__cxx1112basic_stringIcSt11char_traitsIcESaIcEEESt4pairIKS5_ZL35llama_apply_lora_from_file_internalRK11llama_modelPKcfSC_iE11tensor_metaESt10_Select1stISE_ESt4lessIS5_ESaISE_EE8_M_eraseEPSt13_Rb_tree_nodeISE_E.isra.0, address: 537424, vaddr: 65536
Name: _ZNSt8_Rb_treeIP24ggml_backend_buffer_typeSt4pairIKS1_iESt10_Select1stIS4_ESt4lessIS1_ESaIS4_EE8_M_eraseEPSt13_Rb_tree_nodeIS4_E.isra.0, address: 603904
	->Name: _ZNSt8_Rb_treeIP24ggml_backend_buffer_typeSt4pairIKS1_iESt10_Select1stIS4_ESt4lessIS1_ESaIS4_EE8_M_eraseEPSt13_Rb_tree_nodeIS4_E.isra.0, address: 538368, vaddr: 65536
Name: _ZNSt8_Rb_treeIP24ggml_backend_buffer_typeSt4pairIKS1_P12ggml_contextESt10_Select1stIS6_ESt4lessIS1_ESaIS6_EE8_M_eraseEPSt13_Rb_tree_nodeIS6_E.isra.0, address: 604336
	->Name: _ZNSt8_Rb_treeIP24ggml_backend_buffer_typeSt4pairIKS1_P12ggml_contextESt10_Select1stIS6_ESt4lessIS1_ESaIS6_EE8_M_eraseEPSt13_Rb_tree_nodeIS6_E.isra.0, address: 538800, vaddr: 65536
Name: _ZNSt8_Rb_treeIiSt4pairIKiSt6vectorIfSaIfEEESt10_Select1stIS5_ESt4lessIiESaIS5_EE8_M_eraseEPSt13_Rb_tree_nodeIS5_E.isra.0, address: 604768
	->Name: _ZNSt8_Rb_treeIiSt4pairIKiSt6vectorIfSaIfEEESt10_Select1stIS5_ESt4lessIiESaIS5_EE8_M_eraseEPSt13_Rb_tree_nodeIS5_E.isra.0, address: 539232, vaddr: 65536
Name: _ZNSt8_Rb_treeINSt7__cxx1112basic_stringIcSt11char_traitsIcESaIcEEES5_St9_IdentityIS5_ESt4lessIS5_ESaIS5_EE8_M_eraseEPSt13_Rb_tree_nodeIS5_E.isra.0, address: 968032
	->Name: _ZNSt8_Rb_treeINSt7__cxx1112basic_stringIcSt11char_traitsIcESaIcEEES5_St9_IdentityIS5_ESt4lessIS5_ESaIS5_EE8_M_eraseEPSt13_Rb_tree_nodeIS5_E.isra.0, address: 902496, vaddr: 65536
Name: _ZNSt8_Rb_treeINSt7__cxx1112basic_stringIcSt11char_traitsIcESaIcEEESt4pairIKS5_ZL35llama_apply_lora_from_file_internalRK11llama_modelPKcfSC_iE11tensor_metaESt10_Select1stISE_ESt4lessIS5_ESaISE_EE4findERS7_, address: 605488
	->Name: _ZNSt8_Rb_treeINSt7__cxx1112basic_stringIcSt11char_traitsIcESaIcEEESt4pairIKS5_ZL35llama_apply_lora_from_file_internalRK11llama_modelPKcfSC_iE11tensor_metaESt10_Select1stISE_ESt4lessIS5_ESaISE_EE4findERS7_, address: 539952, vaddr: 65536
Name: _ZNSt8_Rb_treeIiiSt9_IdentityIiESt4lessIiESaIiEE8_M_eraseEPSt13_Rb_tree_nodeIiE.isra.0, address: 605744
	->Name: _ZNSt8_Rb_treeIiiSt9_IdentityIiESt4lessIiESaIiEE8_M_eraseEPSt13_Rb_tree_nodeIiE.isra.0, address: 540208, vaddr: 65536
Name: _ZNSt8_Rb_treeIiiSt9_IdentityIiESt4lessIiESaIiEE7_M_copyILb0ENS5_20_Reuse_or_alloc_nodeEEEPSt13_Rb_tree_nodeIiESA_PSt18_Rb_tree_node_baseRT0_.isra.0, address: 606176
	->Name: _ZNSt8_Rb_treeIiiSt9_IdentityIiESt4lessIiESaIiEE7_M_copyILb0ENS5_20_Reuse_or_alloc_nodeEEEPSt13_Rb_tree_nodeIiESA_PSt18_Rb_tree_node_baseRT0_.isra.0, address: 540640, vaddr: 65536
Name: _ZNSt8_Rb_treeIiiSt9_IdentityIiESt4lessIiESaIiEE7_M_copyILb0ENS5_20_Reuse_or_alloc_nodeEEEPSt13_Rb_tree_nodeIiESA_PSt18_Rb_tree_node_baseRT0_.isra.0.cold, address: 76864
	->Name: _ZNSt8_Rb_treeIiiSt9_IdentityIiESt4lessIiESaIiEE7_M_copyILb0ENS5_20_Reuse_or_alloc_nodeEEEPSt13_Rb_tree_nodeIiESA_PSt18_Rb_tree_node_baseRT0_.isra.0.cold, address: 11328, vaddr: 65536
Name: _ZNSt8_Rb_treeIiiSt9_IdentityIiESt4lessIiESaIiEE5eraseERKi.isra.0, address: 606752
	->Name: _ZNSt8_Rb_treeIiiSt9_IdentityIiESt4lessIiESaIiEE5eraseERKi.isra.0, address: 541216, vaddr: 65536
Name: _ZL21llama_kv_cache_seq_rmR14llama_kv_cacheiii, address: 607104
	->Name: _ZL21llama_kv_cache_seq_rmR14llama_kv_cacheiii, address: 541568, vaddr: 65536
Name: _ZSt11__push_heapIN9__gnu_cxx17__normal_iteratorIP14llm_bigram_bpeSt6vectorIS2_SaIS2_EEEElS2_NS0_5__ops14_Iter_comp_valINS2_10comparatorEEEEvT_T0_SD_T1_RT2_.isra.0, address: 607712
	->Name: _ZSt11__push_heapIN9__gnu_cxx17__normal_iteratorIP14llm_bigram_bpeSt6vectorIS2_SaIS2_EEEElS2_NS0_5__ops14_Iter_comp_valINS2_10comparatorEEEEvT_T0_SD_T1_RT2_.isra.0, address: 542176, vaddr: 65536
Name: _ZNSt8_Rb_treeI9ggml_typeSt4pairIKS0_jESt10_Select1stIS3_ESt4lessIS0_ESaIS3_EE22_M_emplace_hint_uniqueIJRKSt21piecewise_construct_tSt5tupleIJRS2_EESE_IJEEEEESt17_Rb_tree_iteratorIS3_ESt23_Rb_tree_const_iteratorIS3_EDpOT_.isra.0, address: 968816
	->Name: _ZNSt8_Rb_treeI9ggml_typeSt4pairIKS0_jESt10_Select1stIS3_ESt4lessIS0_ESaIS3_EE22_M_emplace_hint_uniqueIJRKSt21piecewise_construct_tSt5tupleIJRS2_EESE_IJEEEEESt17_Rb_tree_iteratorIS3_ESt23_Rb_tree_const_iteratorIS3_EDpOT_.isra.0, address: 903280, vaddr: 65536
Name: _ZNSt8_Rb_treeIP24ggml_backend_buffer_typeSt4pairIKS1_P12ggml_contextESt10_Select1stIS6_ESt4lessIS1_ESaIS6_EE22_M_emplace_hint_uniqueIJRKSt21piecewise_construct_tSt5tupleIJRS3_EESH_IJEEEEESt17_Rb_tree_iteratorIS6_ESt23_Rb_tree_const_iteratorIS6_EDpOT_.isra.0, address: 608496
	->Name: _ZNSt8_Rb_treeIP24ggml_backend_buffer_typeSt4pairIKS1_P12ggml_contextESt10_Select1stIS6_ESt4lessIS1_ESaIS6_EE22_M_emplace_hint_uniqueIJRKSt21piecewise_construct_tSt5tupleIJRS3_EESH_IJEEEEESt17_Rb_tree_iteratorIS6_ESt23_Rb_tree_const_iteratorIS6_EDpOT_.isra.0, address: 542960, vaddr: 65536
Name: _ZNSt8_Rb_treeIiSt4pairIKiSt6vectorIfSaIfEEESt10_Select1stIS5_ESt4lessIiESaIS5_EE22_M_emplace_hint_uniqueIJRKSt21piecewise_construct_tSt5tupleIJRS1_EESG_IJEEEEESt17_Rb_tree_iteratorIS5_ESt23_Rb_tree_const_iteratorIS5_EDpOT_.isra.0, address: 609216
	->Name: _ZNSt8_Rb_treeIiSt4pairIKiSt6vectorIfSaIfEEESt10_Select1stIS5_ESt4lessIiESaIS5_EE22_M_emplace_hint_uniqueIJRKSt21piecewise_construct_tSt5tupleIJRS1_EESG_IJEEEEESt17_Rb_tree_iteratorIS5_ESt23_Rb_tree_const_iteratorIS5_EDpOT_.isra.0, address: 543680, vaddr: 65536
Name: _ZNSt7__cxx1112basic_stringIcSt11char_traitsIcESaIcEEC2EPKcRKS3_.constprop.0, address: 609936
	->Name: _ZNSt7__cxx1112basic_stringIcSt11char_traitsIcESaIcEEC2EPKcRKS3_.constprop.0, address: 544400, vaddr: 65536
Name: _ZL25llama_format_tensor_shapeRKSt6vectorIlSaIlEE, address: 76908
	->Name: _ZL25llama_format_tensor_shapeRKSt6vectorIlSaIlEE, address: 11372, vaddr: 65536
Name: _ZL25llama_format_tensor_shapePK11ggml_tensor, address: 610160
	->Name: _ZL25llama_format_tensor_shapePK11ggml_tensor, address: 544624, vaddr: 65536
Name: _ZL4trimRKNSt7__cxx1112basic_stringIcSt11char_traitsIcESaIcEEE, address: 610496
	->Name: _ZL4trimRKNSt7__cxx1112basic_stringIcSt11char_traitsIcESaIcEEE, address: 544960, vaddr: 65536
Name: _ZL11replace_allRNSt7__cxx1112basic_stringIcSt11char_traitsIcESaIcEEERKS4_S7_, address: 610928
	->Name: _ZL11replace_allRNSt7__cxx1112basic_stringIcSt11char_traitsIcESaIcEEERKS4_S7_, address: 545392, vaddr: 65536
Name: _ZL11replace_allRNSt7__cxx1112basic_stringIcSt11char_traitsIcESaIcEEERKS4_S7_.cold, address: 77152
	->Name: _ZL11replace_allRNSt7__cxx1112basic_stringIcSt11char_traitsIcESaIcEEERKS4_S7_.cold, address: 11616, vaddr: 65536
Name: _ZNSt8_Rb_treeI10llm_tensorSt4pairIKS0_NSt7__cxx1112basic_stringIcSt11char_traitsIcESaIcEEEESt10_Select1stIS9_ESt4lessIS0_ESaIS9_EE8_M_eraseEPSt13_Rb_tree_nodeIS9_E.isra.0, address: 612128
	->Name: _ZNSt8_Rb_treeI10llm_tensorSt4pairIKS0_NSt7__cxx1112basic_stringIcSt11char_traitsIcESaIcEEEESt10_Select1stIS9_ESt4lessIS0_ESaIS9_EE8_M_eraseEPSt13_Rb_tree_nodeIS9_E.isra.0, address: 546592, vaddr: 65536
Name: _ZNSt8_Rb_treeI10llm_tensorSt4pairIKS0_NSt7__cxx1112basic_stringIcSt11char_traitsIcESaIcEEEESt10_Select1stIS9_ESt4lessIS0_ESaIS9_EE7_M_copyILb0ENSF_11_Alloc_nodeEEEPSt13_Rb_tree_nodeIS9_ESK_PSt18_Rb_tree_node_baseRT0_.isra.0, address: 612912
	->Name: _ZNSt8_Rb_treeI10llm_tensorSt4pairIKS0_NSt7__cxx1112basic_stringIcSt11char_traitsIcESaIcEEEESt10_Select1stIS9_ESt4lessIS0_ESaIS9_EE7_M_copyILb0ENSF_11_Alloc_nodeEEEPSt13_Rb_tree_nodeIS9_ESK_PSt18_Rb_tree_node_baseRT0_.isra.0, address: 547376, vaddr: 65536
Name: _ZNSt8_Rb_treeI10llm_tensorSt4pairIKS0_NSt7__cxx1112basic_stringIcSt11char_traitsIcESaIcEEEESt10_Select1stIS9_ESt4lessIS0_ESaIS9_EE7_M_copyILb0ENSF_11_Alloc_nodeEEEPSt13_Rb_tree_nodeIS9_ESK_PSt18_Rb_tree_node_baseRT0_.isra.0.cold, address: 77242
	->Name: _ZNSt8_Rb_treeI10llm_tensorSt4pairIKS0_NSt7__cxx1112basic_stringIcSt11char_traitsIcESaIcEEEESt10_Select1stIS9_ESt4lessIS0_ESaIS9_EE7_M_copyILb0ENSF_11_Alloc_nodeEEEPSt13_Rb_tree_nodeIS9_ESK_PSt18_Rb_tree_node_baseRT0_.isra.0.cold, address: 11706, vaddr: 65536
Name: _ZNSt3mapI10llm_tensorNSt7__cxx1112basic_stringIcSt11char_traitsIcESaIcEEESt4lessIS0_ESaISt4pairIKS0_S6_EEEC2ESt16initializer_listISB_ERKS8_RKSC_.constprop.0, address: 170144
	->Name: _ZNSt3mapI10llm_tensorNSt7__cxx1112basic_stringIcSt11char_traitsIcESaIcEEESt4lessIS0_ESaISt4pairIKS0_S6_EEEC2ESt16initializer_listISB_ERKS8_RKSC_.constprop.0, address: 104608, vaddr: 65536
Name: _ZNSt3mapI10llm_tensorNSt7__cxx1112basic_stringIcSt11char_traitsIcESaIcEEESt4lessIS0_ESaISt4pairIKS0_S6_EEEC2ESt16initializer_listISB_ERKS8_RKSC_.constprop.0.cold, address: 77366
	->Name: _ZNSt3mapI10llm_tensorNSt7__cxx1112basic_stringIcSt11char_traitsIcESaIcEEESt4lessIS0_ESaISt4pairIKS0_S6_EEEC2ESt16initializer_listISB_ERKS8_RKSC_.constprop.0.cold, address: 11830, vaddr: 65536
Name: _ZNSt8_Rb_treeI8llm_archSt4pairIKS0_St3mapI10llm_tensorNSt7__cxx1112basic_stringIcSt11char_traitsIcESaIcEEESt4lessIS4_ESaIS1_IKS4_SA_EEEESt10_Select1stISH_ESB_IS0_ESaISH_EE8_M_eraseEPSt13_Rb_tree_nodeISH_E.isra.0, address: 613552
	->Name: _ZNSt8_Rb_treeI8llm_archSt4pairIKS0_St3mapI10llm_tensorNSt7__cxx1112basic_stringIcSt11char_traitsIcESaIcEEESt4lessIS4_ESaIS1_IKS4_SA_EEEESt10_Select1stISH_ESB_IS0_ESaISH_EE8_M_eraseEPSt13_Rb_tree_nodeISH_E.isra.0, address: 548016, vaddr: 65536
Name: _ZL6formatPKcz, address: 614624
	->Name: _ZL6formatPKcz, address: 549088, vaddr: 65536
Name: _ZL6formatPKcz.cold, address: 77419
	->Name: _ZL6formatPKcz.cold, address: 11883, vaddr: 65536
Name: _ZZL21llama_tensor_get_typeR23quantize_state_internal9ggml_typePK11ggml_tensor11llama_ftypeENKUliiPKcE0_clEiiS7_.isra.0, address: 615360
	->Name: _ZZL21llama_tensor_get_typeR23quantize_state_internal9ggml_typePK11ggml_tensor11llama_ftypeENKUliiPKcE0_clEiiS7_.isra.0, address: 549824, vaddr: 65536
Name: _ZZL21llama_tensor_get_typeR23quantize_state_internal9ggml_typePK11ggml_tensor11llama_ftypeENKUliiPKcE0_clEiiS7_.isra.0.cold, address: 77444
	->Name: _ZZL21llama_tensor_get_typeR23quantize_state_internal9ggml_typePK11ggml_tensor11llama_ftypeENKUliiPKcE0_clEiiS7_.isra.0.cold, address: 11908, vaddr: 65536
Name: _ZN18llama_model_loader21create_tensor_as_viewEP12ggml_contextP11ggml_tensorRKNSt7__cxx1112basic_stringIcSt11char_traitsIcESaIcEEERKSt6vectorIlSaIlEEmb.isra.0, address: 615520
	->Name: _ZN18llama_model_loader21create_tensor_as_viewEP12ggml_contextP11ggml_tensorRKNSt7__cxx1112basic_stringIcSt11char_traitsIcESaIcEEERKSt6vectorIlSaIlEEmb.isra.0, address: 549984, vaddr: 65536
Name: _ZN18llama_model_loader21create_tensor_as_viewEP12ggml_contextP11ggml_tensorRKNSt7__cxx1112basic_stringIcSt11char_traitsIcESaIcEEERKSt6vectorIlSaIlEEmb.isra.0.cold, address: 77760
	->Name: _ZN18llama_model_loader21create_tensor_as_viewEP12ggml_contextP11ggml_tensorRKNSt7__cxx1112basic_stringIcSt11char_traitsIcESaIcEEERKSt6vectorIlSaIlEEmb.isra.0.cold, address: 12224, vaddr: 65536
Name: _ZN18llama_model_loader13create_tensorEP12ggml_contextRKNSt7__cxx1112basic_stringIcSt11char_traitsIcESaIcEEERKSt6vectorIlSaIlEEb.constprop.0, address: 616128
	->Name: _ZN18llama_model_loader13create_tensorEP12ggml_contextRKNSt7__cxx1112basic_stringIcSt11char_traitsIcESaIcEEERKSt6vectorIlSaIlEEb.constprop.0, address: 550592, vaddr: 65536
Name: _ZN18llama_model_loader13create_tensorEP12ggml_contextRKNSt7__cxx1112basic_stringIcSt11char_traitsIcESaIcEEERKSt6vectorIlSaIlEEb.constprop.0.cold, address: 78434
	->Name: _ZN18llama_model_loader13create_tensorEP12ggml_contextRKNSt7__cxx1112basic_stringIcSt11char_traitsIcESaIcEEERKSt6vectorIlSaIlEEb.constprop.0.cold, address: 12898, vaddr: 65536
Name: _ZL22llama_model_ftype_name11llama_ftype, address: 616576
	->Name: _ZL22llama_model_ftype_name11llama_ftype, address: 551040, vaddr: 65536
Name: _ZL22llama_model_ftype_name11llama_ftype.cold, address: 78847
	->Name: _ZL22llama_model_ftype_name11llama_ftype.cold, address: 13311, vaddr: 65536
Name: _ZL21llama_tensor_get_typeR23quantize_state_internal9ggml_typePK11ggml_tensor11llama_ftype, address: 618384
	->Name: _ZL21llama_tensor_get_typeR23quantize_state_internal9ggml_typePK11ggml_tensor11llama_ftype, address: 552848, vaddr: 65536
Name: _ZL21llama_tensor_get_typeR23quantize_state_internal9ggml_typePK11ggml_tensor11llama_ftype.cold, address: 78883
	->Name: _ZL21llama_tensor_get_typeR23quantize_state_internal9ggml_typePK11ggml_tensor11llama_ftype.cold, address: 13347, vaddr: 65536
Name: _ZL17llama_build_graphR13llama_contextRK11llama_batchb, address: 625184
	->Name: _ZL17llama_build_graphR13llama_contextRK11llama_batchb, address: 559648, vaddr: 65536
Name: _ZL17llama_build_graphR13llama_contextRK11llama_batchb.cold, address: 79179
	->Name: _ZL17llama_build_graphR13llama_contextRK11llama_batchb.cold, address: 13643, vaddr: 65536
Name: llama_grammar_copy.cold, address: 79222
	->Name: llama_grammar_copy.cold, address: 13686, vaddr: 65536
Name: llama_sample_tail_free.cold, address: 79378
	->Name: llama_sample_tail_free.cold, address: 13842, vaddr: 65536
Name: llama_get_logits_ith.cold, address: 79433
	->Name: llama_get_logits_ith.cold, address: 13897, vaddr: 65536
Name: llama_get_embeddings_ith.cold, address: 80142
	->Name: llama_get_embeddings_ith.cold, address: 14606, vaddr: 65536
Name: llama_kv_cache_update.cold, address: 80851
	->Name: llama_kv_cache_update.cold, address: 15315, vaddr: 65536
Name: llama_token_to_piece.cold, address: 80988
	->Name: llama_token_to_piece.cold, address: 15452, vaddr: 65536
Name: llama_split_prefix.cold, address: 81138
	->Name: llama_split_prefix.cold, address: 15602, vaddr: 65536
Name: llama_print_system_info.cold, address: 81169
	->Name: llama_print_system_info.cold, address: 15633, vaddr: 65536
Name: _ZL16gguf_data_to_str9gguf_typePKvi, address: 669856
	->Name: _ZL16gguf_data_to_str9gguf_typePKvi, address: 604320, vaddr: 65536
Name: _ZL13llm_load_archR18llama_model_loaderR11llama_model, address: 673424
	->Name: _ZL13llm_load_archR18llama_model_loaderR11llama_model, address: 607888, vaddr: 65536
Name: _ZL13llm_load_archR18llama_model_loaderR11llama_model.cold, address: 82082
	->Name: _ZL13llm_load_archR18llama_model_loaderR11llama_model.cold, address: 16546, vaddr: 65536
Name: _ZL14gguf_kv_to_strPK12gguf_contexti, address: 673520
	->Name: _ZL14gguf_kv_to_strPK12gguf_contexti, address: 607984, vaddr: 65536
Name: _ZL14gguf_kv_to_strPK12gguf_contexti.cold, address: 82643
	->Name: _ZL14gguf_kv_to_strPK12gguf_contexti.cold, address: 17107, vaddr: 65536
Name: llama_chat_apply_template.cold, address: 83055
	->Name: llama_chat_apply_template.cold, address: 17519, vaddr: 65536
Name: _ZNSt6thread11_State_implINS_8_InvokerISt5tupleIJZL30llama_tensor_quantize_internal9ggml_typePKfPvlllS5_RSt6vectorIS_SaIS_EEiEUlvE_EEEEE6_M_runEv, address: 686016
	->Name: _ZNSt6thread11_State_implINS_8_InvokerISt5tupleIJZL30llama_tensor_quantize_internal9ggml_typePKfPvlllS5_RSt6vectorIS_SaIS_EEiEUlvE_EEEEE6_M_runEv, address: 620480, vaddr: 65536
Name: _Z41__static_initialization_and_destruction_0ii.constprop.0, address: 170736
	->Name: _Z41__static_initialization_and_destruction_0ii.constprop.0, address: 105200, vaddr: 65536
Name: _Z41__static_initialization_and_destruction_0ii.constprop.0.cold, address: 84363
	->Name: _Z41__static_initialization_and_destruction_0ii.constprop.0.cold, address: 18827, vaddr: 65536
Name: _ZL20llama_token_to_piecePK13llama_contextib.constprop.0, address: 686304
	->Name: _ZL20llama_token_to_piecePK13llama_contextib.constprop.0, address: 620768, vaddr: 65536
Name: _ZL20llama_token_to_piecePK13llama_contextib.constprop.0.cold, address: 86128
	->Name: _ZL20llama_token_to_piecePK13llama_contextib.constprop.0.cold, address: 20592, vaddr: 65536
Name: _ZL24llama_kv_cache_find_slotR14llama_kv_cacheRK11llama_batch, address: 688128
	->Name: _ZL24llama_kv_cache_find_slotR14llama_kv_cacheRK11llama_batch, address: 622592, vaddr: 65536
Name: llama_state_seq_load_file.cold, address: 86164
	->Name: llama_state_seq_load_file.cold, address: 20628, vaddr: 65536
Name: _ZL20llama_output_reserveR13llama_contextm, address: 692736
	->Name: _ZL20llama_output_reserveR13llama_contextm, address: 627200, vaddr: 65536
Name: llama_state_set_data.cold, address: 87520
	->Name: llama_state_set_data.cold, address: 21984, vaddr: 65536
Name: llama_state_load_file.cold, address: 87755
	->Name: llama_state_load_file.cold, address: 22219, vaddr: 65536
Name: llama_decode.cold, address: 89347
	->Name: llama_decode.cold, address: 23811, vaddr: 65536
Name: _ZL19llama_byte_to_tokenRK11llama_vocabh, address: 709184
	->Name: _ZL19llama_byte_to_tokenRK11llama_vocabh, address: 643648, vaddr: 65536
Name: _ZL19llama_byte_to_tokenRK11llama_vocabh.cold, address: 89476
	->Name: _ZL19llama_byte_to_tokenRK11llama_vocabh.cold, address: 23940, vaddr: 65536
Name: llama_sample_top_k.cold, address: 89520
	->Name: llama_sample_top_k.cold, address: 23984, vaddr: 65536
Name: llama_sample_min_p.cold, address: 89598
	->Name: llama_sample_min_p.cold, address: 24062, vaddr: 65536
Name: llama_sample_typical.cold, address: 89629
	->Name: llama_sample_typical.cold, address: 24093, vaddr: 65536
Name: _ZL32llama_tensor_dequantize_internalP11ggml_tensorRSt6vectorI7no_initIfESaIS3_EERS1_ISt6threadSaIS7_EEmi, address: 714224
	->Name: _ZL32llama_tensor_dequantize_internalP11ggml_tensorRSt6vectorI7no_initIfESaIS3_EERS1_ISt6threadSaIS7_EEmi, address: 648688, vaddr: 65536
Name: _ZL32llama_tensor_dequantize_internalP11ggml_tensorRSt6vectorI7no_initIfESaIS3_EERS1_ISt6threadSaIS7_EEmi.cold, address: 89686
	->Name: _ZL32llama_tensor_dequantize_internalP11ggml_tensorRSt6vectorI7no_initIfESaIS3_EERS1_ISt6threadSaIS7_EEmi.cold, address: 24150, vaddr: 65536
Name: _ZZL29llama_model_quantize_internalRKNSt7__cxx1112basic_stringIcSt11char_traitsIcESaIcEEES6_PK27llama_model_quantize_paramsENKUliE0_clEi, address: 716080
	->Name: _ZZL29llama_model_quantize_internalRKNSt7__cxx1112basic_stringIcSt11char_traitsIcESaIcEEES6_PK27llama_model_quantize_paramsENKUliE0_clEi, address: 650544, vaddr: 65536
Name: _ZZL29llama_model_quantize_internalRKNSt7__cxx1112basic_stringIcSt11char_traitsIcESaIcEEES6_PK27llama_model_quantize_paramsENKUliE0_clEi.cold, address: 90092
	->Name: _ZZL29llama_model_quantize_internalRKNSt7__cxx1112basic_stringIcSt11char_traitsIcESaIcEEES6_PK27llama_model_quantize_paramsENKUliE0_clEi.cold, address: 24556, vaddr: 65536
Name: llama_state_seq_save_file.cold, address: 90216
	->Name: llama_state_seq_save_file.cold, address: 24680, vaddr: 65536
Name: llama_state_seq_get_data.cold, address: 93158
	->Name: llama_state_seq_get_data.cold, address: 27622, vaddr: 65536
Name: _ZL29llama_state_get_data_internalP13llama_contextP18llama_data_context.constprop.1, address: 724000
	->Name: _ZL29llama_state_get_data_internalP13llama_contextP18llama_data_context.constprop.1, address: 658464, vaddr: 65536
Name: _ZL29llama_state_get_data_internalP13llama_contextP18llama_data_context.constprop.1.cold, address: 93215
	->Name: _ZL29llama_state_get_data_internalP13llama_contextP18llama_data_context.constprop.1.cold, address: 27679, vaddr: 65536
Name: _ZL29llama_state_get_data_internalP13llama_contextP18llama_data_context.constprop.0, address: 727216
	->Name: _ZL29llama_state_get_data_internalP13llama_contextP18llama_data_context.constprop.0, address: 661680, vaddr: 65536
Name: _ZL29llama_state_get_data_internalP13llama_contextP18llama_data_context.constprop.0.cold, address: 93427
	->Name: _ZL29llama_state_get_data_internalP13llama_contextP18llama_data_context.constprop.0.cold, address: 27891, vaddr: 65536
Name: llama_state_save_file.cold, address: 96893
	->Name: llama_state_save_file.cold, address: 31357, vaddr: 65536
Name: _ZN18llama_model_loader7get_keyItEEbRKNSt7__cxx1112basic_stringIcSt11char_traitsIcESaIcEEERT_b.isra.0, address: 1135472
	->Name: _ZN18llama_model_loader7get_keyItEEbRKNSt7__cxx1112basic_stringIcSt11char_traitsIcESaIcEEERT_b.isra.0, address: 1069936, vaddr: 65536
Name: _ZN18llama_model_loader7get_keyINSt7__cxx1112basic_stringIcSt11char_traitsIcESaIcEEEEEbRKS6_RT_b.isra.0, address: 731824
	->Name: _ZN18llama_model_loader7get_keyINSt7__cxx1112basic_stringIcSt11char_traitsIcESaIcEEEEEbRKS6_RT_b.isra.0, address: 666288, vaddr: 65536
Name: _ZN18llama_model_loader7get_keyINSt7__cxx1112basic_stringIcSt11char_traitsIcESaIcEEEEEbRKS6_RT_b.isra.0.cold, address: 97840
	->Name: _ZN18llama_model_loader7get_keyINSt7__cxx1112basic_stringIcSt11char_traitsIcESaIcEEEEEbRKS6_RT_b.isra.0.cold, address: 32304, vaddr: 65536
Name: _ZN17llm_tokenizer_wpm10preprocessERKNSt7__cxx1112basic_stringIcSt11char_traitsIcESaIcEEE.isra.0, address: 732912
	->Name: _ZN17llm_tokenizer_wpm10preprocessERKNSt7__cxx1112basic_stringIcSt11char_traitsIcESaIcEEE.isra.0, address: 667376, vaddr: 65536
Name: _ZN17llm_tokenizer_wpm10preprocessERKNSt7__cxx1112basic_stringIcSt11char_traitsIcESaIcEEE.isra.0.cold, address: 98344
	->Name: _ZN17llm_tokenizer_wpm10preprocessERKNSt7__cxx1112basic_stringIcSt11char_traitsIcESaIcEEE.isra.0.cold, address: 32808, vaddr: 65536
Name: _Z11decode_utf8RKNSt7__cxx1112basic_stringIcSt11char_traitsIcESaIcEEE18llama_partial_utf8.cold, address: 98525
	->Name: _Z11decode_utf8RKNSt7__cxx1112basic_stringIcSt11char_traitsIcESaIcEEE18llama_partial_utf8.cold, address: 32989, vaddr: 65536
Name: _ZL27llama_grammar_advance_stackRKSt6vectorIS_I21llama_grammar_elementSaIS0_EESaIS2_EERKS_IPKS0_SaIS8_EERS_ISA_SaISA_EE, address: 735664
	->Name: _ZL27llama_grammar_advance_stackRKSt6vectorIS_I21llama_grammar_elementSaIS0_EESaIS2_EERKS_IPKS0_SaIS8_EERS_ISA_SaISA_EE, address: 670128, vaddr: 65536
Name: _ZL27llama_grammar_advance_stackRKSt6vectorIS_I21llama_grammar_elementSaIS0_EESaIS2_EERKS_IPKS0_SaIS8_EERS_ISA_SaISA_EE.cold, address: 98556
	->Name: _ZL27llama_grammar_advance_stackRKSt6vectorIS_I21llama_grammar_elementSaIS0_EESaIS2_EERKS_IPKS0_SaIS8_EERS_ISA_SaISA_EE.cold, address: 33020, vaddr: 65536
Name: _Z20llama_grammar_acceptRKSt6vectorIS_I21llama_grammar_elementSaIS0_EESaIS2_EERKS_IS_IPKS0_SaIS8_EESaISA_EEjRSC_.cold, address: 98587
	->Name: _Z20llama_grammar_acceptRKSt6vectorIS_I21llama_grammar_elementSaIS0_EESaIS2_EERKS_IS_IPKS0_SaIS8_EESaISA_EEjRSC_.cold, address: 33051, vaddr: 65536
Name: llama_grammar_accept_token.cold, address: 98618
	->Name: llama_grammar_accept_token.cold, address: 33082, vaddr: 65536
Name: _ZL41llama_grammar_reject_candidates_for_stackRKSt6vectorIS_I21llama_grammar_elementSaIS0_EESaIS2_EERKS_IPKS0_SaIS8_EERKS_I23llama_grammar_candidateSaISD_EE, address: 739392
	->Name: _ZL41llama_grammar_reject_candidates_for_stackRKSt6vectorIS_I21llama_grammar_elementSaIS0_EESaIS2_EERKS_IPKS0_SaIS8_EERKS_I23llama_grammar_candidateSaISD_EE, address: 673856, vaddr: 65536
Name: _ZL31llama_grammar_reject_candidatesRKSt6vectorIS_I21llama_grammar_elementSaIS0_EESaIS2_EERKS_IS_IPKS0_SaIS8_EESaISA_EERKS_I23llama_grammar_candidateSaISF_EE, address: 741008
	->Name: _ZL31llama_grammar_reject_candidatesRKSt6vectorIS_I21llama_grammar_elementSaIS0_EESaIS2_EERKS_IS_IPKS0_SaIS8_EESaISA_EERKS_I23llama_grammar_candidateSaISF_EE, address: 675472, vaddr: 65536
Name: _ZL41llama_grammar_reject_candidates_for_stackRKSt6vectorIS_I21llama_grammar_elementSaIS0_EESaIS2_EERKS_IPKS0_SaIS8_EERKS_I23llama_grammar_candidateSaISD_EE.cold, address: 98835
	->Name: _ZL41llama_grammar_reject_candidates_for_stackRKSt6vectorIS_I21llama_grammar_elementSaIS0_EESaIS2_EERKS_IPKS0_SaIS8_EERKS_I23llama_grammar_candidateSaISD_EE.cold, address: 33299, vaddr: 65536
Name: _ZL31llama_grammar_reject_candidatesRKSt6vectorIS_I21llama_grammar_elementSaIS0_EESaIS2_EERKS_IS_IPKS0_SaIS8_EESaISA_EERKS_I23llama_grammar_candidateSaISF_EE.cold, address: 98929
	->Name: _ZL31llama_grammar_reject_candidatesRKSt6vectorIS_I21llama_grammar_elementSaIS0_EESaIS2_EERKS_IS_IPKS0_SaIS8_EESaISA_EERKS_I23llama_grammar_candidateSaISF_EE.cold, address: 33393, vaddr: 65536
Name: llama_grammar_init.cold, address: 98960
	->Name: llama_grammar_init.cold, address: 33424, vaddr: 65536
Name: llama_sample_grammar.cold, address: 99376
	->Name: llama_sample_grammar.cold, address: 33840, vaddr: 65536
Name: llama_beam_search.cold, address: 99537
	->Name: llama_beam_search.cold, address: 34001, vaddr: 65536
Name: llama_new_context_with_model.cold, address: 99603
	->Name: llama_new_context_with_model.cold, address: 34067, vaddr: 65536
Name: llama_control_vector_apply.cold, address: 99671
	->Name: llama_control_vector_apply.cold, address: 34135, vaddr: 65536
Name: _ZNSt10_HashtableIjSt4pairIKjP19ggml_backend_bufferESaIS4_ENSt8__detail10_Select1stESt8equal_toIjESt4hashIjENS6_18_Mod_range_hashingENS6_20_Default_ranged_hashENS6_20_Prime_rehash_policyENS6_17_Hashtable_traitsILb0ELb0ELb1EEEE10_M_emplaceIJRjRS3_EEES0_INS6_14_Node_iteratorIS4_Lb0ELb0EEEbESt17integral_constantIbLb1EEDpOT_.constprop.0, address: 754672
	->Name: _ZNSt10_HashtableIjSt4pairIKjP19ggml_backend_bufferESaIS4_ENSt8__detail10_Select1stESt8equal_toIjESt4hashIjENS6_18_Mod_range_hashingENS6_20_Default_ranged_hashENS6_20_Prime_rehash_policyENS6_17_Hashtable_traitsILb0ELb0ELb1EEEE10_M_emplaceIJRjRS3_EEES0_INS6_14_Node_iteratorIS4_Lb0ELb0EEEbESt17integral_constantIbLb1EEDpOT_.constprop.0, address: 689136, vaddr: 65536
Name: _ZNSt10_HashtableIjSt4pairIKjP19ggml_backend_bufferESaIS4_ENSt8__detail10_Select1stESt8equal_toIjESt4hashIjENS6_18_Mod_range_hashingENS6_20_Default_ranged_hashENS6_20_Prime_rehash_policyENS6_17_Hashtable_traitsILb0ELb0ELb1EEEE10_M_emplaceIJRjRS3_EEES0_INS6_14_Node_iteratorIS4_Lb0ELb0EEEbESt17integral_constantIbLb1EEDpOT_.constprop.0.cold, address: 99704
	->Name: _ZNSt10_HashtableIjSt4pairIKjP19ggml_backend_bufferESaIS4_ENSt8__detail10_Select1stESt8equal_toIjESt4hashIjENS6_18_Mod_range_hashingENS6_20_Default_ranged_hashENS6_20_Prime_rehash_policyENS6_17_Hashtable_traitsILb0ELb0ELb1EEEE10_M_emplaceIJRjRS3_EEES0_INS6_14_Node_iteratorIS4_Lb0ELb0EEEbESt17integral_constantIbLb1EEDpOT_.constprop.0.cold, address: 34168, vaddr: 65536
Name: _ZL16llm_load_tensorsR18llama_model_loaderR11llama_modeli16llama_split_modeiPKfbPFbfPvES6_, address: 755072
	->Name: _ZL16llm_load_tensorsR18llama_model_loaderR11llama_modeli16llama_split_modeiPKfbPFbfPvES6_, address: 689536, vaddr: 65536
Name: _ZL16llm_load_tensorsR18llama_model_loaderR11llama_modeli16llama_split_modeiPKfbPFbfPvES6_.cold, address: 99723
	->Name: _ZL16llm_load_tensorsR18llama_model_loaderR11llama_modeli16llama_split_modeiPKfbPFbfPvES6_.cold, address: 34187, vaddr: 65536
Name: _ZL23llama_tokenize_internalRK11llama_vocabNSt7__cxx1112basic_stringIcSt11char_traitsIcESaIcEEEbb, address: 892512
	->Name: _ZL23llama_tokenize_internalRK11llama_vocabNSt7__cxx1112basic_stringIcSt11char_traitsIcESaIcEEEbb, address: 826976, vaddr: 65536
Name: _ZL23llama_tokenize_internalRK11llama_vocabNSt7__cxx1112basic_stringIcSt11char_traitsIcESaIcEEEbb.cold, address: 137613
	->Name: _ZL23llama_tokenize_internalRK11llama_vocabNSt7__cxx1112basic_stringIcSt11char_traitsIcESaIcEEEbb.cold, address: 72077, vaddr: 65536
Name: _ZL14llm_load_vocabR18llama_model_loaderR11llama_model, address: 906544
	->Name: _ZL14llm_load_vocabR18llama_model_loaderR11llama_model, address: 841008, vaddr: 65536
Name: _ZL14llm_load_vocabR18llama_model_loaderR11llama_model.cold, address: 138477
	->Name: _ZL14llm_load_vocabR18llama_model_loaderR11llama_model.cold, address: 72941, vaddr: 65536
Name: llama_tokenize.cold, address: 139413
	->Name: llama_tokenize.cold, address: 73877, vaddr: 65536
Name: llama_sample_repetition_penalties.cold, address: 139444
	->Name: llama_sample_repetition_penalties.cold, address: 73908, vaddr: 65536
Name: _ZL35llama_apply_lora_from_file_internalRK11llama_modelPKcfS3_i, address: 919984
	->Name: _ZL35llama_apply_lora_from_file_internalRK11llama_modelPKcfS3_i, address: 854448, vaddr: 65536
Name: _ZL35llama_apply_lora_from_file_internalRK11llama_modelPKcfS3_i.cold, address: 139551
	->Name: _ZL35llama_apply_lora_from_file_internalRK11llama_modelPKcfS3_i.cold, address: 74015, vaddr: 65536
Name: llama_model_apply_lora_from_file.cold, address: 142321
	->Name: llama_model_apply_lora_from_file.cold, address: 76785, vaddr: 65536
Name: _ZL16llm_load_hparamsR18llama_model_loaderR11llama_model, address: 929184
	->Name: _ZL16llm_load_hparamsR18llama_model_loaderR11llama_model, address: 863648, vaddr: 65536
Name: _ZL16llm_load_hparamsR18llama_model_loaderR11llama_model.cold, address: 142418
	->Name: _ZL16llm_load_hparamsR18llama_model_loaderR11llama_model.cold, address: 76882, vaddr: 65536
Name: _ZL29llama_model_quantize_internalRKNSt7__cxx1112basic_stringIcSt11char_traitsIcESaIcEEES6_PK27llama_model_quantize_params, address: 935552
	->Name: _ZL29llama_model_quantize_internalRKNSt7__cxx1112basic_stringIcSt11char_traitsIcESaIcEEES6_PK27llama_model_quantize_params, address: 870016, vaddr: 65536
Name: _ZL29llama_model_quantize_internalRKNSt7__cxx1112basic_stringIcSt11char_traitsIcESaIcEEES6_PK27llama_model_quantize_params.cold, address: 143143
	->Name: _ZL29llama_model_quantize_internalRKNSt7__cxx1112basic_stringIcSt11char_traitsIcESaIcEEES6_PK27llama_model_quantize_params.cold, address: 77607, vaddr: 65536
Name: llama_model_quantize.cold, address: 144912
	->Name: llama_model_quantize.cold, address: 79376, vaddr: 65536
Name: llama_load_model_from_file.cold, address: 145046
	->Name: llama_load_model_from_file.cold, address: 79510, vaddr: 65536
Name: _Z27llama_sample_token_with_rngP13llama_contextP22llama_token_data_arrayRSt23mersenne_twister_engineImLm32ELm624ELm397ELm31ELm2567483615ELm11ELm4294967295ELm7ELm2636928640ELm15ELm4022730752ELm18ELm1812433253EE.cold, address: 146128
	->Name: _Z27llama_sample_token_with_rngP13llama_contextP22llama_token_data_arrayRSt23mersenne_twister_engineImLm32ELm624ELm397ELm31ELm2567483615ELm11ELm4294967295ELm7ELm2636928640ELm15ELm4022730752ELm18ELm1812433253EE.cold, address: 80592, vaddr: 65536
Name: _GLOBAL__sub_I_llama.cpp, address: 191168
	->Name: _GLOBAL__sub_I_llama.cpp, address: 125632, vaddr: 65536
Name: _ZNK8nlohmann16json_abi_v3_11_310basic_jsonINS0_11ordered_mapESt6vectorNSt7__cxx1112basic_stringIcSt11char_traitsIcESaIcEEEblmdSaNS0_14adl_serializerES3_IhSaIhEEvE16assert_invariantEb.part.0, address: 1187632
	->Name: _ZNK8nlohmann16json_abi_v3_11_310basic_jsonINS0_11ordered_mapESt6vectorNSt7__cxx1112basic_stringIcSt11char_traitsIcESaIcEEEblmdSaNS0_14adl_serializerES3_IhSaIhEEvE16assert_invariantEb.part.0, address: 1122096, vaddr: 65536
Name: _ZN8nlohmann16json_abi_v3_11_36detail28json_sax_dom_callback_parserINS0_10basic_jsonINS0_11ordered_mapESt6vectorNSt7__cxx1112basic_stringIcSt11char_traitsIcESaIcEEEblmdSaNS0_14adl_serializerES5_IhSaIhEEvEEE11parse_errorINS1_11parse_errorEEEbmRKSB_RKT_.part.0, address: 146228
	->Name: _ZN8nlohmann16json_abi_v3_11_36detail28json_sax_dom_callback_parserINS0_10basic_jsonINS0_11ordered_mapESt6vectorNSt7__cxx1112basic_stringIcSt11char_traitsIcESaIcEEEblmdSaNS0_14adl_serializerES5_IhSaIhEEvEEE11parse_errorINS1_11parse_errorEEEbmRKSB_RKT_.part.0, address: 80692, vaddr: 65536
Name: _ZN8nlohmann16json_abi_v3_11_36detail19json_sax_dom_parserINS0_10basic_jsonINS0_11ordered_mapESt6vectorNSt7__cxx1112basic_stringIcSt11char_traitsIcESaIcEEEblmdSaNS0_14adl_serializerES5_IhSaIhEEvEEE11parse_errorINS1_11parse_errorEEEbmRKSB_RKT_.part.0, address: 146228
	->Name: _ZN8nlohmann16json_abi_v3_11_36detail19json_sax_dom_parserINS0_10basic_jsonINS0_11ordered_mapESt6vectorNSt7__cxx1112basic_stringIcSt11char_traitsIcESaIcEEEblmdSaNS0_14adl_serializerES5_IhSaIhEEvEEE11parse_errorINS1_11parse_errorEEEbmRKSB_RKT_.part.0, address: 80692, vaddr: 65536
Name: _ZN8nlohmann16json_abi_v3_11_36detail28json_sax_dom_callback_parserINS0_10basic_jsonINS0_11ordered_mapESt6vectorNSt7__cxx1112basic_stringIcSt11char_traitsIcESaIcEEEblmdSaNS0_14adl_serializerES5_IhSaIhEEvEEE11parse_errorINS1_12out_of_rangeEEEbmRKSB_RKT_.part.0, address: 146326
	->Name: _ZN8nlohmann16json_abi_v3_11_36detail28json_sax_dom_callback_parserINS0_10basic_jsonINS0_11ordered_mapESt6vectorNSt7__cxx1112basic_stringIcSt11char_traitsIcESaIcEEEblmdSaNS0_14adl_serializerES5_IhSaIhEEvEEE11parse_errorINS1_12out_of_rangeEEEbmRKSB_RKT_.part.0, address: 80790, vaddr: 65536
Name: _ZN8nlohmann16json_abi_v3_11_36detail19json_sax_dom_parserINS0_10basic_jsonINS0_11ordered_mapESt6vectorNSt7__cxx1112basic_stringIcSt11char_traitsIcESaIcEEEblmdSaNS0_14adl_serializerES5_IhSaIhEEvEEE11parse_errorINS1_12out_of_rangeEEEbmRKSB_RKT_.part.0, address: 146326
	->Name: _ZN8nlohmann16json_abi_v3_11_36detail19json_sax_dom_parserINS0_10basic_jsonINS0_11ordered_mapESt6vectorNSt7__cxx1112basic_stringIcSt11char_traitsIcESaIcEEEblmdSaNS0_14adl_serializerES5_IhSaIhEEvEEE11parse_errorINS1_12out_of_rangeEEEbmRKSB_RKT_.part.0, address: 80790, vaddr: 65536
Name: _ZN8nlohmann16json_abi_v3_11_36detail9iter_implINS0_10basic_jsonINS0_11ordered_mapESt6vectorNSt7__cxx1112basic_stringIcSt11char_traitsIcESaIcEEEblmdSaNS0_14adl_serializerES5_IhSaIhEEvEEE7set_endEv.part.0, address: 1187712
	->Name: _ZN8nlohmann16json_abi_v3_11_36detail9iter_implINS0_10basic_jsonINS0_11ordered_mapESt6vectorNSt7__cxx1112basic_stringIcSt11char_traitsIcESaIcEEEblmdSaNS0_14adl_serializerES5_IhSaIhEEvEEE7set_endEv.part.0, address: 1122176, vaddr: 65536
Name: _ZN8nlohmann16json_abi_v3_11_36detail19json_sax_dom_parserINS0_10basic_jsonINS0_11ordered_mapESt6vectorNSt7__cxx1112basic_stringIcSt11char_traitsIcESaIcEEEblmdSaNS0_14adl_serializerES5_IhSaIhEEvEEE9end_arrayEv.part.0, address: 1187792
	->Name: _ZN8nlohmann16json_abi_v3_11_36detail19json_sax_dom_parserINS0_10basic_jsonINS0_11ordered_mapESt6vectorNSt7__cxx1112basic_stringIcSt11char_traitsIcESaIcEEEblmdSaNS0_14adl_serializerES5_IhSaIhEEvEEE9end_arrayEv.part.0, address: 1122256, vaddr: 65536
Name: _ZN8nlohmann16json_abi_v3_11_36detail19json_sax_dom_parserINS0_10basic_jsonINS0_11ordered_mapESt6vectorNSt7__cxx1112basic_stringIcSt11char_traitsIcESaIcEEEblmdSaNS0_14adl_serializerES5_IhSaIhEEvEEE10end_objectEv.part.0, address: 1187872
	->Name: _ZN8nlohmann16json_abi_v3_11_36detail19json_sax_dom_parserINS0_10basic_jsonINS0_11ordered_mapESt6vectorNSt7__cxx1112basic_stringIcSt11char_traitsIcESaIcEEEblmdSaNS0_14adl_serializerES5_IhSaIhEEvEEE10end_objectEv.part.0, address: 1122336, vaddr: 65536
Name: _ZN8nlohmann16json_abi_v3_11_36detail5lexerINS0_10basic_jsonINS0_11ordered_mapESt6vectorNSt7__cxx1112basic_stringIcSt11char_traitsIcESaIcEEEblmdSaNS0_14adl_serializerES5_IhSaIhEEvEENS1_22iterator_input_adapterIPKcEEE5ungetEv.part.0, address: 1187952
	->Name: _ZN8nlohmann16json_abi_v3_11_36detail5lexerINS0_10basic_jsonINS0_11ordered_mapESt6vectorNSt7__cxx1112basic_stringIcSt11char_traitsIcESaIcEEEblmdSaNS0_14adl_serializerES5_IhSaIhEEvEENS1_22iterator_input_adapterIPKcEEE5ungetEv.part.0, address: 1122416, vaddr: 65536
Name: _ZN8nlohmann16json_abi_v3_11_36detail5lexerINS0_10basic_jsonINS0_11ordered_mapESt6vectorNSt7__cxx1112basic_stringIcSt11char_traitsIcESaIcEEEblmdSaNS0_14adl_serializerES5_IhSaIhEEvEENS1_22iterator_input_adapterIPKcEEE12scan_literalESI_mNS1_10lexer_baseISF_E10token_typeE.part.0, address: 1188032
	->Name: _ZN8nlohmann16json_abi_v3_11_36detail5lexerINS0_10basic_jsonINS0_11ordered_mapESt6vectorNSt7__cxx1112basic_stringIcSt11char_traitsIcESaIcEEEblmdSaNS0_14adl_serializerES5_IhSaIhEEvEENS1_22iterator_input_adapterIPKcEEE12scan_literalESI_mNS1_10lexer_baseISF_E10token_typeE.part.0, address: 1122496, vaddr: 65536
Name: _ZN8nlohmann16json_abi_v3_11_36detail19json_sax_dom_parserINS0_10basic_jsonINS0_11ordered_mapESt6vectorNSt7__cxx1112basic_stringIcSt11char_traitsIcESaIcEEEblmdSaNS0_14adl_serializerES5_IhSaIhEEvEEE12handle_valueIRdEEPSF_OT_.part.0, address: 1188112
	->Name: _ZN8nlohmann16json_abi_v3_11_36detail19json_sax_dom_parserINS0_10basic_jsonINS0_11ordered_mapESt6vectorNSt7__cxx1112basic_stringIcSt11char_traitsIcESaIcEEEblmdSaNS0_14adl_serializerES5_IhSaIhEEvEEE12handle_valueIRdEEPSF_OT_.part.0, address: 1122576, vaddr: 65536
Name: _ZN8nlohmann16json_abi_v3_11_36detail19json_sax_dom_parserINS0_10basic_jsonINS0_11ordered_mapESt6vectorNSt7__cxx1112basic_stringIcSt11char_traitsIcESaIcEEEblmdSaNS0_14adl_serializerES5_IhSaIhEEvEEE12handle_valueINS1_7value_tEEEPSF_OT_.part.0, address: 1188112
	->Name: _ZN8nlohmann16json_abi_v3_11_36detail19json_sax_dom_parserINS0_10basic_jsonINS0_11ordered_mapESt6vectorNSt7__cxx1112basic_stringIcSt11char_traitsIcESaIcEEEblmdSaNS0_14adl_serializerES5_IhSaIhEEvEEE12handle_valueINS1_7value_tEEEPSF_OT_.part.0, address: 1122576, vaddr: 65536
Name: _ZN8nlohmann16json_abi_v3_11_36detail19json_sax_dom_parserINS0_10basic_jsonINS0_11ordered_mapESt6vectorNSt7__cxx1112basic_stringIcSt11char_traitsIcESaIcEEEblmdSaNS0_14adl_serializerES5_IhSaIhEEvEEE12handle_valueIDnEEPSF_OT_.part.0, address: 1188112
	->Name: _ZN8nlohmann16json_abi_v3_11_36detail19json_sax_dom_parserINS0_10basic_jsonINS0_11ordered_mapESt6vectorNSt7__cxx1112basic_stringIcSt11char_traitsIcESaIcEEEblmdSaNS0_14adl_serializerES5_IhSaIhEEvEEE12handle_valueIDnEEPSF_OT_.part.0, address: 1122576, vaddr: 65536
Name: _ZN8nlohmann16json_abi_v3_11_36detail19json_sax_dom_parserINS0_10basic_jsonINS0_11ordered_mapESt6vectorNSt7__cxx1112basic_stringIcSt11char_traitsIcESaIcEEEblmdSaNS0_14adl_serializerES5_IhSaIhEEvEEE12handle_valueIRSB_EEPSF_OT_.part.0, address: 1188112
	->Name: _ZN8nlohmann16json_abi_v3_11_36detail19json_sax_dom_parserINS0_10basic_jsonINS0_11ordered_mapESt6vectorNSt7__cxx1112basic_stringIcSt11char_traitsIcESaIcEEEblmdSaNS0_14adl_serializerES5_IhSaIhEEvEEE12handle_valueIRSB_EEPSF_OT_.part.0, address: 1122576, vaddr: 65536
Name: _ZN8nlohmann16json_abi_v3_11_36detail19json_sax_dom_parserINS0_10basic_jsonINS0_11ordered_mapESt6vectorNSt7__cxx1112basic_stringIcSt11char_traitsIcESaIcEEEblmdSaNS0_14adl_serializerES5_IhSaIhEEvEEE12handle_valueIRmEEPSF_OT_.part.0, address: 1188112
	->Name: _ZN8nlohmann16json_abi_v3_11_36detail19json_sax_dom_parserINS0_10basic_jsonINS0_11ordered_mapESt6vectorNSt7__cxx1112basic_stringIcSt11char_traitsIcESaIcEEEblmdSaNS0_14adl_serializerES5_IhSaIhEEvEEE12handle_valueIRmEEPSF_OT_.part.0, address: 1122576, vaddr: 65536
Name: _ZN8nlohmann16json_abi_v3_11_36detail19json_sax_dom_parserINS0_10basic_jsonINS0_11ordered_mapESt6vectorNSt7__cxx1112basic_stringIcSt11char_traitsIcESaIcEEEblmdSaNS0_14adl_serializerES5_IhSaIhEEvEEE12handle_valueIRlEEPSF_OT_.part.0, address: 1188112
	->Name: _ZN8nlohmann16json_abi_v3_11_36detail19json_sax_dom_parserINS0_10basic_jsonINS0_11ordered_mapESt6vectorNSt7__cxx1112basic_stringIcSt11char_traitsIcESaIcEEEblmdSaNS0_14adl_serializerES5_IhSaIhEEvEEE12handle_valueIRlEEPSF_OT_.part.0, address: 1122576, vaddr: 65536
Name: _ZN8nlohmann16json_abi_v3_11_36detail19json_sax_dom_parserINS0_10basic_jsonINS0_11ordered_mapESt6vectorNSt7__cxx1112basic_stringIcSt11char_traitsIcESaIcEEEblmdSaNS0_14adl_serializerES5_IhSaIhEEvEEE12handle_valueIRbEEPSF_OT_.part.0, address: 1188112
	->Name: _ZN8nlohmann16json_abi_v3_11_36detail19json_sax_dom_parserINS0_10basic_jsonINS0_11ordered_mapESt6vectorNSt7__cxx1112basic_stringIcSt11char_traitsIcESaIcEEEblmdSaNS0_14adl_serializerES5_IhSaIhEEvEEE12handle_valueIRbEEPSF_OT_.part.0, address: 1122576, vaddr: 65536
Name: _ZN9__gnu_cxx13new_allocatorIN8nlohmann16json_abi_v3_11_310basic_jsonINS2_11ordered_mapESt6vectorNSt7__cxx1112basic_stringIcSt11char_traitsIcESaIcEEEblmdSaNS2_14adl_serializerES5_IhSaIhEEvEEE8allocateEmPKv.constprop.0, address: 1260960
	->Name: _ZN9__gnu_cxx13new_allocatorIN8nlohmann16json_abi_v3_11_310basic_jsonINS2_11ordered_mapESt6vectorNSt7__cxx1112basic_stringIcSt11char_traitsIcESaIcEEEblmdSaNS2_14adl_serializerES5_IhSaIhEEvEEE8allocateEmPKv.constprop.0, address: 1195424, vaddr: 65536
Name: _ZNK8nlohmann16json_abi_v3_11_310basic_jsonINS0_11ordered_mapESt6vectorNSt7__cxx1112basic_stringIcSt11char_traitsIcESaIcEEEblmdSaNS0_14adl_serializerES3_IhSaIhEEvE16assert_invariantEb.constprop.4, address: 1188192
	->Name: _ZNK8nlohmann16json_abi_v3_11_310basic_jsonINS0_11ordered_mapESt6vectorNSt7__cxx1112basic_stringIcSt11char_traitsIcESaIcEEEblmdSaNS0_14adl_serializerES3_IhSaIhEEvE16assert_invariantEb.constprop.4, address: 1122656, vaddr: 65536
Name: _ZNKSt6vectorIN8nlohmann16json_abi_v3_11_310basic_jsonINS1_11ordered_mapES_NSt7__cxx1112basic_stringIcSt11char_traitsIcESaIcEEEblmdSaNS1_14adl_serializerES_IhSaIhEEvEESaISD_EE12_M_check_lenEmPKc.constprop.0.isra.0, address: 1261024
	->Name: _ZNKSt6vectorIN8nlohmann16json_abi_v3_11_310basic_jsonINS1_11ordered_mapES_NSt7__cxx1112basic_stringIcSt11char_traitsIcESaIcEEEblmdSaNS1_14adl_serializerES_IhSaIhEEvEESaISD_EE12_M_check_lenEmPKc.constprop.0.isra.0, address: 1195488, vaddr: 65536
Name: _ZSt13__adjust_heapIN9__gnu_cxx17__normal_iteratorIPcSt6vectorIcSaIcEEEElcNS0_5__ops15_Iter_less_iterEEvT_T0_SA_T1_T2_.isra.0, address: 1188400
	->Name: _ZSt13__adjust_heapIN9__gnu_cxx17__normal_iteratorIPcSt6vectorIcSaIcEEEElcNS0_5__ops15_Iter_less_iterEEvT_T0_SA_T1_T2_.isra.0, address: 1122864, vaddr: 65536
Name: _ZSt16__introsort_loopIN9__gnu_cxx17__normal_iteratorIPcSt6vectorIcSaIcEEEElNS0_5__ops15_Iter_less_iterEEvT_S9_T0_T1_.isra.0, address: 1188688
	->Name: _ZSt16__introsort_loopIN9__gnu_cxx17__normal_iteratorIPcSt6vectorIcSaIcEEEElNS0_5__ops15_Iter_less_iterEEvT_S9_T0_T1_.isra.0, address: 1123152, vaddr: 65536
Name: _ZNSt6vectorINSt7__cxx119sub_matchIN9__gnu_cxx17__normal_iteratorIPKcNS0_12basic_stringIcSt11char_traitsIcESaIcEEEEEEESaISC_EEaSERKSE_.isra.0, address: 1189120
	->Name: _ZNSt6vectorINSt7__cxx119sub_matchIN9__gnu_cxx17__normal_iteratorIPKcNS0_12basic_stringIcSt11char_traitsIcESaIcEEEEEEESaISC_EEaSERKSE_.isra.0, address: 1123584, vaddr: 65536
Name: _ZNSt7__cxx1112basic_stringIcSt11char_traitsIcESaIcEE6assignEPKc.isra.0, address: 1189616
	->Name: _ZNSt7__cxx1112basic_stringIcSt11char_traitsIcESaIcEE6assignEPKc.isra.0, address: 1124080, vaddr: 65536
Name: _ZNSt7__cxx1112basic_stringIcSt11char_traitsIcESaIcEEaSEOS4_.isra.0, address: 1189664
	->Name: _ZNSt7__cxx1112basic_stringIcSt11char_traitsIcESaIcEEaSEOS4_.isra.0, address: 1124128, vaddr: 65536
Name: _ZNKSt7__cxx1112regex_traitsIcE7isctypeEcNS1_10_RegexMaskE.isra.0, address: 1189872
	->Name: _ZNKSt7__cxx1112regex_traitsIcE7isctypeEcNS1_10_RegexMaskE.isra.0, address: 1124336, vaddr: 65536
Name: _ZNSt7__cxx1112basic_stringIcSt11char_traitsIcESaIcEE12_M_constructIPcEEvT_S7_St20forward_iterator_tag.constprop.0, address: 1190016
	->Name: _ZNSt7__cxx1112basic_stringIcSt11char_traitsIcESaIcEE12_M_constructIPcEEvT_S7_St20forward_iterator_tag.constprop.0, address: 1124480, vaddr: 65536
Name: _ZNKSt7__cxx1114regex_iteratorIN9__gnu_cxx17__normal_iteratorIPKcNS_12basic_stringIcSt11char_traitsIcESaIcEEEEEcNS_12regex_traitsIcEEEeqERKSD_.part.0, address: 1190224
	->Name: _ZNKSt7__cxx1114regex_iteratorIN9__gnu_cxx17__normal_iteratorIPKcNS_12basic_stringIcSt11char_traitsIcESaIcEEEEEcNS_12regex_traitsIcEEEeqERKSD_.part.0, address: 1124688, vaddr: 65536
Name: _ZNSt8_Rb_treeIlSt4pairIKllESt10_Select1stIS2_ESt4lessIlESaIS2_EE8_M_eraseEPSt13_Rb_tree_nodeIS2_E.isra.0, address: 1261776
	->Name: _ZNSt8_Rb_treeIlSt4pairIKllESt10_Select1stIS2_ESt4lessIlESaIS2_EE8_M_eraseEPSt13_Rb_tree_nodeIS2_E.isra.0, address: 1196240, vaddr: 65536
Name: _ZNSt7__cxx1112basic_stringIcSt11char_traitsIcESaIcEEC2EPKcRKS3_.constprop.0, address: 1190480
	->Name: _ZNSt7__cxx1112basic_stringIcSt11char_traitsIcESaIcEEC2EPKcRKS3_.constprop.0, address: 1124944, vaddr: 65536
Name: _ZNSt6vectorIbSaIbEE13_M_insert_auxESt13_Bit_iteratorb.isra.0, address: 1190704
	->Name: _ZNSt6vectorIbSaIbEE13_M_insert_auxESt13_Bit_iteratorb.isra.0, address: 1125168, vaddr: 65536
Name: _ZNSt8_Rb_treeIlSt4pairIKllESt10_Select1stIS2_ESt4lessIlESaIS2_EE22_M_emplace_hint_uniqueIJRKSt21piecewise_construct_tSt5tupleIJRS1_EESD_IJEEEEESt17_Rb_tree_iteratorIS2_ESt23_Rb_tree_const_iteratorIS2_EDpOT_.isra.0, address: 1262560
	->Name: _ZNSt8_Rb_treeIlSt4pairIKllESt10_Select1stIS2_ESt4lessIlESaIS2_EE22_M_emplace_hint_uniqueIJRKSt21piecewise_construct_tSt5tupleIJRS1_EESD_IJEEEEESt17_Rb_tree_iteratorIS2_ESt23_Rb_tree_const_iteratorIS2_EDpOT_.isra.0, address: 1197024, vaddr: 65536
Name: _ZN8nlohmann16json_abi_v3_11_310basic_jsonINS0_11ordered_mapESt6vectorNSt7__cxx1112basic_stringIcSt11char_traitsIcESaIcEEEblmdSaNS0_14adl_serializerES3_IhSaIhEEvEC2EDn.constprop.1, address: 1263280
	->Name: _ZN8nlohmann16json_abi_v3_11_310basic_jsonINS0_11ordered_mapESt6vectorNSt7__cxx1112basic_stringIcSt11char_traitsIcESaIcEEEblmdSaNS0_14adl_serializerES3_IhSaIhEEvEC2EDn.constprop.1, address: 1197744, vaddr: 65536
Name: _Z15gpt_print_usageiPPcRK10gpt_params.cold, address: 146416
	->Name: _Z15gpt_print_usageiPPcRK10gpt_params.cold, address: 80880, vaddr: 65536
Name: _Z22get_sortable_timestampB5cxx11v.cold, address: 146508
	->Name: _Z22get_sortable_timestampB5cxx11v.cold, address: 80972, vaddr: 65536
Name: _Z15log_enable_implv.isra.0, address: 1201744
	->Name: _Z15log_enable_implv.isra.0, address: 1136208, vaddr: 65536
Name: _Z15log_enable_implv.isra.0.cold, address: 146572
	->Name: _Z15log_enable_implv.isra.0.cold, address: 81036, vaddr: 65536
Name: _Z16log_disable_implv.isra.0, address: 1202000
	->Name: _Z16log_disable_implv.isra.0, address: 1136464, vaddr: 65536
Name: _Z16log_disable_implv.isra.0.cold, address: 146637
	->Name: _Z16log_disable_implv.isra.0.cold, address: 81101, vaddr: 65536
Name: _Z15get_system_infoB5cxx11RK10gpt_params.cold, address: 146702
	->Name: _Z15get_system_infoB5cxx11RK10gpt_params.cold, address: 81166, vaddr: 65536
Name: _ZL22kv_cache_type_from_strRKNSt7__cxx1112basic_stringIcSt11char_traitsIcESaIcEEE, address: 1203232
	->Name: _ZL22kv_cache_type_from_strRKNSt7__cxx1112basic_stringIcSt11char_traitsIcESaIcEEE, address: 1137696, vaddr: 65536
Name: _ZL22kv_cache_type_from_strRKNSt7__cxx1112basic_stringIcSt11char_traitsIcESaIcEEE.cold, address: 146810
	->Name: _ZL22kv_cache_type_from_strRKNSt7__cxx1112basic_stringIcSt11char_traitsIcESaIcEEE.cold, address: 81274, vaddr: 65536
Name: _Z12string_splitNSt7__cxx1112basic_stringIcSt11char_traitsIcESaIcEEEc.cold, address: 146958
	->Name: _Z12string_splitNSt7__cxx1112basic_stringIcSt11char_traitsIcESaIcEEEc.cold, address: 81422, vaddr: 65536
Name: _Z31gpt_params_handle_model_defaultR10gpt_params.cold, address: 146999
	->Name: _Z31gpt_params_handle_model_defaultR10gpt_params.cold, address: 81463, vaddr: 65536
Name: _Z14llama_tokenizePK11llama_modelRKNSt7__cxx1112basic_stringIcSt11char_traitsIcESaIcEEEbb.cold, address: 147198
	->Name: _Z14llama_tokenizePK11llama_modelRKNSt7__cxx1112basic_stringIcSt11char_traitsIcESaIcEEEbb.cold, address: 81662, vaddr: 65536
Name: _Z20llama_token_to_pieceB5cxx11PK13llama_contextib.cold, address: 147233
	->Name: _Z20llama_token_to_pieceB5cxx11PK13llama_contextib.cold, address: 81697, vaddr: 65536
Name: _Z20llama_detokenize_spmB5cxx11P13llama_contextRKSt6vectorIiSaIiEE.cold, address: 147269
	->Name: _Z20llama_detokenize_spmB5cxx11P13llama_contextRKSt6vectorIiSaIiEE.cold, address: 81733, vaddr: 65536
Name: _Z20llama_detokenize_bpeB5cxx11P13llama_contextRKSt6vectorIiSaIiEE.cold, address: 147317
	->Name: _Z20llama_detokenize_bpeB5cxx11P13llama_contextRKSt6vectorIiSaIiEE.cold, address: 81781, vaddr: 65536
Name: _Z25llama_control_vector_loadRKSt6vectorI30llama_control_vector_load_infoSaIS0_EE.cold, address: 147365
	->Name: _Z25llama_control_vector_loadRKSt6vectorI30llama_control_vector_load_infoSaIS0_EE.cold, address: 81829, vaddr: 65536
Name: _Z26llama_init_from_gpt_paramsR10gpt_params.cold, address: 147683
	->Name: _Z26llama_init_from_gpt_paramsR10gpt_params.cold, address: 82147, vaddr: 65536
Name: _Z23dump_kv_cache_view_seqsRK19llama_kv_cache_viewi.cold, address: 147735
	->Name: _Z23dump_kv_cache_view_seqsRK19llama_kv_cache_viewi.cold, address: 82199, vaddr: 65536
Name: _ZN8nlohmann16json_abi_v3_11_36detail16invalid_iterator6createIPNS0_10basic_jsonINS0_11ordered_mapESt6vectorNSt7__cxx1112basic_stringIcSt11char_traitsIcESaIcEEEblmdSaNS0_14adl_serializerES6_IhSaIhEEvEELi0EEES2_iRKSC_T_.isra.0, address: 147839
	->Name: _ZN8nlohmann16json_abi_v3_11_36detail16invalid_iterator6createIPNS0_10basic_jsonINS0_11ordered_mapESt6vectorNSt7__cxx1112basic_stringIcSt11char_traitsIcESaIcEEEblmdSaNS0_14adl_serializerES6_IhSaIhEEvEELi0EEES2_iRKSC_T_.isra.0, address: 82303, vaddr: 65536
Name: _ZN8nlohmann16json_abi_v3_11_36detail12out_of_range6createIPNS0_10basic_jsonINS0_11ordered_mapESt6vectorNSt7__cxx1112basic_stringIcSt11char_traitsIcESaIcEEEblmdSaNS0_14adl_serializerES6_IhSaIhEEvEELi0EEES2_iRKSC_T_.isra.0, address: 148282
	->Name: _ZN8nlohmann16json_abi_v3_11_36detail12out_of_range6createIPNS0_10basic_jsonINS0_11ordered_mapESt6vectorNSt7__cxx1112basic_stringIcSt11char_traitsIcESaIcEEEblmdSaNS0_14adl_serializerES6_IhSaIhEEvEELi0EEES2_iRKSC_T_.isra.0, address: 82746, vaddr: 65536
Name: _Z22get_num_physical_coresv.cold, address: 148725
	->Name: _Z22get_num_physical_coresv.cold, address: 83189, vaddr: 65536
Name: _ZNKSt7__cxx1112regex_traitsIcE5valueEci.constprop.0, address: 1317024
	->Name: _ZNKSt7__cxx1112regex_traitsIcE5valueEci.constprop.0, address: 1251488, vaddr: 65536
Name: _ZNKSt7__cxx1112regex_traitsIcE5valueEci.isra.0, address: 1220672
	->Name: _ZNKSt7__cxx1112regex_traitsIcE5valueEci.isra.0, address: 1155136, vaddr: 65536
Name: _ZNKSt7__cxx1112regex_traitsIcE5valueEci.isra.0.cold, address: 149164
	->Name: _ZNKSt7__cxx1112regex_traitsIcE5valueEci.isra.0.cold, address: 83628, vaddr: 65536
Name: _Z24sampler_types_from_namesRKSt6vectorINSt7__cxx1112basic_stringIcSt11char_traitsIcESaIcEEESaIS5_EEb.cold, address: 149335
	->Name: _Z24sampler_types_from_namesRKSt6vectorINSt7__cxx1112basic_stringIcSt11char_traitsIcESaIcEEESaIS5_EEb.cold, address: 83799, vaddr: 65536
Name: _Z24sampler_types_from_charsRKNSt7__cxx1112basic_stringIcSt11char_traitsIcESaIcEEE.cold, address: 149464
	->Name: _Z24sampler_types_from_charsRKNSt7__cxx1112basic_stringIcSt11char_traitsIcESaIcEEE.cold, address: 83928, vaddr: 65536
Name: _Z18validate_file_nameRKNSt7__cxx1112basic_stringIcSt11char_traitsIcESaIcEEE.cold, address: 149502
	->Name: _Z18validate_file_nameRKNSt7__cxx1112basic_stringIcSt11char_traitsIcESaIcEEE.cold, address: 83966, vaddr: 65536
Name: _ZNSt8__detail9_ExecutorIN9__gnu_cxx17__normal_iteratorIPKcNSt7__cxx1112basic_stringIcSt11char_traitsIcESaIcEEEEESaINS5_9sub_matchISB_EEENS5_12regex_traitsIcEELb0EE15_M_handle_matchENSH_11_Match_modeEl.isra.0, address: 1227184
	->Name: _ZNSt8__detail9_ExecutorIN9__gnu_cxx17__normal_iteratorIPKcNSt7__cxx1112basic_stringIcSt11char_traitsIcESaIcEEEEESaINS5_9sub_matchISB_EEENS5_12regex_traitsIcEELb0EE15_M_handle_matchENSH_11_Match_modeEl.isra.0, address: 1161648, vaddr: 65536
Name: _ZNSt8__detail9_ExecutorIN9__gnu_cxx17__normal_iteratorIPKcNSt7__cxx1112basic_stringIcSt11char_traitsIcESaIcEEEEESaINS5_9sub_matchISB_EEENS5_12regex_traitsIcEELb0EE16_M_main_dispatchENSH_11_Match_modeESt17integral_constantIbLb0EE.constprop.0, address: 1227632
	->Name: _ZNSt8__detail9_ExecutorIN9__gnu_cxx17__normal_iteratorIPKcNSt7__cxx1112basic_stringIcSt11char_traitsIcESaIcEEEEESaINS5_9sub_matchISB_EEENS5_12regex_traitsIcEELb0EE16_M_main_dispatchENSH_11_Match_modeESt17integral_constantIbLb0EE.constprop.0, address: 1162096, vaddr: 65536
Name: _ZNSt8__detail9_ExecutorIN9__gnu_cxx17__normal_iteratorIPKcNSt7__cxx1112basic_stringIcSt11char_traitsIcESaIcEEEEESaINS5_9sub_matchISB_EEENS5_12regex_traitsIcEELb0EE16_M_main_dispatchENSH_11_Match_modeESt17integral_constantIbLb0EE.constprop.0.cold, address: 149650
	->Name: _ZNSt8__detail9_ExecutorIN9__gnu_cxx17__normal_iteratorIPKcNSt7__cxx1112basic_stringIcSt11char_traitsIcESaIcEEEEESaINS5_9sub_matchISB_EEENS5_12regex_traitsIcEELb0EE16_M_main_dispatchENSH_11_Match_modeESt17integral_constantIbLb0EE.constprop.0.cold, address: 84114, vaddr: 65536
Name: _ZNSt7__cxx1114regex_iteratorIN9__gnu_cxx17__normal_iteratorIPKcNS_12basic_stringIcSt11char_traitsIcESaIcEEEEEcNS_12regex_traitsIcEEEppEv.isra.0, address: 1230320
	->Name: _ZNSt7__cxx1114regex_iteratorIN9__gnu_cxx17__normal_iteratorIPKcNS_12basic_stringIcSt11char_traitsIcESaIcEEEEEcNS_12regex_traitsIcEEEppEv.isra.0, address: 1164784, vaddr: 65536
Name: _ZNSt7__cxx1120regex_token_iteratorIN9__gnu_cxx17__normal_iteratorIPKcNS_12basic_stringIcSt11char_traitsIcESaIcEEEEEcNS_12regex_traitsIcEEEppEv.isra.0, address: 1404592
	->Name: _ZNSt7__cxx1120regex_token_iteratorIN9__gnu_cxx17__normal_iteratorIPKcNS_12basic_stringIcSt11char_traitsIcESaIcEEEEEcNS_12regex_traitsIcEEEppEv.isra.0, address: 1339056, vaddr: 65536
Name: _ZSt13regex_replaceINSt7__cxx1112regex_traitsIcEEcSt11char_traitsIcESaIcEENS0_12basic_stringIT0_T1_T2_EERKSA_RKNS0_11basic_regexIS7_T_EEPKS7_NSt15regex_constants15match_flag_typeE.constprop.0, address: 1230512
	->Name: _ZSt13regex_replaceINSt7__cxx1112regex_traitsIcEEcSt11char_traitsIcESaIcEENS0_12basic_stringIT0_T1_T2_EERKSA_RKNS0_11basic_regexIS7_T_EEPKS7_NSt15regex_constants15match_flag_typeE.constprop.0, address: 1164976, vaddr: 65536
Name: _ZSt13regex_replaceINSt7__cxx1112regex_traitsIcEEcSt11char_traitsIcESaIcEENS0_12basic_stringIT0_T1_T2_EERKSA_RKNS0_11basic_regexIS7_T_EEPKS7_NSt15regex_constants15match_flag_typeE.constprop.0.cold, address: 149705
	->Name: _ZSt13regex_replaceINSt7__cxx1112regex_traitsIcEEcSt11char_traitsIcESaIcEENS0_12basic_stringIT0_T1_T2_EERKSA_RKNS0_11basic_regexIS7_T_EEPKS7_NSt15regex_constants15match_flag_typeE.constprop.0.cold, address: 84169, vaddr: 65536
Name: _Z19gpt_params_find_argiPPcRKNSt7__cxx1112basic_stringIcSt11char_traitsIcESaIcEEER10gpt_paramsRiRb.cold, address: 149798
	->Name: _Z19gpt_params_find_argiPPcRKNSt7__cxx1112basic_stringIcSt11char_traitsIcESaIcEEER10gpt_paramsRiRb.cold, address: 84262, vaddr: 65536
Name: _Z19gpt_params_parse_exiPPcR10gpt_params.cold, address: 152973
	->Name: _Z19gpt_params_parse_exiPPcR10gpt_params.cold, address: 87437, vaddr: 65536
Name: _Z16gpt_params_parseiPPcR10gpt_params.cold, address: 153354
	->Name: _Z16gpt_params_parseiPPcR10gpt_params.cold, address: 87818, vaddr: 65536
Name: _Z26dump_string_yaml_multilineP8_IO_FILEPKcS2_.cold, address: 153526
	->Name: _Z26dump_string_yaml_multilineP8_IO_FILEPKcS2_.cold, address: 87990, vaddr: 65536
Name: _Z25dump_non_result_info_yamlP8_IO_FILERK10gpt_paramsPK13llama_contextRKNSt7__cxx1112basic_stringIcSt11char_traitsIcESaIcEEERKSt6vectorIiSaIiEEPKc.cold, address: 153662
	->Name: _Z25dump_non_result_info_yamlP8_IO_FILERK10gpt_paramsPK13llama_contextRKNSt7__cxx1112basic_stringIcSt11char_traitsIcESaIcEEERKSt6vectorIiSaIiEEPKc.cold, address: 88126, vaddr: 65536
Name: _GLOBAL__sub_I_common.cpp, address: 191184
	->Name: _GLOBAL__sub_I_common.cpp, address: 125648, vaddr: 65536
Name: _ZNSt8_Rb_treeINSt7__cxx1112basic_stringIcSt11char_traitsIcESaIcEEESt4pairIKS5_jESt10_Select1stIS8_ESt4lessIS5_ESaIS8_EE8_M_eraseEPSt13_Rb_tree_nodeIS8_E.isra.0, address: 1439872
	->Name: _ZNSt8_Rb_treeINSt7__cxx1112basic_stringIcSt11char_traitsIcESaIcEEESt4pairIKS5_jESt10_Select1stIS8_ESt4lessIS5_ESaIS8_EE8_M_eraseEPSt13_Rb_tree_nodeIS8_E.isra.0, address: 1374336, vaddr: 65536
Name: _Z20llama_sampling_resetP22llama_sampling_context.cold, address: 153931
	->Name: _Z20llama_sampling_resetP22llama_sampling_context.cold, address: 88395, vaddr: 65536
Name: _Z27llama_sampling_set_rng_seedP22llama_sampling_contextj.cold, address: 153976
	->Name: _Z27llama_sampling_set_rng_seedP22llama_sampling_contextj.cold, address: 88440, vaddr: 65536
Name: _Z23llama_sampling_prev_strB5cxx11P22llama_sampling_contextP13llama_contexti.cold, address: 154025
	->Name: _Z23llama_sampling_prev_strB5cxx11P22llama_sampling_contextP13llama_contexti.cold, address: 88489, vaddr: 65536
Name: _Z26llama_sampling_order_printB5cxx11RK21llama_sampling_params.cold, address: 154077
	->Name: _Z26llama_sampling_order_printB5cxx11RK21llama_sampling_params.cold, address: 88541, vaddr: 65536
Name: _ZL26llama_sampling_sample_implP22llama_sampling_contextP13llama_contextS2_ib, address: 1444880
	->Name: _ZL26llama_sampling_sample_implP22llama_sampling_contextP13llama_contextS2_ib, address: 1379344, vaddr: 65536
Name: _ZL26llama_sampling_sample_implP22llama_sampling_contextP13llama_contextS2_ib.cold, address: 154185
	->Name: _ZL26llama_sampling_sample_implP22llama_sampling_contextP13llama_contextS2_ib.cold, address: 88649, vaddr: 65536
Name: _Z19llama_sampling_initRK21llama_sampling_params.cold, address: 154241
	->Name: _Z19llama_sampling_initRK21llama_sampling_params.cold, address: 88705, vaddr: 65536
Name: _GLOBAL__sub_I_sampling.cpp, address: 191232
	->Name: _GLOBAL__sub_I_sampling.cpp, address: 125696, vaddr: 65536
Name: _ZNSt6vectorI21llama_grammar_elementSaIS0_EE15_M_range_insertIN9__gnu_cxx17__normal_iteratorIPS0_S2_EEEEvS7_T_S8_St20forward_iterator_tag.isra.0, address: 1451328
	->Name: _ZNSt6vectorI21llama_grammar_elementSaIS0_EE15_M_range_insertIN9__gnu_cxx17__normal_iteratorIPS0_S2_EEEEvS7_T_S8_St20forward_iterator_tag.isra.0, address: 1385792, vaddr: 65536
Name: _ZNSt7__cxx1112basic_stringIcSt11char_traitsIcESaIcEEC2EPKcRKS3_.isra.0, address: 154330
	->Name: _ZNSt7__cxx1112basic_stringIcSt11char_traitsIcESaIcEEC2EPKcRKS3_.isra.0, address: 88794, vaddr: 65536
Name: _ZNSt8_Rb_treeIjSt4pairIKjNSt7__cxx1112basic_stringIcSt11char_traitsIcESaIcEEEESt10_Select1stIS8_ESt4lessIjESaIS8_EE8_M_eraseEPSt13_Rb_tree_nodeIS8_E.isra.0, address: 1452000
	->Name: _ZNSt8_Rb_treeIjSt4pairIKjNSt7__cxx1112basic_stringIcSt11char_traitsIcESaIcEEEESt10_Select1stIS8_ESt4lessIjESaIS8_EE8_M_eraseEPSt13_Rb_tree_nodeIS8_E.isra.0, address: 1386464, vaddr: 65536
Name: _ZNSt8_Rb_treeINSt7__cxx1112basic_stringIcSt11char_traitsIcESaIcEEESt4pairIKS5_jESt10_Select1stIS8_ESt4lessIS5_ESaIS8_EE8_M_eraseEPSt13_Rb_tree_nodeIS8_E.isra.0, address: 1452784
	->Name: _ZNSt8_Rb_treeINSt7__cxx1112basic_stringIcSt11char_traitsIcESaIcEEESt4pairIKS5_jESt10_Select1stIS8_ESt4lessIS5_ESaIS8_EE8_M_eraseEPSt13_Rb_tree_nodeIS8_E.isra.0, address: 1387248, vaddr: 65536
Name: _ZN14grammar_parser11parse_state7c_rulesEv.cold, address: 154508
	->Name: _ZN14grammar_parser11parse_state7c_rulesEv.cold, address: 88972, vaddr: 65536
Name: _ZN14grammar_parserL9parse_hexEPKci, address: 1454224
	->Name: _ZN14grammar_parserL9parse_hexEPKci, address: 1388688, vaddr: 65536
Name: _ZN14grammar_parserL9parse_hexEPKci.cold, address: 154538
	->Name: _ZN14grammar_parserL9parse_hexEPKci.cold, address: 89002, vaddr: 65536
Name: _ZN14grammar_parserL10parse_charEPKc, address: 1454432
	->Name: _ZN14grammar_parserL10parse_charEPKc, address: 1388896, vaddr: 65536
Name: _ZN14grammar_parserL10parse_charEPKc.cold, address: 154899
	->Name: _ZN14grammar_parserL10parse_charEPKc.cold, address: 89363, vaddr: 65536
Name: _ZN14grammar_parserL10parse_nameEPKc, address: 1454816
	->Name: _ZN14grammar_parserL10parse_nameEPKc, address: 1389280, vaddr: 65536
Name: _ZN14grammar_parserL10parse_nameEPKc.cold, address: 155171
	->Name: _ZN14grammar_parserL10parse_nameEPKc.cold, address: 89635, vaddr: 65536
Name: _ZN14grammar_parserL10print_ruleEP8_IO_FILEjRKSt6vectorI21llama_grammar_elementSaIS3_EERKSt3mapIjNSt7__cxx1112basic_stringIcSt11char_traitsIcESaIcEEESt4lessIjESaISt4pairIKjSE_EEE, address: 1454960
	->Name: _ZN14grammar_parserL10print_ruleEP8_IO_FILEjRKSt6vectorI21llama_grammar_elementSaIS3_EERKSt3mapIjNSt7__cxx1112basic_stringIcSt11char_traitsIcESaIcEEESt4lessIjESaISt4pairIKjSE_EEE, address: 1389424, vaddr: 65536
Name: _ZN14grammar_parserL10print_ruleEP8_IO_FILEjRKSt6vectorI21llama_grammar_elementSaIS3_EERKSt3mapIjNSt7__cxx1112basic_stringIcSt11char_traitsIcESaIcEEESt4lessIjESaISt4pairIKjSE_EEE.cold, address: 155387
	->Name: _ZN14grammar_parserL10print_ruleEP8_IO_FILEjRKSt6vectorI21llama_grammar_elementSaIS3_EERKSt3mapIjNSt7__cxx1112basic_stringIcSt11char_traitsIcESaIcEEESt4lessIjESaISt4pairIKjSE_EEE.cold, address: 89851, vaddr: 65536
Name: _ZN14grammar_parserL8add_ruleERNS_11parse_stateEjRKSt6vectorI21llama_grammar_elementSaIS3_EE, address: 1455776
	->Name: _ZN14grammar_parserL8add_ruleERNS_11parse_stateEjRKSt6vectorI21llama_grammar_elementSaIS3_EE, address: 1390240, vaddr: 65536
Name: _ZN14grammar_parserL13get_symbol_idERNS_11parse_stateEPKcm, address: 1456336
	->Name: _ZN14grammar_parserL13get_symbol_idERNS_11parse_stateEPKcm, address: 1390800, vaddr: 65536
Name: _ZN14grammar_parserL13get_symbol_idERNS_11parse_stateEPKcm.cold, address: 156382
	->Name: _ZN14grammar_parserL13get_symbol_idERNS_11parse_stateEPKcm.cold, address: 90846, vaddr: 65536
Name: _ZN14grammar_parserL18generate_symbol_idERNS_11parse_stateERKNSt7__cxx1112basic_stringIcSt11char_traitsIcESaIcEEE, address: 1456944
	->Name: _ZN14grammar_parserL18generate_symbol_idERNS_11parse_stateERKNSt7__cxx1112basic_stringIcSt11char_traitsIcESaIcEEE, address: 1391408, vaddr: 65536
Name: _ZN14grammar_parserL18generate_symbol_idERNS_11parse_stateERKNSt7__cxx1112basic_stringIcSt11char_traitsIcESaIcEEE.cold, address: 156413
	->Name: _ZN14grammar_parserL18generate_symbol_idERNS_11parse_stateERKNSt7__cxx1112basic_stringIcSt11char_traitsIcESaIcEEE.cold, address: 90877, vaddr: 65536
Name: _ZN14grammar_parserL14parse_sequenceERNS_11parse_stateEPKcRKNSt7__cxx1112basic_stringIcSt11char_traitsIcESaIcEEERSt6vectorI21llama_grammar_elementSaISD_EEb, address: 1458800
	->Name: _ZN14grammar_parserL14parse_sequenceERNS_11parse_stateEPKcRKNSt7__cxx1112basic_stringIcSt11char_traitsIcESaIcEEERSt6vectorI21llama_grammar_elementSaISD_EEb, address: 1393264, vaddr: 65536
Name: _ZN14grammar_parserL14parse_sequenceERNS_11parse_stateEPKcRKNSt7__cxx1112basic_stringIcSt11char_traitsIcESaIcEEERSt6vectorI21llama_grammar_elementSaISD_EEb.cold, address: 156510
	->Name: _ZN14grammar_parserL14parse_sequenceERNS_11parse_stateEPKcRKNSt7__cxx1112basic_stringIcSt11char_traitsIcESaIcEEERSt6vectorI21llama_grammar_elementSaISD_EEb.cold, address: 90974, vaddr: 65536
Name: _ZN14grammar_parser16parse_alternatesERNS_11parse_stateEPKcRKNSt7__cxx1112basic_stringIcSt11char_traitsIcESaIcEEEjb.cold, address: 157239
	->Name: _ZN14grammar_parser16parse_alternatesERNS_11parse_stateEPKcRKNSt7__cxx1112basic_stringIcSt11char_traitsIcESaIcEEEjb.cold, address: 91703, vaddr: 65536
Name: _ZN14grammar_parser5parseEPKc.cold, address: 157270
	->Name: _ZN14grammar_parser5parseEPKc.cold, address: 91734, vaddr: 65536
Name: _ZN14grammar_parser13print_grammarEP8_IO_FILERKNS_11parse_stateE.cold, address: 158423
	->Name: _ZN14grammar_parser13print_grammarEP8_IO_FILERKNS_11parse_stateE.cold, address: 92887, vaddr: 65536
Name: _ZNSt17_Function_handlerIFNSt7__cxx1112basic_stringIcSt11char_traitsIcESaIcEEERKNS0_13match_resultsIN9__gnu_cxx17__normal_iteratorIPKcS5_EESaINS0_9sub_matchISB_EEEEEEZL14format_literalRKS5_EUlSH_E_E10_M_managerERSt9_Any_dataRKSN_St18_Manager_operation, address: 1468032
	->Name: _ZNSt17_Function_handlerIFNSt7__cxx1112basic_stringIcSt11char_traitsIcESaIcEEERKNS0_13match_resultsIN9__gnu_cxx17__normal_iteratorIPKcS5_EESaINS0_9sub_matchISB_EEEEEEZL14format_literalRKS5_EUlSH_E_E10_M_managerERSt9_Any_dataRKSN_St18_Manager_operation, address: 1402496, vaddr: 65536
Name: _ZNSt17_Function_handlerIFN8nlohmann16json_abi_v3_11_310basic_jsonINS1_11ordered_mapESt6vectorNSt7__cxx1112basic_stringIcSt11char_traitsIcESaIcEEEblmdSaNS1_14adl_serializerES4_IhSaIhEEvEERKSA_EZ22json_schema_to_grammarRKSE_EUlSG_E_E10_M_managerERSt9_Any_dataRKSM_St18_Manager_operation, address: 1468080
	->Name: _ZNSt17_Function_handlerIFN8nlohmann16json_abi_v3_11_310basic_jsonINS1_11ordered_mapESt6vectorNSt7__cxx1112basic_stringIcSt11char_traitsIcESaIcEEEblmdSaNS1_14adl_serializerES4_IhSaIhEEvEERKSA_EZ22json_schema_to_grammarRKSE_EUlSG_E_E10_M_managerERSt9_Any_dataRKSM_St18_Manager_operation, address: 1402544, vaddr: 65536
Name: _ZN8nlohmann16json_abi_v3_11_36detail9dtoa_impl5diyfp3subERKS3_S5_.part.0, address: 1468128
	->Name: _ZN8nlohmann16json_abi_v3_11_36detail9dtoa_impl5diyfp3subERKS3_S5_.part.0, address: 1402592, vaddr: 65536
Name: _ZN8nlohmann16json_abi_v3_11_36detail9dtoa_impl12grisu2_roundEPcimmmm.part.0, address: 1468208
	->Name: _ZN8nlohmann16json_abi_v3_11_36detail9dtoa_impl12grisu2_roundEPcimmmm.part.0, address: 1402672, vaddr: 65536
Name: _ZNK8nlohmann16json_abi_v3_11_310basic_jsonINS0_11ordered_mapESt6vectorNSt7__cxx1112basic_stringIcSt11char_traitsIcESaIcEEEblmdSaNS0_14adl_serializerES3_IhSaIhEEvE16assert_invariantEb.part.0, address: 1468288
	->Name: _ZNK8nlohmann16json_abi_v3_11_310basic_jsonINS0_11ordered_mapESt6vectorNSt7__cxx1112basic_stringIcSt11char_traitsIcESaIcEEEblmdSaNS0_14adl_serializerES3_IhSaIhEEvE16assert_invariantEb.part.0, address: 1402752, vaddr: 65536
Name: _ZN8nlohmann16json_abi_v3_11_36detail9iter_implINS0_10basic_jsonINS0_11ordered_mapESt6vectorNSt7__cxx1112basic_stringIcSt11char_traitsIcESaIcEEEblmdSaNS0_14adl_serializerES5_IhSaIhEEvEEE7set_endEv.part.0, address: 1468368
	->Name: _ZN8nlohmann16json_abi_v3_11_36detail9iter_implINS0_10basic_jsonINS0_11ordered_mapESt6vectorNSt7__cxx1112basic_stringIcSt11char_traitsIcESaIcEEEblmdSaNS0_14adl_serializerES5_IhSaIhEEvEEE7set_endEv.part.0, address: 1402832, vaddr: 65536
Name: _ZN8nlohmann16json_abi_v3_11_36detail9iter_implIKNS0_10basic_jsonINS0_11ordered_mapESt6vectorNSt7__cxx1112basic_stringIcSt11char_traitsIcESaIcEEEblmdSaNS0_14adl_serializerES5_IhSaIhEEvEEE7set_endEv.part.0, address: 1468368
	->Name: _ZN8nlohmann16json_abi_v3_11_36detail9iter_implIKNS0_10basic_jsonINS0_11ordered_mapESt6vectorNSt7__cxx1112basic_stringIcSt11char_traitsIcESaIcEEEblmdSaNS0_14adl_serializerES5_IhSaIhEEvEEE7set_endEv.part.0, address: 1402832, vaddr: 65536
Name: _ZN8nlohmann16json_abi_v3_11_36detail9iter_implINS0_10basic_jsonINS0_11ordered_mapESt6vectorNSt7__cxx1112basic_stringIcSt11char_traitsIcESaIcEEEblmdSaNS0_14adl_serializerES5_IhSaIhEEvEEE9set_beginEv.part.0, address: 1468448
	->Name: _ZN8nlohmann16json_abi_v3_11_36detail9iter_implINS0_10basic_jsonINS0_11ordered_mapESt6vectorNSt7__cxx1112basic_stringIcSt11char_traitsIcESaIcEEEblmdSaNS0_14adl_serializerES5_IhSaIhEEvEEE9set_beginEv.part.0, address: 1402912, vaddr: 65536
Name: _ZN8nlohmann16json_abi_v3_11_36detail9iter_implIKNS0_10basic_jsonINS0_11ordered_mapESt6vectorNSt7__cxx1112basic_stringIcSt11char_traitsIcESaIcEEEblmdSaNS0_14adl_serializerES5_IhSaIhEEvEEE9set_beginEv.part.0, address: 1468448
	->Name: _ZN8nlohmann16json_abi_v3_11_36detail9iter_implIKNS0_10basic_jsonINS0_11ordered_mapESt6vectorNSt7__cxx1112basic_stringIcSt11char_traitsIcESaIcEEEblmdSaNS0_14adl_serializerES5_IhSaIhEEvEEE9set_beginEv.part.0, address: 1402912, vaddr: 65536
Name: _ZN8nlohmann16json_abi_v3_11_36detail9iter_implINS0_10basic_jsonINS0_11ordered_mapESt6vectorNSt7__cxx1112basic_stringIcSt11char_traitsIcESaIcEEEblmdSaNS0_14adl_serializerES5_IhSaIhEEvEEEppEv.part.0, address: 1468528
	->Name: _ZN8nlohmann16json_abi_v3_11_36detail9iter_implINS0_10basic_jsonINS0_11ordered_mapESt6vectorNSt7__cxx1112basic_stringIcSt11char_traitsIcESaIcEEEblmdSaNS0_14adl_serializerES5_IhSaIhEEvEEEppEv.part.0, address: 1402992, vaddr: 65536
Name: _ZN8nlohmann16json_abi_v3_11_36detail9iter_implIKNS0_10basic_jsonINS0_11ordered_mapESt6vectorNSt7__cxx1112basic_stringIcSt11char_traitsIcESaIcEEEblmdSaNS0_14adl_serializerES5_IhSaIhEEvEEEppEv.part.0, address: 1468528
	->Name: _ZN8nlohmann16json_abi_v3_11_36detail9iter_implIKNS0_10basic_jsonINS0_11ordered_mapESt6vectorNSt7__cxx1112basic_stringIcSt11char_traitsIcESaIcEEEblmdSaNS0_14adl_serializerES5_IhSaIhEEvEEEppEv.part.0, address: 1402992, vaddr: 65536
Name: _ZN8nlohmann16json_abi_v3_11_36detail10serializerINS0_10basic_jsonINS0_11ordered_mapESt6vectorNSt7__cxx1112basic_stringIcSt11char_traitsIcESaIcEEEblmdSaNS0_14adl_serializerES5_IhSaIhEEvEEE12dump_integerIlLi0EEEvT_.part.0, address: 1468608
	->Name: _ZN8nlohmann16json_abi_v3_11_36detail10serializerINS0_10basic_jsonINS0_11ordered_mapESt6vectorNSt7__cxx1112basic_stringIcSt11char_traitsIcESaIcEEEblmdSaNS0_14adl_serializerES5_IhSaIhEEvEEE12dump_integerIlLi0EEEvT_.part.0, address: 1403072, vaddr: 65536
Name: _ZN8nlohmann16json_abi_v3_11_36detail10serializerINS0_10basic_jsonINS0_11ordered_mapESt6vectorNSt7__cxx1112basic_stringIcSt11char_traitsIcESaIcEEEblmdSaNS0_14adl_serializerES5_IhSaIhEEvEEE12dump_integerImLi0EEEvT_.part.0, address: 1468608
	->Name: _ZN8nlohmann16json_abi_v3_11_36detail10serializerINS0_10basic_jsonINS0_11ordered_mapESt6vectorNSt7__cxx1112basic_stringIcSt11char_traitsIcESaIcEEEblmdSaNS0_14adl_serializerES5_IhSaIhEEvEEE12dump_integerImLi0EEEvT_.part.0, address: 1403072, vaddr: 65536
Name: _ZNK8nlohmann16json_abi_v3_11_36detail9iter_implINS0_10basic_jsonINS0_11ordered_mapESt6vectorNSt7__cxx1112basic_stringIcSt11char_traitsIcESaIcEEEblmdSaNS0_14adl_serializerES5_IhSaIhEEvEEEdeEv.part.0, address: 1468688
	->Name: _ZNK8nlohmann16json_abi_v3_11_36detail9iter_implINS0_10basic_jsonINS0_11ordered_mapESt6vectorNSt7__cxx1112basic_stringIcSt11char_traitsIcESaIcEEEblmdSaNS0_14adl_serializerES5_IhSaIhEEvEEEdeEv.part.0, address: 1403152, vaddr: 65536
Name: _ZNK8nlohmann16json_abi_v3_11_36detail9iter_implIKNS0_10basic_jsonINS0_11ordered_mapESt6vectorNSt7__cxx1112basic_stringIcSt11char_traitsIcESaIcEEEblmdSaNS0_14adl_serializerES5_IhSaIhEEvEEEdeEv.part.0, address: 1468688
	->Name: _ZNK8nlohmann16json_abi_v3_11_36detail9iter_implIKNS0_10basic_jsonINS0_11ordered_mapESt6vectorNSt7__cxx1112basic_stringIcSt11char_traitsIcESaIcEEEblmdSaNS0_14adl_serializerES5_IhSaIhEEvEEEdeEv.part.0, address: 1403152, vaddr: 65536
Name: _ZNK8nlohmann16json_abi_v3_11_36detail9iter_implINS0_10basic_jsonINS0_11ordered_mapESt6vectorNSt7__cxx1112basic_stringIcSt11char_traitsIcESaIcEEEblmdSaNS0_14adl_serializerES5_IhSaIhEEvEEEeqISG_LDnEEEbRKT_.part.0, address: 1468768
	->Name: _ZNK8nlohmann16json_abi_v3_11_36detail9iter_implINS0_10basic_jsonINS0_11ordered_mapESt6vectorNSt7__cxx1112basic_stringIcSt11char_traitsIcESaIcEEEblmdSaNS0_14adl_serializerES5_IhSaIhEEvEEEeqISG_LDnEEEbRKT_.part.0, address: 1403232, vaddr: 65536
Name: _ZNK8nlohmann16json_abi_v3_11_36detail9iter_implIKNS0_10basic_jsonINS0_11ordered_mapESt6vectorNSt7__cxx1112basic_stringIcSt11char_traitsIcESaIcEEEblmdSaNS0_14adl_serializerES5_IhSaIhEEvEEEeqISH_LDnEEEbRKT_.part.0, address: 1468768
	->Name: _ZNK8nlohmann16json_abi_v3_11_36detail9iter_implIKNS0_10basic_jsonINS0_11ordered_mapESt6vectorNSt7__cxx1112basic_stringIcSt11char_traitsIcESaIcEEEblmdSaNS0_14adl_serializerES5_IhSaIhEEvEEEeqISH_LDnEEEbRKT_.part.0, address: 1403232, vaddr: 65536
Name: _ZNK8nlohmann16json_abi_v3_11_36detail21iteration_proxy_valueINS1_9iter_implIKNS0_10basic_jsonINS0_11ordered_mapESt6vectorNSt7__cxx1112basic_stringIcSt11char_traitsIcESaIcEEEblmdSaNS0_14adl_serializerES6_IhSaIhEEvEEEEE3keyEv.part.0, address: 1468848
	->Name: _ZNK8nlohmann16json_abi_v3_11_36detail21iteration_proxy_valueINS1_9iter_implIKNS0_10basic_jsonINS0_11ordered_mapESt6vectorNSt7__cxx1112basic_stringIcSt11char_traitsIcESaIcEEEblmdSaNS0_14adl_serializerES6_IhSaIhEEvEEEEE3keyEv.part.0, address: 1403312, vaddr: 65536
Name: _ZNKSt7__cxx1114regex_iteratorIN9__gnu_cxx17__normal_iteratorIPKcNS_12basic_stringIcSt11char_traitsIcESaIcEEEEEcNS_12regex_traitsIcEEEeqERKSD_.part.0, address: 1488208
	->Name: _ZNKSt7__cxx1114regex_iteratorIN9__gnu_cxx17__normal_iteratorIPKcNS_12basic_stringIcSt11char_traitsIcESaIcEEEEEcNS_12regex_traitsIcEEEeqERKSD_.part.0, address: 1422672, vaddr: 65536
Name: _ZNK8nlohmann16json_abi_v3_11_310basic_jsonINS0_11ordered_mapESt6vectorNSt7__cxx1112basic_stringIcSt11char_traitsIcESaIcEEEblmdSaNS0_14adl_serializerES3_IhSaIhEEvE16assert_invariantEb.constprop.0, address: 1468928
	->Name: _ZNK8nlohmann16json_abi_v3_11_310basic_jsonINS0_11ordered_mapESt6vectorNSt7__cxx1112basic_stringIcSt11char_traitsIcESaIcEEEblmdSaNS0_14adl_serializerES3_IhSaIhEEvE16assert_invariantEb.constprop.0, address: 1403392, vaddr: 65536
Name: _ZSt13__adjust_heapIN9__gnu_cxx17__normal_iteratorIPcSt6vectorIcSaIcEEEElcNS0_5__ops15_Iter_less_iterEEvT_T0_SA_T1_T2_.isra.0, address: 1469136
	->Name: _ZSt13__adjust_heapIN9__gnu_cxx17__normal_iteratorIPcSt6vectorIcSaIcEEEElcNS0_5__ops15_Iter_less_iterEEvT_T0_SA_T1_T2_.isra.0, address: 1403600, vaddr: 65536
Name: _ZSt16__introsort_loopIN9__gnu_cxx17__normal_iteratorIPcSt6vectorIcSaIcEEEElNS0_5__ops15_Iter_less_iterEEvT_S9_T0_T1_.isra.0, address: 1469424
	->Name: _ZSt16__introsort_loopIN9__gnu_cxx17__normal_iteratorIPcSt6vectorIcSaIcEEEElNS0_5__ops15_Iter_less_iterEEvT_S9_T0_T1_.isra.0, address: 1403888, vaddr: 65536
Name: _ZNSt6vectorINSt7__cxx119sub_matchIN9__gnu_cxx17__normal_iteratorIPKcNS0_12basic_stringIcSt11char_traitsIcESaIcEEEEEEESaISC_EEaSERKSE_.isra.0, address: 1469856
	->Name: _ZNSt6vectorINSt7__cxx119sub_matchIN9__gnu_cxx17__normal_iteratorIPKcNS0_12basic_stringIcSt11char_traitsIcESaIcEEEEEEESaISC_EEaSERKSE_.isra.0, address: 1404320, vaddr: 65536
Name: _ZNKSt7__cxx1112basic_stringIcSt11char_traitsIcESaIcEE7compareERKS4_.isra.0, address: 1470352
	->Name: _ZNKSt7__cxx1112basic_stringIcSt11char_traitsIcESaIcEE7compareERKS4_.isra.0, address: 1404816, vaddr: 65536
Name: _ZNSt17_Function_handlerIFNSt7__cxx1112basic_stringIcSt11char_traitsIcESaIcEEEibEZL16build_repetitionRKS5_iiS8_bEUlibE_E10_M_managerERSt9_Any_dataRKSB_St18_Manager_operation, address: 1470432
	->Name: _ZNSt17_Function_handlerIFNSt7__cxx1112basic_stringIcSt11char_traitsIcESaIcEEEibEZL16build_repetitionRKS5_iiS8_bEUlibE_E10_M_managerERSt9_Any_dataRKSB_St18_Manager_operation, address: 1404896, vaddr: 65536
Name: _ZN8nlohmann16json_abi_v3_11_36detail9iter_implIKNS0_10basic_jsonINS0_11ordered_mapESt6vectorNSt7__cxx1112basic_stringIcSt11char_traitsIcESaIcEEEblmdSaNS0_14adl_serializerES5_IhSaIhEEvEEEppEv.isra.0, address: 1489120
	->Name: _ZN8nlohmann16json_abi_v3_11_36detail9iter_implIKNS0_10basic_jsonINS0_11ordered_mapESt6vectorNSt7__cxx1112basic_stringIcSt11char_traitsIcESaIcEEEblmdSaNS0_14adl_serializerES5_IhSaIhEEvEEEppEv.isra.0, address: 1423584, vaddr: 65536
Name: _ZStplIcSt11char_traitsIcESaIcEENSt7__cxx1112basic_stringIT_T0_T1_EEOS8_RKS8_.isra.0, address: 1470592
	->Name: _ZStplIcSt11char_traitsIcESaIcEENSt7__cxx1112basic_stringIT_T0_T1_EEOS8_RKS8_.isra.0, address: 1405056, vaddr: 65536
Name: _ZNSt7__cxx1112basic_stringIcSt11char_traitsIcESaIcEEaSEOS4_.isra.0, address: 1470704
	->Name: _ZNSt7__cxx1112basic_stringIcSt11char_traitsIcESaIcEEaSEOS4_.isra.0, address: 1405168, vaddr: 65536
Name: _ZNKSt7__cxx1112regex_traitsIcE7isctypeEcNS1_10_RegexMaskE.isra.0, address: 1470912
	->Name: _ZNKSt7__cxx1112regex_traitsIcE7isctypeEcNS1_10_RegexMaskE.isra.0, address: 1405376, vaddr: 65536
Name: _ZNSt7__cxx1112basic_stringIcSt11char_traitsIcESaIcEE12_M_constructIPcEEvT_S7_St20forward_iterator_tag.constprop.0, address: 1471056
	->Name: _ZNSt7__cxx1112basic_stringIcSt11char_traitsIcESaIcEE12_M_constructIPcEEvT_S7_St20forward_iterator_tag.constprop.0, address: 1405520, vaddr: 65536
Name: _ZNSt7__cxx1112basic_stringIcSt11char_traitsIcESaIcEE12_M_constructIPKcEEvT_S8_St20forward_iterator_tag.isra.0, address: 1471264
	->Name: _ZNSt7__cxx1112basic_stringIcSt11char_traitsIcESaIcEE12_M_constructIPKcEEvT_S8_St20forward_iterator_tag.isra.0, address: 1405728, vaddr: 65536
Name: _ZNK8nlohmann16json_abi_v3_11_310basic_jsonINS0_11ordered_mapESt6vectorNSt7__cxx1112basic_stringIcSt11char_traitsIcESaIcEEEblmdSaNS0_14adl_serializerES3_IhSaIhEEvE8containsERKS9_.part.0.isra.0, address: 1471472
	->Name: _ZNK8nlohmann16json_abi_v3_11_310basic_jsonINS0_11ordered_mapESt6vectorNSt7__cxx1112basic_stringIcSt11char_traitsIcESaIcEEEblmdSaNS0_14adl_serializerES3_IhSaIhEEvE8containsERKS9_.part.0.isra.0, address: 1405936, vaddr: 65536
Name: _ZNSt17_Function_handlerIFNSt7__cxx1112basic_stringIcSt11char_traitsIcESaIcEEERKNS0_13match_resultsIN9__gnu_cxx17__normal_iteratorIPKcS5_EESaINS0_9sub_matchISB_EEEEEEZL14format_literalRKS5_EUlSH_E_E9_M_invokeERKSt9_Any_dataSH_, address: 1471584
	->Name: _ZNSt17_Function_handlerIFNSt7__cxx1112basic_stringIcSt11char_traitsIcESaIcEEERKNS0_13match_resultsIN9__gnu_cxx17__normal_iteratorIPKcS5_EESaINS0_9sub_matchISB_EEEEEEZL14format_literalRKS5_EUlSH_E_E9_M_invokeERKSt9_Any_dataSH_, address: 1406048, vaddr: 65536
Name: _ZNSt7__cxx1112basic_stringIcSt11char_traitsIcESaIcEEC2EPKcRKS3_.constprop.0, address: 1472000
	->Name: _ZNSt7__cxx1112basic_stringIcSt11char_traitsIcESaIcEEC2EPKcRKS3_.constprop.0, address: 1406464, vaddr: 65536
Name: _ZNSt8_Rb_treeINSt7__cxx1112basic_stringIcSt11char_traitsIcESaIcEEESt4pairIKS5_S5_ESt10_Select1stIS8_ESt4lessIS5_ESaIS8_EE8_M_eraseEPSt13_Rb_tree_nodeIS8_E.isra.0, address: 1472224
	->Name: _ZNSt8_Rb_treeINSt7__cxx1112basic_stringIcSt11char_traitsIcESaIcEEESt4pairIKS5_S5_ESt10_Select1stIS8_ESt4lessIS5_ESaIS8_EE8_M_eraseEPSt13_Rb_tree_nodeIS8_E.isra.0, address: 1406688, vaddr: 65536
Name: _ZL6repeatRKNSt7__cxx1112basic_stringIcSt11char_traitsIcESaIcEEEm, address: 1473168
	->Name: _ZL6repeatRKNSt7__cxx1112basic_stringIcSt11char_traitsIcESaIcEEEm, address: 1407632, vaddr: 65536
Name: _ZL6repeatRKNSt7__cxx1112basic_stringIcSt11char_traitsIcESaIcEEEm.cold, address: 158566
	->Name: _ZL6repeatRKNSt7__cxx1112basic_stringIcSt11char_traitsIcESaIcEEEm.cold, address: 93030, vaddr: 65536
Name: _ZN8nlohmann16json_abi_v3_11_310basic_jsonINS0_11ordered_mapESt6vectorNSt7__cxx1112basic_stringIcSt11char_traitsIcESaIcEEEblmdSaNS0_14adl_serializerES3_IhSaIhEEvEC2EDn.constprop.0, address: 1473392
	->Name: _ZN8nlohmann16json_abi_v3_11_310basic_jsonINS0_11ordered_mapESt6vectorNSt7__cxx1112basic_stringIcSt11char_traitsIcESaIcEEEblmdSaNS0_14adl_serializerES3_IhSaIhEEvEC2EDn.constprop.0, address: 1407856, vaddr: 65536
Name: _ZN8nlohmann16json_abi_v3_11_310basic_jsonINS0_11ordered_mapESt6vectorNSt7__cxx1112basic_stringIcSt11char_traitsIcESaIcEEEblmdSaNS0_14adl_serializerES3_IhSaIhEEvEaSESD_.isra.0, address: 1490128
	->Name: _ZN8nlohmann16json_abi_v3_11_310basic_jsonINS0_11ordered_mapESt6vectorNSt7__cxx1112basic_stringIcSt11char_traitsIcESaIcEEEblmdSaNS0_14adl_serializerES3_IhSaIhEEvEaSESD_.isra.0, address: 1424592, vaddr: 65536
Name: _ZZL16build_repetitionRKNSt7__cxx1112basic_stringIcSt11char_traitsIcESaIcEEEiiS6_bENKUlibE_clEib, address: 1473616
	->Name: _ZZL16build_repetitionRKNSt7__cxx1112basic_stringIcSt11char_traitsIcESaIcEEEiiS6_bENKUlibE_clEib, address: 1408080, vaddr: 65536
Name: _ZZL16build_repetitionRKNSt7__cxx1112basic_stringIcSt11char_traitsIcESaIcEEEiiS6_bENKUlibE_clEib.cold, address: 158596
	->Name: _ZZL16build_repetitionRKNSt7__cxx1112basic_stringIcSt11char_traitsIcESaIcEEEiiS6_bENKUlibE_clEib.cold, address: 93060, vaddr: 65536
Name: _ZNSt17_Function_handlerIFNSt7__cxx1112basic_stringIcSt11char_traitsIcESaIcEEEibEZL16build_repetitionRKS5_iiS8_bEUlibE_E9_M_invokeERKSt9_Any_dataOiOb, address: 1475120
	->Name: _ZNSt17_Function_handlerIFNSt7__cxx1112basic_stringIcSt11char_traitsIcESaIcEEEibEZL16build_repetitionRKS5_iiS8_bEUlibE_E9_M_invokeERKSt9_Any_dataOiOb, address: 1409584, vaddr: 65536
Name: _ZZN15SchemaConverter14_visit_patternERKNSt7__cxx1112basic_stringIcSt11char_traitsIcESaIcEEES7_ENKUlRKSt4pairIS5_bEE_clESB_.isra.0, address: 1475200
	->Name: _ZZN15SchemaConverter14_visit_patternERKNSt7__cxx1112basic_stringIcSt11char_traitsIcESaIcEEES7_ENKUlRKSt4pairIS5_bEE_clESB_.isra.0, address: 1409664, vaddr: 65536
Name: _ZZN15SchemaConverter14_visit_patternERKNSt7__cxx1112basic_stringIcSt11char_traitsIcESaIcEEES7_ENKUlRKSt4pairIS5_bEE_clESB_.isra.0.cold, address: 158922
	->Name: _ZZN15SchemaConverter14_visit_patternERKNSt7__cxx1112basic_stringIcSt11char_traitsIcESaIcEEES7_ENKUlRKSt4pairIS5_bEE_clESB_.isra.0.cold, address: 93386, vaddr: 65536
Name: _Z4joinIN9__gnu_cxx17__normal_iteratorIPNSt7__cxx1112basic_stringIcSt11char_traitsIcESaIcEEESt6vectorIS7_SaIS7_EEEEES7_T_SD_RKS7_, address: 1475568
	->Name: _Z4joinIN9__gnu_cxx17__normal_iteratorIPNSt7__cxx1112basic_stringIcSt11char_traitsIcESaIcEEESt6vectorIS7_SaIS7_EEEEES7_T_SD_RKS7_, address: 1410032, vaddr: 65536
Name: _Z4joinIN9__gnu_cxx17__normal_iteratorIPNSt7__cxx1112basic_stringIcSt11char_traitsIcESaIcEEESt6vectorIS7_SaIS7_EEEEES7_T_SD_RKS7_.cold, address: 158972
	->Name: _Z4joinIN9__gnu_cxx17__normal_iteratorIPNSt7__cxx1112basic_stringIcSt11char_traitsIcESaIcEEESt6vectorIS7_SaIS7_EEEEES7_T_SD_RKS7_.cold, address: 93436, vaddr: 65536
Name: _ZL16build_repetitionRKNSt7__cxx1112basic_stringIcSt11char_traitsIcESaIcEEEiiS6_b, address: 1476400
	->Name: _ZL16build_repetitionRKNSt7__cxx1112basic_stringIcSt11char_traitsIcESaIcEEEiiS6_b, address: 1410864, vaddr: 65536
Name: _ZL16build_repetitionRKNSt7__cxx1112basic_stringIcSt11char_traitsIcESaIcEEEiiS6_b.cold, address: 159082
	->Name: _ZL16build_repetitionRKNSt7__cxx1112basic_stringIcSt11char_traitsIcESaIcEEEiiS6_b.cold, address: 93546, vaddr: 65536
Name: _ZL5splitRKNSt7__cxx1112basic_stringIcSt11char_traitsIcESaIcEEES6_, address: 1478976
	->Name: _ZL5splitRKNSt7__cxx1112basic_stringIcSt11char_traitsIcESaIcEEES6_, address: 1413440, vaddr: 65536
Name: _ZL5splitRKNSt7__cxx1112basic_stringIcSt11char_traitsIcESaIcEEES6_.cold, address: 159706
	->Name: _ZL5splitRKNSt7__cxx1112basic_stringIcSt11char_traitsIcESaIcEEES6_.cold, address: 94170, vaddr: 65536
Name: _ZN8nlohmann16json_abi_v3_11_36detail10type_error6createIPKNS0_10basic_jsonINS0_11ordered_mapESt6vectorNSt7__cxx1112basic_stringIcSt11char_traitsIcESaIcEEEblmdSaNS0_14adl_serializerES6_IhSaIhEEvEELi0EEES2_iRKSC_T_.isra.0, address: 159774
	->Name: _ZN8nlohmann16json_abi_v3_11_36detail10type_error6createIPKNS0_10basic_jsonINS0_11ordered_mapESt6vectorNSt7__cxx1112basic_stringIcSt11char_traitsIcESaIcEEEblmdSaNS0_14adl_serializerES6_IhSaIhEEvEELi0EEES2_iRKSC_T_.isra.0, address: 94238, vaddr: 65536
Name: _ZZN8nlohmann16json_abi_v3_11_310basic_jsonINS0_11ordered_mapESt6vectorNSt7__cxx1112basic_stringIcSt11char_traitsIcESaIcEEEblmdSaNS0_14adl_serializerES3_IhSaIhEEvEC4ESt16initializer_listINS0_6detail8json_refISD_EEEbNSF_7value_tEENKUlRKSH_E_clESL_.constprop.0, address: 1510272
	->Name: _ZZN8nlohmann16json_abi_v3_11_310basic_jsonINS0_11ordered_mapESt6vectorNSt7__cxx1112basic_stringIcSt11char_traitsIcESaIcEEEblmdSaNS0_14adl_serializerES3_IhSaIhEEvEC4ESt16initializer_listINS0_6detail8json_refISD_EEEbNSF_7value_tEENKUlRKSH_E_clESL_.constprop.0, address: 1444736, vaddr: 65536
Name: _ZN8nlohmann16json_abi_v3_11_36detail16invalid_iterator6createIPKNS0_10basic_jsonINS0_11ordered_mapESt6vectorNSt7__cxx1112basic_stringIcSt11char_traitsIcESaIcEEEblmdSaNS0_14adl_serializerES6_IhSaIhEEvEELi0EEES2_iRKSC_T_.isra.0, address: 160161
	->Name: _ZN8nlohmann16json_abi_v3_11_36detail16invalid_iterator6createIPKNS0_10basic_jsonINS0_11ordered_mapESt6vectorNSt7__cxx1112basic_stringIcSt11char_traitsIcESaIcEEEblmdSaNS0_14adl_serializerES6_IhSaIhEEvEELi0EEES2_iRKSC_T_.isra.0, address: 94625, vaddr: 65536
Name: _ZN8nlohmann16json_abi_v3_11_36detail10type_error6createIDnLi0EEES2_iRKNSt7__cxx1112basic_stringIcSt11char_traitsIcESaIcEEET_.isra.0, address: 160604
	->Name: _ZN8nlohmann16json_abi_v3_11_36detail10type_error6createIDnLi0EEES2_iRKNSt7__cxx1112basic_stringIcSt11char_traitsIcESaIcEEET_.isra.0, address: 95068, vaddr: 65536
Name: _ZN8nlohmann16json_abi_v3_11_36detail10type_error6createIPNS0_10basic_jsonINS0_11ordered_mapESt6vectorNSt7__cxx1112basic_stringIcSt11char_traitsIcESaIcEEEblmdSaNS0_14adl_serializerES6_IhSaIhEEvEELi0EEES2_iRKSC_T_.isra.0, address: 160991
	->Name: _ZN8nlohmann16json_abi_v3_11_36detail10type_error6createIPNS0_10basic_jsonINS0_11ordered_mapESt6vectorNSt7__cxx1112basic_stringIcSt11char_traitsIcESaIcEEEblmdSaNS0_14adl_serializerES6_IhSaIhEEvEELi0EEES2_iRKSC_T_.isra.0, address: 95455, vaddr: 65536
Name: _ZN8nlohmann16json_abi_v3_11_36detail16invalid_iterator6createIPNS0_10basic_jsonINS0_11ordered_mapESt6vectorNSt7__cxx1112basic_stringIcSt11char_traitsIcESaIcEEEblmdSaNS0_14adl_serializerES6_IhSaIhEEvEELi0EEES2_iRKSC_T_.isra.0, address: 161378
	->Name: _ZN8nlohmann16json_abi_v3_11_36detail16invalid_iterator6createIPNS0_10basic_jsonINS0_11ordered_mapESt6vectorNSt7__cxx1112basic_stringIcSt11char_traitsIcESaIcEEEblmdSaNS0_14adl_serializerES6_IhSaIhEEvEELi0EEES2_iRKSC_T_.isra.0, address: 95842, vaddr: 65536
Name: _ZNSt8_Rb_treeINSt7__cxx1112basic_stringIcSt11char_traitsIcESaIcEEESt4pairIKS5_S5_ESt10_Select1stIS8_ESt4lessIS5_ESaIS8_EE22_M_emplace_hint_uniqueIJRKSt21piecewise_construct_tSt5tupleIJOS5_EESJ_IJEEEEESt17_Rb_tree_iteratorIS8_ESt23_Rb_tree_const_iteratorIS8_EDpOT_.isra.0, address: 1479920
	->Name: _ZNSt8_Rb_treeINSt7__cxx1112basic_stringIcSt11char_traitsIcESaIcEEESt4pairIKS5_S5_ESt10_Select1stIS8_ESt4lessIS5_ESaIS8_EE22_M_emplace_hint_uniqueIJRKSt21piecewise_construct_tSt5tupleIJOS5_EESJ_IJEEEEESt17_Rb_tree_iteratorIS8_ESt23_Rb_tree_const_iteratorIS8_EDpOT_.isra.0, address: 1414384, vaddr: 65536
Name: _ZNSt8_Rb_treeINSt7__cxx1112basic_stringIcSt11char_traitsIcESaIcEEESt4pairIKS5_S5_ESt10_Select1stIS8_ESt4lessIS5_ESaIS8_EE22_M_emplace_hint_uniqueIJRKSt21piecewise_construct_tSt5tupleIJRS7_EESJ_IJEEEEESt17_Rb_tree_iteratorIS8_ESt23_Rb_tree_const_iteratorIS8_EDpOT_.isra.0, address: 1513504
	->Name: _ZNSt8_Rb_treeINSt7__cxx1112basic_stringIcSt11char_traitsIcESaIcEEESt4pairIKS5_S5_ESt10_Select1stIS8_ESt4lessIS5_ESaIS8_EE22_M_emplace_hint_uniqueIJRKSt21piecewise_construct_tSt5tupleIJRS7_EESJ_IJEEEEESt17_Rb_tree_iteratorIS8_ESt23_Rb_tree_const_iteratorIS8_EDpOT_.isra.0, address: 1447968, vaddr: 65536
Name: _ZNSt10_HashtableINSt7__cxx1112basic_stringIcSt11char_traitsIcESaIcEEES5_SaIS5_ENSt8__detail9_IdentityESt8equal_toIS5_ESt4hashIS5_ENS7_18_Mod_range_hashingENS7_20_Default_ranged_hashENS7_20_Prime_rehash_policyENS7_17_Hashtable_traitsILb1ELb1ELb1EEEE9_M_insertIRKS5_NS7_10_AllocNodeISaINS7_10_Hash_nodeIS5_Lb1EEEEEEEESt4pairINS7_14_Node_iteratorIS5_Lb1ELb1EEEbEOT_RKT0_St17integral_constantIbLb1EE.isra.0, address: 1480256
	->Name: _ZNSt10_HashtableINSt7__cxx1112basic_stringIcSt11char_traitsIcESaIcEEES5_SaIS5_ENSt8__detail9_IdentityESt8equal_toIS5_ESt4hashIS5_ENS7_18_Mod_range_hashingENS7_20_Default_ranged_hashENS7_20_Prime_rehash_policyENS7_17_Hashtable_traitsILb1ELb1ELb1EEEE9_M_insertIRKS5_NS7_10_AllocNodeISaINS7_10_Hash_nodeIS5_Lb1EEEEEEEESt4pairINS7_14_Node_iteratorIS5_Lb1ELb1EEEbEOT_RKT0_St17integral_constantIbLb1EE.isra.0, address: 1414720, vaddr: 65536
Name: _ZNSt10_HashtableINSt7__cxx1112basic_stringIcSt11char_traitsIcESaIcEEES5_SaIS5_ENSt8__detail9_IdentityESt8equal_toIS5_ESt4hashIS5_ENS7_18_Mod_range_hashingENS7_20_Default_ranged_hashENS7_20_Prime_rehash_policyENS7_17_Hashtable_traitsILb1ELb1ELb1EEEE9_M_insertIRKS5_NS7_10_AllocNodeISaINS7_10_Hash_nodeIS5_Lb1EEEEEEEESt4pairINS7_14_Node_iteratorIS5_Lb1ELb1EEEbEOT_RKT0_St17integral_constantIbLb1EE.isra.0.cold, address: 161822
	->Name: _ZNSt10_HashtableINSt7__cxx1112basic_stringIcSt11char_traitsIcESaIcEEES5_SaIS5_ENSt8__detail9_IdentityESt8equal_toIS5_ESt4hashIS5_ENS7_18_Mod_range_hashingENS7_20_Default_ranged_hashENS7_20_Prime_rehash_policyENS7_17_Hashtable_traitsILb1ELb1ELb1EEEE9_M_insertIRKS5_NS7_10_AllocNodeISaINS7_10_Hash_nodeIS5_Lb1EEEEEEEESt4pairINS7_14_Node_iteratorIS5_Lb1ELb1EEEbEOT_RKT0_St17integral_constantIbLb1EE.isra.0.cold, address: 96286, vaddr: 65536
Name: _ZNSt10_HashtableINSt7__cxx1112basic_stringIcSt11char_traitsIcESaIcEEES5_SaIS5_ENSt8__detail9_IdentityESt8equal_toIS5_ESt4hashIS5_ENS7_18_Mod_range_hashingENS7_20_Default_ranged_hashENS7_20_Prime_rehash_policyENS7_17_Hashtable_traitsILb1ELb1ELb1EEEE9_M_insertIS5_NS7_10_AllocNodeISaINS7_10_Hash_nodeIS5_Lb1EEEEEEEESt4pairINS7_14_Node_iteratorIS5_Lb1ELb1EEEbEOT_RKT0_St17integral_constantIbLb1EE.isra.0, address: 1524720
	->Name: _ZNSt10_HashtableINSt7__cxx1112basic_stringIcSt11char_traitsIcESaIcEEES5_SaIS5_ENSt8__detail9_IdentityESt8equal_toIS5_ESt4hashIS5_ENS7_18_Mod_range_hashingENS7_20_Default_ranged_hashENS7_20_Prime_rehash_policyENS7_17_Hashtable_traitsILb1ELb1ELb1EEEE9_M_insertIS5_NS7_10_AllocNodeISaINS7_10_Hash_nodeIS5_Lb1EEEEEEEESt4pairINS7_14_Node_iteratorIS5_Lb1ELb1EEEbEOT_RKT0_St17integral_constantIbLb1EE.isra.0, address: 1459184, vaddr: 65536
Name: _ZNKSt7__cxx1112regex_traitsIcE5valueEci.isra.0, address: 1480608
	->Name: _ZNKSt7__cxx1112regex_traitsIcE5valueEci.isra.0, address: 1415072, vaddr: 65536
Name: _ZNKSt7__cxx1112regex_traitsIcE5valueEci.isra.0.cold, address: 161888
	->Name: _ZNKSt7__cxx1112regex_traitsIcE5valueEci.isra.0.cold, address: 96352, vaddr: 65536
Name: _ZNSt17_Function_handlerIFN8nlohmann16json_abi_v3_11_310basic_jsonINS1_11ordered_mapESt6vectorNSt7__cxx1112basic_stringIcSt11char_traitsIcESaIcEEEblmdSaNS1_14adl_serializerES4_IhSaIhEEvEERKSA_EZ22json_schema_to_grammarRKSE_EUlSG_E_E9_M_invokeERKSt9_Any_dataSG_, address: 1481712
	->Name: _ZNSt17_Function_handlerIFN8nlohmann16json_abi_v3_11_310basic_jsonINS1_11ordered_mapESt6vectorNSt7__cxx1112basic_stringIcSt11char_traitsIcESaIcEEEblmdSaNS1_14adl_serializerES4_IhSaIhEEvEERKSA_EZ22json_schema_to_grammarRKSE_EUlSG_E_E9_M_invokeERKSt9_Any_dataSG_, address: 1416176, vaddr: 65536
Name: _ZNK8nlohmann16json_abi_v3_11_310basic_jsonINS0_11ordered_mapESt6vectorNSt7__cxx1112basic_stringIcSt11char_traitsIcESaIcEEEblmdSaNS0_14adl_serializerES3_IhSaIhEEvE8get_implIS9_Li0EEET_NS0_6detail12priority_tagILj0EEE.isra.0, address: 1481744
	->Name: _ZNK8nlohmann16json_abi_v3_11_310basic_jsonINS0_11ordered_mapESt6vectorNSt7__cxx1112basic_stringIcSt11char_traitsIcESaIcEEEblmdSaNS0_14adl_serializerES3_IhSaIhEEvE8get_implIS9_Li0EEET_NS0_6detail12priority_tagILj0EEE.isra.0, address: 1416208, vaddr: 65536
Name: _ZNK8nlohmann16json_abi_v3_11_310basic_jsonINS0_11ordered_mapESt6vectorNSt7__cxx1112basic_stringIcSt11char_traitsIcESaIcEEEblmdSaNS0_14adl_serializerES3_IhSaIhEEvE8get_implIS9_Li0EEET_NS0_6detail12priority_tagILj0EEE.isra.0.cold, address: 162060
	->Name: _ZNK8nlohmann16json_abi_v3_11_310basic_jsonINS0_11ordered_mapESt6vectorNSt7__cxx1112basic_stringIcSt11char_traitsIcESaIcEEEblmdSaNS0_14adl_serializerES3_IhSaIhEEvE8get_implIS9_Li0EEET_NS0_6detail12priority_tagILj0EEE.isra.0.cold, address: 96524, vaddr: 65536
Name: _ZNSt8__detail9_ExecutorIN9__gnu_cxx17__normal_iteratorIPKcNSt7__cxx1112basic_stringIcSt11char_traitsIcESaIcEEEEESaINS5_9sub_matchISB_EEENS5_12regex_traitsIcEELb0EE16_M_main_dispatchENSH_11_Match_modeESt17integral_constantIbLb0EE.constprop.0, address: 1481872
	->Name: _ZNSt8__detail9_ExecutorIN9__gnu_cxx17__normal_iteratorIPKcNSt7__cxx1112basic_stringIcSt11char_traitsIcESaIcEEEEESaINS5_9sub_matchISB_EEENS5_12regex_traitsIcEELb0EE16_M_main_dispatchENSH_11_Match_modeESt17integral_constantIbLb0EE.constprop.0, address: 1416336, vaddr: 65536
Name: _ZNSt8__detail9_ExecutorIN9__gnu_cxx17__normal_iteratorIPKcNSt7__cxx1112basic_stringIcSt11char_traitsIcESaIcEEEEESaINS5_9sub_matchISB_EEENS5_12regex_traitsIcEELb0EE16_M_main_dispatchENSH_11_Match_modeESt17integral_constantIbLb0EE.constprop.0.cold, address: 162368
	->Name: _ZNSt8__detail9_ExecutorIN9__gnu_cxx17__normal_iteratorIPKcNSt7__cxx1112basic_stringIcSt11char_traitsIcESaIcEEEEESaINS5_9sub_matchISB_EEENS5_12regex_traitsIcEELb0EE16_M_main_dispatchENSH_11_Match_modeESt17integral_constantIbLb0EE.constprop.0.cold, address: 96832, vaddr: 65536
Name: _ZL14format_literalRKNSt7__cxx1112basic_stringIcSt11char_traitsIcESaIcEEE, address: 1484128
	->Name: _ZL14format_literalRKNSt7__cxx1112basic_stringIcSt11char_traitsIcESaIcEEE, address: 1418592, vaddr: 65536
Name: _ZL14format_literalRKNSt7__cxx1112basic_stringIcSt11char_traitsIcESaIcEEE.cold, address: 162414
	->Name: _ZL14format_literalRKNSt7__cxx1112basic_stringIcSt11char_traitsIcESaIcEEE.cold, address: 96878, vaddr: 65536
Name: _Z22json_schema_to_grammarRKN8nlohmann16json_abi_v3_11_310basic_jsonINS0_11ordered_mapESt6vectorNSt7__cxx1112basic_stringIcSt11char_traitsIcESaIcEEEblmdSaNS0_14adl_serializerES3_IhSaIhEEvEE.cold, address: 162579
	->Name: _Z22json_schema_to_grammarRKN8nlohmann16json_abi_v3_11_310basic_jsonINS0_11ordered_mapESt6vectorNSt7__cxx1112basic_stringIcSt11char_traitsIcESaIcEEEblmdSaNS0_14adl_serializerES3_IhSaIhEEvEE.cold, address: 97043, vaddr: 65536
Name: _Z41__static_initialization_and_destruction_0ii.constprop.0, address: 191280
	->Name: _Z41__static_initialization_and_destruction_0ii.constprop.0, address: 125744, vaddr: 65536
Name: _Z41__static_initialization_and_destruction_0ii.constprop.0.cold, address: 163543
	->Name: _Z41__static_initialization_and_destruction_0ii.constprop.0.cold, address: 98007, vaddr: 65536
Name: _GLOBAL__sub_I_json_schema_to_grammar.cpp, address: 195376
	->Name: _GLOBAL__sub_I_json_schema_to_grammar.cpp, address: 129840, vaddr: 65536
Name: _ZN7console8readlineERNSt7__cxx1112basic_stringIcSt11char_traitsIcESaIcEEEb.cold, address: 164467
	->Name: _ZN7console8readlineERNSt7__cxx1112basic_stringIcSt11char_traitsIcESaIcEEEb.cold, address: 98931, vaddr: 65536
Name: _GLOBAL__sub_I_console.cpp, address: 195392
	->Name: _GLOBAL__sub_I_console.cpp, address: 129856, vaddr: 65536
Name: _ZL33ggml_backend_cuda_buffer_get_nameP19ggml_backend_buffer, address: 1670672
	->Name: _ZL33ggml_backend_cuda_buffer_get_nameP19ggml_backend_buffer, address: 1605136, vaddr: 65536
Name: _ZL33ggml_backend_cuda_buffer_get_baseP19ggml_backend_buffer, address: 1670688
	->Name: _ZL33ggml_backend_cuda_buffer_get_baseP19ggml_backend_buffer, address: 1605152, vaddr: 65536
Name: _ZL34ggml_backend_cuda_buffer_type_nameP24ggml_backend_buffer_type, address: 1670704
	->Name: _ZL34ggml_backend_cuda_buffer_type_nameP24ggml_backend_buffer_type, address: 1605168, vaddr: 65536
Name: _ZL43ggml_backend_cuda_buffer_type_get_alignmentP24ggml_backend_buffer_type, address: 1670720
	->Name: _ZL43ggml_backend_cuda_buffer_type_get_alignmentP24ggml_backend_buffer_type, address: 1605184, vaddr: 65536
Name: _ZL39ggml_backend_cuda_split_buffer_get_nameP19ggml_backend_buffer, address: 1670736
	->Name: _ZL39ggml_backend_cuda_split_buffer_get_nameP19ggml_backend_buffer, address: 1605200, vaddr: 65536
Name: _ZL39ggml_backend_cuda_split_buffer_get_baseP19ggml_backend_buffer, address: 1670752
	->Name: _ZL39ggml_backend_cuda_split_buffer_get_baseP19ggml_backend_buffer, address: 1605216, vaddr: 65536
Name: _ZL36ggml_backend_cuda_split_buffer_clearP19ggml_backend_bufferh, address: 1670768
	->Name: _ZL36ggml_backend_cuda_split_buffer_clearP19ggml_backend_bufferh, address: 1605232, vaddr: 65536
Name: _ZL43ggml_backend_cuda_split_buffer_type_is_hostP24ggml_backend_buffer_type, address: 1670784
	->Name: _ZL43ggml_backend_cuda_split_buffer_type_is_hostP24ggml_backend_buffer_type, address: 1605248, vaddr: 65536
Name: _ZL39ggml_backend_cuda_host_buffer_type_nameP24ggml_backend_buffer_type, address: 1670800
	->Name: _ZL39ggml_backend_cuda_host_buffer_type_nameP24ggml_backend_buffer_type, address: 1605264, vaddr: 65536
Name: _ZL22ggml_backend_cuda_nameP12ggml_backend, address: 1670816
	->Name: _ZL22ggml_backend_cuda_nameP12ggml_backend, address: 1605280, vaddr: 65536
Name: _ZL28ggml_backend_cuda_offload_opP12ggml_backendPK11ggml_tensor, address: 1670832
	->Name: _ZL28ggml_backend_cuda_offload_opP12ggml_backendPK11ggml_tensor, address: 1605296, vaddr: 65536
Name: _ZL44ggml_backend_cuda_buffer_type_get_alloc_sizeP24ggml_backend_buffer_typePK11ggml_tensor, address: 1670896
	->Name: _ZL44ggml_backend_cuda_buffer_type_get_alloc_sizeP24ggml_backend_buffer_typePK11ggml_tensor, address: 1605360, vaddr: 65536
Name: _ZL48ggml_backend_cuda_split_buffer_type_alloc_bufferP24ggml_backend_buffer_typem, address: 1671024
	->Name: _ZL48ggml_backend_cuda_split_buffer_type_alloc_bufferP24ggml_backend_buffer_typem, address: 1605488, vaddr: 65536
Name: _ZL23ggml_cuda_cpy_tensor_2dPvPK11ggml_tensorllllP11CUstream_st, address: 1671168
	->Name: _ZL23ggml_cuda_cpy_tensor_2dPvPK11ggml_tensorllllP11CUstream_st, address: 1605632, vaddr: 65536
Name: _ZL26__cudaUnregisterBinaryUtilv, address: 1671728
	->Name: _ZL26__cudaUnregisterBinaryUtilv, address: 1606192, vaddr: 65536
Name: _ZL47ggml_backend_cuda_host_buffer_type_alloc_bufferP24ggml_backend_buffer_typem, address: 1671744
	->Name: _ZL47ggml_backend_cuda_host_buffer_type_alloc_bufferP24ggml_backend_buffer_typem, address: 1606208, vaddr: 65536
Name: _ZL41ggml_backend_cuda_host_buffer_free_bufferP19ggml_backend_buffer, address: 1674928
	->Name: _ZL41ggml_backend_cuda_host_buffer_free_bufferP19ggml_backend_buffer, address: 1609392, vaddr: 65536
Name: _ZL34ggml_backend_cuda_host_buffer_nameP19ggml_backend_buffer, address: 1672176
	->Name: _ZL34ggml_backend_cuda_host_buffer_nameP19ggml_backend_buffer, address: 1606640, vaddr: 65536
Name: _ZN20ggml_cuda_pool_allocI6__halfE5allocEm.part.0, address: 1672096
	->Name: _ZN20ggml_cuda_pool_allocI6__halfE5allocEm.part.0, address: 1606560, vaddr: 65536
Name: _ZN20ggml_cuda_pool_allocIfE5allocEm.part.0, address: 1672096
	->Name: _ZN20ggml_cuda_pool_allocIfE5allocEm.part.0, address: 1606560, vaddr: 65536
Name: _ZN20ggml_cuda_pool_allocIcE5allocEm.part.0, address: 1672096
	->Name: _ZN20ggml_cuda_pool_allocIcE5allocEm.part.0, address: 1606560, vaddr: 65536
Name: _ZL40ggml_backend_cuda_split_buffer_type_nameP24ggml_backend_buffer_type, address: 1672192
	->Name: _ZL40ggml_backend_cuda_split_buffer_type_nameP24ggml_backend_buffer_type, address: 1606656, vaddr: 65536
Name: _ZL49ggml_backend_cuda_split_buffer_type_get_alignmentP24ggml_backend_buffer_type, address: 1672208
	->Name: _ZL49ggml_backend_cuda_split_buffer_type_get_alignmentP24ggml_backend_buffer_type, address: 1606672, vaddr: 65536
Name: _ZL22k_compute_batched_ptrsPK6__halfS1_PcPPKvPPvlllmmmmmmll, address: 1672224
	->Name: _ZL22k_compute_batched_ptrsPK6__halfS1_PcPPKvPPvlllmmmmmmll, address: 1606688, vaddr: 65536
Name: _ZL25k_copy_src1_to_contiguousPKcPcPiP16mmid_row_mappingS0_lmmllmm, address: 1672864
	->Name: _ZL25k_copy_src1_to_contiguousPKcPcPiP16mmid_row_mappingS0_lmmllmm, address: 1607328, vaddr: 65536
Name: _ZNSt8_Rb_treeISt5arrayIfLm16EESt4pairIKS1_24ggml_backend_buffer_typeESt10_Select1stIS5_ESt4lessIS1_ESaIS5_EE8_M_eraseEPSt13_Rb_tree_nodeIS5_E.isra.0, address: 1722112
	->Name: _ZNSt8_Rb_treeISt5arrayIfLm16EESt4pairIKS1_24ggml_backend_buffer_typeESt10_Select1stIS5_ESt4lessIS1_ESaIS5_EE8_M_eraseEPSt13_Rb_tree_nodeIS5_E.isra.0, address: 1656576, vaddr: 65536
Name: _ZL22mul_mat_vec_nc_f16_f32PKvPKfPfiiiii, address: 1673376
	->Name: _ZL22mul_mat_vec_nc_f16_f32PKvPKfPfiiiii, address: 1607840, vaddr: 65536
Name: _ZL20mul_mat_p021_f16_f32PKvPKfPfiiii, address: 1673728
	->Name: _ZL20mul_mat_p021_f16_f32PKvPKfPfiiii, address: 1608192, vaddr: 65536
Name: _ZL26k_copy_dst_from_contiguousPcPKcPK16mmid_row_mappinglmm, address: 1674048
	->Name: _ZL26k_copy_dst_from_contiguousPcPKcPK16mmid_row_mappinglmm, address: 1608512, vaddr: 65536
Name: _ZL35ggml_backend_cuda_buffer_cpy_tensorP19ggml_backend_bufferPK11ggml_tensorPS1_, address: 1674592
	->Name: _ZL35ggml_backend_cuda_buffer_cpy_tensorP19ggml_backend_bufferPK11ggml_tensorPS1_, address: 1609056, vaddr: 65536
Name: _ZL35ggml_backend_cuda_event_synchronizeP18ggml_backend_event, address: 1675008
	->Name: _ZL35ggml_backend_cuda_event_synchronizeP18ggml_backend_event, address: 1609472, vaddr: 65536
Name: _ZL28ggml_backend_cuda_event_freeP18ggml_backend_event, address: 1675088
	->Name: _ZL28ggml_backend_cuda_event_freeP18ggml_backend_event, address: 1609552, vaddr: 65536
Name: _ZL14ggml_cuda_initv, address: 1675168
	->Name: _ZL14ggml_cuda_initv, address: 1609632, vaddr: 65536
Name: _ZL42ggml_backend_cuda_split_buffer_free_bufferP19ggml_backend_buffer, address: 1676336
	->Name: _ZL42ggml_backend_cuda_split_buffer_free_bufferP19ggml_backend_buffer, address: 1610800, vaddr: 65536
Name: _ZL36ggml_backend_cuda_buffer_free_bufferP19ggml_backend_buffer, address: 1676656
	->Name: _ZL36ggml_backend_cuda_buffer_free_bufferP19ggml_backend_buffer, address: 1611120, vaddr: 65536
Name: _ZL22ggml_backend_cuda_freeP12ggml_backend, address: 1676768
	->Name: _ZL22ggml_backend_cuda_freeP12ggml_backend, address: 1611232, vaddr: 65536
Name: _ZL30ggml_backend_cuda_buffer_clearP19ggml_backend_bufferh, address: 1677552
	->Name: _ZL30ggml_backend_cuda_buffer_clearP19ggml_backend_bufferh, address: 1612016, vaddr: 65536
Name: _ZL35ggml_backend_cuda_buffer_get_tensorP19ggml_backend_bufferPK11ggml_tensorPvmm, address: 1677760
	->Name: _ZL35ggml_backend_cuda_buffer_get_tensorP19ggml_backend_bufferPK11ggml_tensorPvmm, address: 1612224, vaddr: 65536
Name: _ZL35ggml_backend_cuda_buffer_set_tensorP19ggml_backend_bufferP11ggml_tensorPKvmm, address: 1677952
	->Name: _ZL35ggml_backend_cuda_buffer_set_tensorP19ggml_backend_bufferP11ggml_tensorPKvmm, address: 1612416, vaddr: 65536
Name: _ZL36ggml_backend_cuda_buffer_init_tensorP19ggml_backend_bufferP11ggml_tensor, address: 1678144
	->Name: _ZL36ggml_backend_cuda_buffer_init_tensorP19ggml_backend_bufferP11ggml_tensor, address: 1612608, vaddr: 65536
Name: _ZL27ggml_backend_cuda_event_newP12ggml_backend, address: 1678336
	->Name: _ZL27ggml_backend_cuda_event_newP12ggml_backend, address: 1612800, vaddr: 65536
Name: _ZL42ggml_backend_cuda_buffer_type_alloc_bufferP24ggml_backend_buffer_typem, address: 1678496
	->Name: _ZL42ggml_backend_cuda_buffer_type_alloc_bufferP24ggml_backend_buffer_typem, address: 1612960, vaddr: 65536
Name: _ZL42ggml_backend_cuda_buffer_type_alloc_bufferP24ggml_backend_buffer_typem.cold, address: 164498
	->Name: _ZL42ggml_backend_cuda_buffer_type_alloc_bufferP24ggml_backend_buffer_typem.cold, address: 98962, vaddr: 65536
Name: _ZL29ggml_backend_cuda_synchronizeP12ggml_backend, address: 1679760
	->Name: _ZL29ggml_backend_cuda_synchronizeP12ggml_backend, address: 1614224, vaddr: 65536
Name: _ZL30ggml_backend_cuda_event_recordP18ggml_backend_event, address: 1679952
	->Name: _ZL30ggml_backend_cuda_event_recordP18ggml_backend_event, address: 1614416, vaddr: 65536
Name: _Z14ggml_cuda_infov.cold, address: 164522
	->Name: _Z14ggml_cuda_infov.cold, address: 98986, vaddr: 65536
Name: _ZL29ggml_backend_cuda_supports_opP12ggml_backendPK11ggml_tensor, address: 1680400
	->Name: _ZL29ggml_backend_cuda_supports_opP12ggml_backendPK11ggml_tensor, address: 1614864, vaddr: 65536
Name: _ZN25ggml_backend_cuda_context19new_pool_for_deviceEi.cold, address: 164538
	->Name: _ZN25ggml_backend_cuda_context19new_pool_for_deviceEi.cold, address: 99002, vaddr: 65536
Name: _ZL32ggml_cuda_mul_mat_batched_cublasR25ggml_backend_cuda_contextPK11ggml_tensorS3_PS1_, address: 1681104
	->Name: _ZL32ggml_cuda_mul_mat_batched_cublasR25ggml_backend_cuda_contextPK11ggml_tensorS3_PS1_, address: 1615568, vaddr: 65536
Name: _ZL32ggml_cuda_mul_mat_batched_cublasR25ggml_backend_cuda_contextPK11ggml_tensorS3_PS1_.cold, address: 164554
	->Name: _ZL32ggml_cuda_mul_mat_batched_cublasR25ggml_backend_cuda_contextPK11ggml_tensorS3_PS1_.cold, address: 99018, vaddr: 65536
Name: _ZL27ggml_cuda_op_mul_mat_cublasR25ggml_backend_cuda_contextPK11ggml_tensorS3_PS1_PKcPKfS6_PfllllP11CUstream_st, address: 1685792
	->Name: _ZL27ggml_cuda_op_mul_mat_cublasR25ggml_backend_cuda_contextPK11ggml_tensorS3_PS1_PKcPKfS6_PfllllP11CUstream_st, address: 1620256, vaddr: 65536
Name: _ZL27ggml_cuda_op_mul_mat_cublasR25ggml_backend_cuda_contextPK11ggml_tensorS3_PS1_PKcPKfS6_PfllllP11CUstream_st.cold, address: 164690
	->Name: _ZL27ggml_cuda_op_mul_mat_cublasR25ggml_backend_cuda_contextPK11ggml_tensorS3_PS1_PKcPKfS6_PfllllP11CUstream_st.cold, address: 99154, vaddr: 65536
Name: ggml_backend_cuda_host_buffer_type.cold, address: 164839
	->Name: ggml_backend_cuda_host_buffer_type.cold, address: 99303, vaddr: 65536
Name: _ZL46ggml_backend_cuda_buffer_type_supports_backendP24ggml_backend_buffer_typeP12ggml_backend, address: 1689808
	->Name: _ZL46ggml_backend_cuda_buffer_type_supports_backendP24ggml_backend_buffer_typeP12ggml_backend, address: 1624272, vaddr: 65536
Name: _ZL52ggml_backend_cuda_split_buffer_type_supports_backendP24ggml_backend_buffer_typeP12ggml_backend, address: 1689872
	->Name: _ZL52ggml_backend_cuda_split_buffer_type_supports_backendP24ggml_backend_buffer_typeP12ggml_backend, address: 1624336, vaddr: 65536
Name: _ZL28ggml_backend_cuda_event_waitP12ggml_backendP18ggml_backend_event, address: 1689888
	->Name: _ZL28ggml_backend_cuda_event_waitP12ggml_backendP18ggml_backend_event, address: 1624352, vaddr: 65536
Name: _ZL34ggml_backend_cuda_cpy_tensor_asyncP12ggml_backendS0_PK11ggml_tensorPS1_, address: 1690176
	->Name: _ZL34ggml_backend_cuda_cpy_tensor_asyncP12ggml_backendS0_PK11ggml_tensorPS1_, address: 1624640, vaddr: 65536
Name: _ZL16get_row_rounding9ggml_typeRKSt5arrayIfLm16EE, address: 1691472
	->Name: _ZL16get_row_rounding9ggml_typeRKSt5arrayIfLm16EE, address: 1625936, vaddr: 65536
Name: _ZL41ggml_backend_cuda_split_buffer_set_tensorP19ggml_backend_bufferP11ggml_tensorPKvmm, address: 1691904
	->Name: _ZL41ggml_backend_cuda_split_buffer_set_tensorP19ggml_backend_bufferP11ggml_tensorPKvmm, address: 1626368, vaddr: 65536
Name: ggml_backend_cuda_buffer_type.cold, address: 164855
	->Name: ggml_backend_cuda_buffer_type.cold, address: 99319, vaddr: 65536
Name: _ZL34ggml_backend_cuda_get_tensor_asyncP12ggml_backendPK11ggml_tensorPvmm, address: 1693296
	->Name: _ZL34ggml_backend_cuda_get_tensor_asyncP12ggml_backendPK11ggml_tensorPvmm, address: 1627760, vaddr: 65536
Name: _ZL34ggml_backend_cuda_set_tensor_asyncP12ggml_backendP11ggml_tensorPKvmm, address: 1693664
	->Name: _ZL34ggml_backend_cuda_set_tensor_asyncP12ggml_backendP11ggml_tensorPKvmm, address: 1628128, vaddr: 65536
Name: _ZL41ggml_backend_cuda_get_default_buffer_typeP12ggml_backend, address: 1694032
	->Name: _ZL41ggml_backend_cuda_get_default_buffer_typeP12ggml_backend, address: 1628496, vaddr: 65536
Name: ggml_backend_cuda_init.cold, address: 164891
	->Name: ggml_backend_cuda_init.cold, address: 99355, vaddr: 65536
Name: _ZL26ggml_backend_reg_cuda_initPKcPv, address: 1695200
	->Name: _ZL26ggml_backend_reg_cuda_initPKcPv, address: 1629664, vaddr: 65536
Name: _ZL20ggml_cuda_op_mul_matR25ggml_backend_cuda_contextPK11ggml_tensorS3_PS1_PFvS0_S3_S3_S4_PKcPKfS6_PfllllP11CUstream_stEb, address: 1695216
	->Name: _ZL20ggml_cuda_op_mul_matR25ggml_backend_cuda_contextPK11ggml_tensorS3_PS1_PFvS0_S3_S3_S4_PKcPKfS6_PfllllP11CUstream_stEb, address: 1629680, vaddr: 65536
Name: _ZL20ggml_cuda_op_mul_matR25ggml_backend_cuda_contextPK11ggml_tensorS3_PS1_PFvS0_S3_S3_S4_PKcPKfS6_PfllllP11CUstream_stEb.cold, address: 164915
	->Name: _ZL20ggml_cuda_op_mul_matR25ggml_backend_cuda_contextPK11ggml_tensorS3_PS1_PFvS0_S3_S3_S4_PKcPKfS6_PfllllP11CUstream_stEb.cold, address: 99379, vaddr: 65536
Name: _ZL17ggml_cuda_mul_matR25ggml_backend_cuda_contextPK11ggml_tensorS3_PS1_, address: 1703712
	->Name: _ZL17ggml_cuda_mul_matR25ggml_backend_cuda_contextPK11ggml_tensorS3_PS1_, address: 1638176, vaddr: 65536
Name: _ZL20ggml_cuda_mul_mat_idR25ggml_backend_cuda_contextP11ggml_tensor, address: 1706848
	->Name: _ZL20ggml_cuda_mul_mat_idR25ggml_backend_cuda_contextP11ggml_tensor, address: 1641312, vaddr: 65536
Name: _ZL20ggml_cuda_mul_mat_idR25ggml_backend_cuda_contextP11ggml_tensor.cold, address: 165040
	->Name: _ZL20ggml_cuda_mul_mat_idR25ggml_backend_cuda_contextP11ggml_tensor.cold, address: 99504, vaddr: 65536
Name: _ZL50ggml_backend_cuda_split_buffer_type_get_alloc_sizeP24ggml_backend_buffer_typePK11ggml_tensor, address: 1711696
	->Name: _ZL50ggml_backend_cuda_split_buffer_type_get_alloc_sizeP24ggml_backend_buffer_typePK11ggml_tensor, address: 1646160, vaddr: 65536
Name: _ZL41ggml_backend_cuda_split_buffer_get_tensorP19ggml_backend_bufferPK11ggml_tensorPvmm, address: 1712032
	->Name: _ZL41ggml_backend_cuda_split_buffer_get_tensorP19ggml_backend_bufferPK11ggml_tensorPvmm, address: 1646496, vaddr: 65536
Name: _ZL24__sti____cudaRegisterAllv, address: 195456
	->Name: _ZL24__sti____cudaRegisterAllv, address: 129920, vaddr: 65536
Name: _ZL42ggml_backend_cuda_split_buffer_init_tensorP19ggml_backend_bufferP11ggml_tensor, address: 1713408
	->Name: _ZL42ggml_backend_cuda_split_buffer_init_tensorP19ggml_backend_bufferP11ggml_tensor, address: 1647872, vaddr: 65536
Name: ggml_backend_cuda_split_buffer_type.cold, address: 165198
	->Name: ggml_backend_cuda_split_buffer_type.cold, address: 99662, vaddr: 65536
Name: _ZL31ggml_backend_cuda_graph_computeP12ggml_backendP11ggml_cgraph, address: 1715904
	->Name: _ZL31ggml_backend_cuda_graph_computeP12ggml_backendP11ggml_cgraph, address: 1650368, vaddr: 65536
Name: _ZL21unicode_cpt_from_utf8RKNSt7__cxx1112basic_stringIcSt11char_traitsIcESaIcEEERm, address: 2538016
	->Name: _ZL21unicode_cpt_from_utf8RKNSt7__cxx1112basic_stringIcSt11char_traitsIcESaIcEEERm, address: 2472480, vaddr: 65536
Name: _ZL21unicode_cpt_from_utf8RKNSt7__cxx1112basic_stringIcSt11char_traitsIcESaIcEEERm.cold, address: 165214
	->Name: _ZL21unicode_cpt_from_utf8RKNSt7__cxx1112basic_stringIcSt11char_traitsIcESaIcEEERm.cold, address: 99678, vaddr: 65536
Name: _ZSt13__adjust_heapIN9__gnu_cxx17__normal_iteratorIPcSt6vectorIcSaIcEEEElcNS0_5__ops15_Iter_less_iterEEvT_T0_SA_T1_T2_.isra.0, address: 2538448
	->Name: _ZSt13__adjust_heapIN9__gnu_cxx17__normal_iteratorIPcSt6vectorIcSaIcEEEElcNS0_5__ops15_Iter_less_iterEEvT_T0_SA_T1_T2_.isra.0, address: 2472912, vaddr: 65536
Name: _ZSt13__adjust_heapIN9__gnu_cxx17__normal_iteratorIPwSt6vectorIwSaIwEEEElwNS0_5__ops15_Iter_less_iterEEvT_T0_SA_T1_T2_.isra.0, address: 2538736
	->Name: _ZSt13__adjust_heapIN9__gnu_cxx17__normal_iteratorIPwSt6vectorIwSaIwEEEElwNS0_5__ops15_Iter_less_iterEEvT_T0_SA_T1_T2_.isra.0, address: 2473200, vaddr: 65536
Name: _ZSt16__introsort_loopIN9__gnu_cxx17__normal_iteratorIPcSt6vectorIcSaIcEEEElNS0_5__ops15_Iter_less_iterEEvT_S9_T0_T1_.isra.0, address: 2539024
	->Name: _ZSt16__introsort_loopIN9__gnu_cxx17__normal_iteratorIPcSt6vectorIcSaIcEEEElNS0_5__ops15_Iter_less_iterEEvT_S9_T0_T1_.isra.0, address: 2473488, vaddr: 65536
Name: _ZSt16__introsort_loopIN9__gnu_cxx17__normal_iteratorIPwSt6vectorIwSaIwEEEElNS0_5__ops15_Iter_less_iterEEvT_S9_T0_T1_.isra.0, address: 2539456
	->Name: _ZSt16__introsort_loopIN9__gnu_cxx17__normal_iteratorIPwSt6vectorIwSaIwEEEElNS0_5__ops15_Iter_less_iterEEvT_S9_T0_T1_.isra.0, address: 2473920, vaddr: 65536
Name: _ZNKSt7__cxx1112regex_traitsIwE7isctypeEwNS1_10_RegexMaskE.isra.0, address: 2539920
	->Name: _ZNKSt7__cxx1112regex_traitsIwE7isctypeEwNS1_10_RegexMaskE.isra.0, address: 2474384, vaddr: 65536
Name: _ZNKSt8__detail20_RegexTranslatorBaseINSt7__cxx1112regex_traitsIwEELb1ELb1EE12_M_translateEw.isra.0, address: 2575360
	->Name: _ZNKSt8__detail20_RegexTranslatorBaseINSt7__cxx1112regex_traitsIwEELb1ELb1EE12_M_translateEw.isra.0, address: 2509824, vaddr: 65536
Name: _ZNKSt7__cxx1112basic_stringIcSt11char_traitsIcESaIcEE7compareERKS4_.isra.0, address: 2540016
	->Name: _ZNKSt7__cxx1112basic_stringIcSt11char_traitsIcESaIcEE7compareERKS4_.isra.0, address: 2474480, vaddr: 65536
Name: _ZNSt6vectorINSt7__cxx119sub_matchIPKcEESaIS4_EEaSERKS6_.isra.0, address: 2540096
	->Name: _ZNSt6vectorINSt7__cxx119sub_matchIPKcEESaIS4_EEaSERKS6_.isra.0, address: 2474560, vaddr: 65536
Name: _ZNSt6vectorINSt7__cxx119sub_matchIPKwEESaIS4_EEaSERKS6_.isra.0, address: 2540576
	->Name: _ZNSt6vectorINSt7__cxx119sub_matchIPKwEESaIS4_EEaSERKS6_.isra.0, address: 2475040, vaddr: 65536
Name: _ZNSt7__cxx1112basic_stringIcSt11char_traitsIcESaIcEEaSEOS4_.isra.0, address: 2541056
	->Name: _ZNSt7__cxx1112basic_stringIcSt11char_traitsIcESaIcEEaSEOS4_.isra.0, address: 2475520, vaddr: 65536
Name: _ZNKSt7__cxx1112regex_traitsIcE7isctypeEcNS1_10_RegexMaskE.isra.0, address: 2541264
	->Name: _ZNKSt7__cxx1112regex_traitsIcE7isctypeEcNS1_10_RegexMaskE.isra.0, address: 2475728, vaddr: 65536
Name: _ZNSt7__cxx1112basic_stringIcSt11char_traitsIcESaIcEE12_M_constructIPcEEvT_S7_St20forward_iterator_tag.constprop.0, address: 2541408
	->Name: _ZNSt7__cxx1112basic_stringIcSt11char_traitsIcESaIcEE12_M_constructIPcEEvT_S7_St20forward_iterator_tag.constprop.0, address: 2475872, vaddr: 65536
Name: _ZNSt7__cxx1112basic_stringIwSt11char_traitsIwESaIwEE12_M_constructIPKwEEvT_S8_St20forward_iterator_tag.isra.0, address: 2541616
	->Name: _ZNSt7__cxx1112basic_stringIwSt11char_traitsIwESaIwEE12_M_constructIPKwEEvT_S8_St20forward_iterator_tag.isra.0, address: 2476080, vaddr: 65536
Name: _ZNSt7__cxx1112basic_stringIwSt11char_traitsIwESaIwEE12_M_constructIPwEEvT_S7_St20forward_iterator_tag.isra.0, address: 2541856
	->Name: _ZNSt7__cxx1112basic_stringIwSt11char_traitsIwESaIwEE12_M_constructIPwEEvT_S7_St20forward_iterator_tag.isra.0, address: 2476320, vaddr: 65536
Name: _ZNSt8_Rb_treeIiSt4pairIKiiESt10_Select1stIS2_ESt4lessIiESaIS2_EE8_M_eraseEPSt13_Rb_tree_nodeIS2_E.isra.0, address: 2542096
	->Name: _ZNSt8_Rb_treeIiSt4pairIKiiESt10_Select1stIS2_ESt4lessIiESaIS2_EE8_M_eraseEPSt13_Rb_tree_nodeIS2_E.isra.0, address: 2476560, vaddr: 65536
Name: _ZNSt7__cxx1112basic_stringIwSt11char_traitsIwESaIwEEaSEOS4_.isra.0, address: 2542528
	->Name: _ZNSt7__cxx1112basic_stringIwSt11char_traitsIwESaIwEEaSEOS4_.isra.0, address: 2476992, vaddr: 65536
Name: _ZNSt8_Rb_treeIlSt4pairIKllESt10_Select1stIS2_ESt4lessIlESaIS2_EE8_M_eraseEPSt13_Rb_tree_nodeIS2_E.isra.0, address: 2542752
	->Name: _ZNSt8_Rb_treeIlSt4pairIKllESt10_Select1stIS2_ESt4lessIlESaIS2_EE8_M_eraseEPSt13_Rb_tree_nodeIS2_E.isra.0, address: 2477216, vaddr: 65536
Name: _ZNSt8_Rb_treeINSt7__cxx1112basic_stringIcSt11char_traitsIcESaIcEEESt4pairIKS5_iESt10_Select1stIS8_ESt4lessIS5_ESaIS8_EE8_M_eraseEPSt13_Rb_tree_nodeIS8_E.isra.0, address: 2543184
	->Name: _ZNSt8_Rb_treeINSt7__cxx1112basic_stringIcSt11char_traitsIcESaIcEEESt4pairIKS5_iESt10_Select1stIS8_ESt4lessIS5_ESaIS8_EE8_M_eraseEPSt13_Rb_tree_nodeIS8_E.isra.0, address: 2477648, vaddr: 65536
Name: _ZNSt8_Rb_treeIiSt4pairIKiNSt7__cxx1112basic_stringIcSt11char_traitsIcESaIcEEEESt10_Select1stIS8_ESt4lessIiESaIS8_EE8_M_eraseEPSt13_Rb_tree_nodeIS8_E.isra.0, address: 2543968
	->Name: _ZNSt8_Rb_treeIiSt4pairIKiNSt7__cxx1112basic_stringIcSt11char_traitsIcESaIcEEEESt10_Select1stIS8_ESt4lessIiESaIS8_EE8_M_eraseEPSt13_Rb_tree_nodeIS8_E.isra.0, address: 2478432, vaddr: 65536
Name: _ZNSt8_Rb_treeIlSt4pairIKllESt10_Select1stIS2_ESt4lessIlESaIS2_EE22_M_emplace_hint_uniqueIJRKSt21piecewise_construct_tSt5tupleIJRS1_EESD_IJEEEEESt17_Rb_tree_iteratorIS2_ESt23_Rb_tree_const_iteratorIS2_EDpOT_.isra.0, address: 2544752
	->Name: _ZNSt8_Rb_treeIlSt4pairIKllESt10_Select1stIS2_ESt4lessIlESaIS2_EE22_M_emplace_hint_uniqueIJRKSt21piecewise_construct_tSt5tupleIJRS1_EESD_IJEEEEESt17_Rb_tree_iteratorIS2_ESt23_Rb_tree_const_iteratorIS2_EDpOT_.isra.0, address: 2479216, vaddr: 65536
Name: _ZNSt8__detail8_ScannerIwE12_M_eat_classEc.part.0, address: 165594
	->Name: _ZNSt8__detail8_ScannerIwE12_M_eat_classEc.part.0, address: 100058, vaddr: 65536
Name: _ZNSt8__detail8_ScannerIcE12_M_eat_classEc.part.0, address: 165594
	->Name: _ZNSt8__detail8_ScannerIcE12_M_eat_classEc.part.0, address: 100058, vaddr: 65536
Name: _Z19unicode_cpt_to_utf8B5cxx11j.cold, address: 165627
	->Name: _Z19unicode_cpt_to_utf8B5cxx11j.cold, address: 100091, vaddr: 65536
Name: _Z25unicode_cpt_is_whitespacej.cold, address: 165729
	->Name: _Z25unicode_cpt_is_whitespacej.cold, address: 100193, vaddr: 65536
Name: _Z26unicode_cpts_normalize_nfdRKSt6vectorIjSaIjEE.cold, address: 165896
	->Name: _Z26unicode_cpts_normalize_nfdRKSt6vectorIjSaIjEE.cold, address: 100360, vaddr: 65536
Name: _Z22unicode_cpts_from_utf8RKNSt7__cxx1112basic_stringIcSt11char_traitsIcESaIcEEE.cold, address: 165926
	->Name: _Z22unicode_cpts_from_utf8RKNSt7__cxx1112basic_stringIcSt11char_traitsIcESaIcEEE.cold, address: 100390, vaddr: 65536
Name: _Z16unicode_cpt_typej.cold, address: 165956
	->Name: _Z16unicode_cpt_typej.cold, address: 100420, vaddr: 65536
Name: _ZL31unicode_regex_split_custom_gpt2RKNSt7__cxx1112basic_stringIcSt11char_traitsIcESaIcEEERKSt6vectorImSaImEE, address: 2548720
	->Name: _ZL31unicode_regex_split_custom_gpt2RKNSt7__cxx1112basic_stringIcSt11char_traitsIcESaIcEEERKSt6vectorImSaImEE, address: 2483184, vaddr: 65536
Name: _ZL31unicode_regex_split_custom_gpt2RKNSt7__cxx1112basic_stringIcSt11char_traitsIcESaIcEEERKSt6vectorImSaImEE.cold, address: 166077
	->Name: _ZL31unicode_regex_split_custom_gpt2RKNSt7__cxx1112basic_stringIcSt11char_traitsIcESaIcEEERKSt6vectorImSaImEE.cold, address: 100541, vaddr: 65536
Name: _ZL33unicode_regex_split_custom_llama3RKNSt7__cxx1112basic_stringIcSt11char_traitsIcESaIcEEERKSt6vectorImSaImEE, address: 2550032
	->Name: _ZL33unicode_regex_split_custom_llama3RKNSt7__cxx1112basic_stringIcSt11char_traitsIcESaIcEEERKSt6vectorImSaImEE, address: 2484496, vaddr: 65536
Name: _ZL33unicode_regex_split_custom_llama3RKNSt7__cxx1112basic_stringIcSt11char_traitsIcESaIcEEERKSt6vectorImSaImEE.cold, address: 166126
	->Name: _ZL33unicode_regex_split_custom_llama3RKNSt7__cxx1112basic_stringIcSt11char_traitsIcESaIcEEERKSt6vectorImSaImEE.cold, address: 100590, vaddr: 65536
Name: _Z20unicode_byte_to_utf8B5cxx11h.cold, address: 166175
	->Name: _Z20unicode_byte_to_utf8B5cxx11h.cold, address: 100639, vaddr: 65536
Name: _Z20unicode_utf8_to_byteRKNSt7__cxx1112basic_stringIcSt11char_traitsIcESaIcEEE.cold, address: 166436
	->Name: _Z20unicode_utf8_to_byteRKNSt7__cxx1112basic_stringIcSt11char_traitsIcESaIcEEE.cold, address: 100900, vaddr: 65536
Name: _ZNSt8__detail9_ExecutorIPKwSaINSt7__cxx119sub_matchIS2_EEENS3_12regex_traitsIwEELb0EE15_M_handle_matchENS9_11_Match_modeEl.isra.0, address: 2554912
	->Name: _ZNSt8__detail9_ExecutorIPKwSaINSt7__cxx119sub_matchIS2_EEENS3_12regex_traitsIwEELb0EE15_M_handle_matchENS9_11_Match_modeEl.isra.0, address: 2489376, vaddr: 65536
Name: _ZNSt8__detail9_ExecutorIPKcSaINSt7__cxx119sub_matchIS2_EEENS3_12regex_traitsIcEELb0EE15_M_handle_matchENS9_11_Match_modeEl.isra.0, address: 2555360
	->Name: _ZNSt8__detail9_ExecutorIPKcSaINSt7__cxx119sub_matchIS2_EEENS3_12regex_traitsIcEELb0EE15_M_handle_matchENS9_11_Match_modeEl.isra.0, address: 2489824, vaddr: 65536
Name: _ZNKSt7__cxx1112regex_traitsIwE5valueEwi.constprop.0, address: 2597056
	->Name: _ZNKSt7__cxx1112regex_traitsIwE5valueEwi.constprop.0, address: 2531520, vaddr: 65536
Name: _ZNKSt7__cxx1112regex_traitsIwE5valueEwi.isra.0, address: 2555808
	->Name: _ZNKSt7__cxx1112regex_traitsIwE5valueEwi.isra.0, address: 2490272, vaddr: 65536
Name: _ZNKSt7__cxx1112regex_traitsIwE5valueEwi.isra.0.cold, address: 166698
	->Name: _ZNKSt7__cxx1112regex_traitsIwE5valueEwi.isra.0.cold, address: 101162, vaddr: 65536
Name: _ZNSt8__detail9_ExecutorIPKwSaINSt7__cxx119sub_matchIS2_EEENS3_12regex_traitsIwEELb0EE16_M_main_dispatchENS9_11_Match_modeESt17integral_constantIbLb0EE.constprop.0, address: 2556720
	->Name: _ZNSt8__detail9_ExecutorIPKwSaINSt7__cxx119sub_matchIS2_EEENS3_12regex_traitsIwEELb0EE16_M_main_dispatchENS9_11_Match_modeESt17integral_constantIbLb0EE.constprop.0, address: 2491184, vaddr: 65536
Name: _ZNSt8__detail9_ExecutorIPKwSaINSt7__cxx119sub_matchIS2_EEENS3_12regex_traitsIwEELb0EE16_M_main_dispatchENS9_11_Match_modeESt17integral_constantIbLb0EE.constprop.0.cold, address: 166866
	->Name: _ZNSt8__detail9_ExecutorIPKwSaINSt7__cxx119sub_matchIS2_EEENS3_12regex_traitsIwEELb0EE16_M_main_dispatchENS9_11_Match_modeESt17integral_constantIbLb0EE.constprop.0.cold, address: 101330, vaddr: 65536
Name: _ZNKSt7__cxx1112regex_traitsIcE5valueEci.isra.0, address: 2559072
	->Name: _ZNKSt7__cxx1112regex_traitsIcE5valueEci.isra.0, address: 2493536, vaddr: 65536
Name: _ZNKSt7__cxx1112regex_traitsIcE5valueEci.isra.0.cold, address: 166922
	->Name: _ZNKSt7__cxx1112regex_traitsIcE5valueEci.isra.0.cold, address: 101386, vaddr: 65536
Name: _ZNSt8__detail9_ExecutorIPKcSaINSt7__cxx119sub_matchIS2_EEENS3_12regex_traitsIcEELb0EE16_M_main_dispatchENS9_11_Match_modeESt17integral_constantIbLb0EE.constprop.0, address: 2560176
	->Name: _ZNSt8__detail9_ExecutorIPKcSaINSt7__cxx119sub_matchIS2_EEENS3_12regex_traitsIcEELb0EE16_M_main_dispatchENS9_11_Match_modeESt17integral_constantIbLb0EE.constprop.0, address: 2494640, vaddr: 65536
Name: _ZNSt8__detail9_ExecutorIPKcSaINSt7__cxx119sub_matchIS2_EEENS3_12regex_traitsIcEELb0EE16_M_main_dispatchENS9_11_Match_modeESt17integral_constantIbLb0EE.constprop.0.cold, address: 167094
	->Name: _ZNSt8__detail9_ExecutorIPKcSaINSt7__cxx119sub_matchIS2_EEENS3_12regex_traitsIcEELb0EE16_M_main_dispatchENS9_11_Match_modeESt17integral_constantIbLb0EE.constprop.0.cold, address: 101558, vaddr: 65536
Name: _ZL23unicode_regex_split_stlRKNSt7__cxx1112basic_stringIwSt11char_traitsIwESaIwEEES6_RKSt6vectorImSaImEE, address: 2562576
	->Name: _ZL23unicode_regex_split_stlRKNSt7__cxx1112basic_stringIwSt11char_traitsIwESaIwEEES6_RKSt6vectorImSaImEE, address: 2497040, vaddr: 65536
Name: _ZL23unicode_regex_split_stlRKNSt7__cxx1112basic_stringIwSt11char_traitsIwESaIwEEES6_RKSt6vectorImSaImEE.cold, address: 167136
	->Name: _ZL23unicode_regex_split_stlRKNSt7__cxx1112basic_stringIwSt11char_traitsIwESaIwEEES6_RKSt6vectorImSaImEE.cold, address: 101600, vaddr: 65536
Name: _Z19unicode_regex_splitRKNSt7__cxx1112basic_stringIcSt11char_traitsIcESaIcEEERKSt6vectorIS4_SaIS4_EE.cold, address: 167301
	->Name: _Z19unicode_regex_splitRKNSt7__cxx1112basic_stringIcSt11char_traitsIcESaIcEEERKSt6vectorIS4_SaIS4_EE.cold, address: 101765, vaddr: 65536
Name: _ZZ4mainENUlvE_4_FUNEv, address: 2667696
	->Name: _ZZ4mainENUlvE_4_FUNEv, address: 2602160, vaddr: 65536
Name: _ZNSt7__cxx1112basic_stringIcSt11char_traitsIcESaIcEEaSEOS4_.isra.0, address: 2667712
	->Name: _ZNSt7__cxx1112basic_stringIcSt11char_traitsIcESaIcEEaSEOS4_.isra.0, address: 2602176, vaddr: 65536
Name: _ZNSt7__cxx1112basic_stringIcSt11char_traitsIcESaIcEEC2EPKcRKS3_.constprop.0, address: 2667904
	->Name: _ZNSt7__cxx1112basic_stringIcSt11char_traitsIcESaIcEEC2EPKcRKS3_.constprop.0, address: 2602368, vaddr: 65536
Name: _ZNSt7__cxx1112basic_stringIcSt11char_traitsIcESaIcEE12_M_constructIPcEEvT_S7_St20forward_iterator_tag.isra.0, address: 2668096
	->Name: _ZNSt7__cxx1112basic_stringIcSt11char_traitsIcESaIcEE12_M_constructIPcEEvT_S7_St20forward_iterator_tag.isra.0, address: 2602560, vaddr: 65536
Name: _ZNSt6vectorIiSaIiEEaSERKS1_.isra.0, address: 2668288
	->Name: _ZNSt6vectorIiSaIiEEaSERKS1_.isra.0, address: 2602752, vaddr: 65536
Name: _ZL13write_logfilePK13llama_contextRK10gpt_paramsPK11llama_modelRKSt6vectorIiSaIiEERKNSt7__cxx1112basic_stringIcSt11char_traitsIcESaIcEEESC_, address: 2668640
	->Name: _ZL13write_logfilePK13llama_contextRK10gpt_paramsPK11llama_modelRKSt6vectorIiSaIiEERKNSt7__cxx1112basic_stringIcSt11char_traitsIcESaIcEEESC_, address: 2603104, vaddr: 65536
Name: _ZL13write_logfilePK13llama_contextRK10gpt_paramsPK11llama_modelRKSt6vectorIiSaIiEERKNSt7__cxx1112basic_stringIcSt11char_traitsIcESaIcEEESC_.cold, address: 168579
	->Name: _ZL13write_logfilePK13llama_contextRK10gpt_paramsPK11llama_modelRKSt6vectorIiSaIiEERKNSt7__cxx1112basic_stringIcSt11char_traitsIcESaIcEEESC_.cold, address: 103043, vaddr: 65536
Name: _ZL14sigint_handleri, address: 2669744
	->Name: _ZL14sigint_handleri, address: 2604208, vaddr: 65536
Name: _ZL14sigint_handleri.cold, address: 168647
	->Name: _ZL14sigint_handleri.cold, address: 103111, vaddr: 65536
Name: _ZL25llama_log_callback_logTee14ggml_log_levelPKcPv, address: 2670016
	->Name: _ZL25llama_log_callback_logTee14ggml_log_levelPKcPv, address: 2604480, vaddr: 65536
Name: main.cold, address: 168682
	->Name: main.cold, address: 103146, vaddr: 65536
Name: _GLOBAL__sub_I_main.cpp, address: 261488
	->Name: _GLOBAL__sub_I_main.cpp, address: 195952, vaddr: 65536
Name: _ZL26__cudaUnregisterBinaryUtilv, address: 1728080
	->Name: _ZL26__cudaUnregisterBinaryUtilv, address: 1662544, vaddr: 65536
Name: _ZL7acc_f32PKfS0_Pfiiiiiii, address: 1728096
	->Name: _ZL7acc_f32PKfS0_Pfiiiiiii, address: 1662560, vaddr: 65536
Name: _ZL24__sti____cudaRegisterAllv, address: 196160
	->Name: _ZL24__sti____cudaRegisterAllv, address: 130624, vaddr: 65536
Name: _ZL26__cudaUnregisterBinaryUtilv, address: 1729552
	->Name: _ZL26__cudaUnregisterBinaryUtilv, address: 1664016, vaddr: 65536
Name: _ZL10arange_f32Pfiff, address: 1729568
	->Name: _ZL10arange_f32Pfiff, address: 1664032, vaddr: 65536
Name: _ZL24__sti____cudaRegisterAllv, address: 196672
	->Name: _ZL24__sti____cudaRegisterAllv, address: 131136, vaddr: 65536
Name: _ZL26__cudaUnregisterBinaryUtilv, address: 1730608
	->Name: _ZL26__cudaUnregisterBinaryUtilv, address: 1665072, vaddr: 65536
Name: _Z17k_argsort_f32_i32IL15ggml_sort_order0EEvPKfPiii, address: 1730624
	->Name: _Z17k_argsort_f32_i32IL15ggml_sort_order0EEvPKfPiii, address: 1665088, vaddr: 65536
Name: _Z17k_argsort_f32_i32IL15ggml_sort_order1EEvPKfPiii, address: 1730864
	->Name: _Z17k_argsort_f32_i32IL15ggml_sort_order1EEvPKfPiii, address: 1665328, vaddr: 65536
Name: _ZL24__sti____cudaRegisterAllv, address: 197184
	->Name: _ZL24__sti____cudaRegisterAllv, address: 131648, vaddr: 65536
Name: _ZL26__cudaUnregisterBinaryUtilv, address: 1732304
	->Name: _ZL26__cudaUnregisterBinaryUtilv, address: 1666768, vaddr: 65536
Name: _ZN14bin_bcast_cudaIXadL_ZL6op_divffEEEclI6__halfffEEvPK11ggml_tensorS5_PS3_PKT_PKT0_PT1_P11CUstream_st.constprop.0, address: 1732320
	->Name: _ZN14bin_bcast_cudaIXadL_ZL6op_divffEEEclI6__halfffEEvPK11ggml_tensorS5_PS3_PKT_PKT0_PT1_P11CUstream_st.constprop.0, address: 1666784, vaddr: 65536
Name: _Z19k_bin_bcast_unravelIXadL_ZL6op_divffEE6__halfffEvPKT0_PKT1_PT2_iiiiiiiiiiiiiiiii, address: 1793584
	->Name: _Z19k_bin_bcast_unravelIXadL_ZL6op_divffEE6__halfffEvPKT0_PKT1_PT2_iiiiiiiiiiiiiiiii, address: 1728048, vaddr: 65536
Name: _Z11k_bin_bcastIXadL_ZL6op_divffEE6__halfffEvPKT0_PKT1_PT2_iiiiiiiiiiiiiiiii, address: 1777392
	->Name: _Z11k_bin_bcastIXadL_ZL6op_divffEE6__halfffEvPKT0_PKT1_PT2_iiiiiiiiiiiiiiiii, address: 1711856, vaddr: 65536
Name: _ZN14bin_bcast_cudaIXadL_ZL6op_divffEEEclI6__halffS2_EEvPK11ggml_tensorS5_PS3_PKT_PKT0_PT1_P11CUstream_st.constprop.0, address: 1736080
	->Name: _ZN14bin_bcast_cudaIXadL_ZL6op_divffEEEclI6__halffS2_EEvPK11ggml_tensorS5_PS3_PKT_PKT0_PT1_P11CUstream_st.constprop.0, address: 1670544, vaddr: 65536
Name: _Z19k_bin_bcast_unravelIXadL_ZL6op_divffEE6__halffS0_EvPKT0_PKT1_PT2_iiiiiiiiiiiiiiiii, address: 1780208
	->Name: _Z19k_bin_bcast_unravelIXadL_ZL6op_divffEE6__halffS0_EvPKT0_PKT1_PT2_iiiiiiiiiiiiiiiii, address: 1714672, vaddr: 65536
Name: _Z11k_bin_bcastIXadL_ZL6op_divffEE6__halffS0_EvPKT0_PKT1_PT2_iiiiiiiiiiiiiiiii, address: 1778800
	->Name: _Z11k_bin_bcastIXadL_ZL6op_divffEE6__halffS0_EvPKT0_PKT1_PT2_iiiiiiiiiiiiiiiii, address: 1713264, vaddr: 65536
Name: _ZN14bin_bcast_cudaIXadL_ZL6op_divffEEEclIfffEEvPK11ggml_tensorS4_PS2_PKT_PKT0_PT1_P11CUstream_st.constprop.0, address: 1739824
	->Name: _ZN14bin_bcast_cudaIXadL_ZL6op_divffEEEclIfffEEvPK11ggml_tensorS4_PS2_PKT_PKT0_PT1_P11CUstream_st.constprop.0, address: 1674288, vaddr: 65536
Name: _Z19k_bin_bcast_unravelIXadL_ZL6op_divffEEfffEvPKT0_PKT1_PT2_iiiiiiiiiiiiiiiii, address: 1783024
	->Name: _Z19k_bin_bcast_unravelIXadL_ZL6op_divffEEfffEvPKT0_PKT1_PT2_iiiiiiiiiiiiiiiii, address: 1717488, vaddr: 65536
Name: _Z11k_bin_bcastIXadL_ZL6op_divffEEfffEvPKT0_PKT1_PT2_iiiiiiiiiiiiiiiii, address: 1792880
	->Name: _Z11k_bin_bcastIXadL_ZL6op_divffEEfffEvPKT0_PKT1_PT2_iiiiiiiiiiiiiiiii, address: 1727344, vaddr: 65536
Name: _ZN14bin_bcast_cudaIXadL_ZL6op_mulffEEEclI6__halfffEEvPK11ggml_tensorS5_PS3_PKT_PKT0_PT1_P11CUstream_st.constprop.0, address: 1743584
	->Name: _ZN14bin_bcast_cudaIXadL_ZL6op_mulffEEEclI6__halfffEEvPK11ggml_tensorS5_PS3_PKT_PKT0_PT1_P11CUstream_st.constprop.0, address: 1678048, vaddr: 65536
Name: _Z19k_bin_bcast_unravelIXadL_ZL6op_mulffEE6__halfffEvPKT0_PKT1_PT2_iiiiiiiiiiiiiiiii, address: 1781616
	->Name: _Z19k_bin_bcast_unravelIXadL_ZL6op_mulffEE6__halfffEvPKT0_PKT1_PT2_iiiiiiiiiiiiiiiii, address: 1716080, vaddr: 65536
Name: _Z11k_bin_bcastIXadL_ZL6op_mulffEE6__halfffEvPKT0_PKT1_PT2_iiiiiiiiiiiiiiiii, address: 1791472
	->Name: _Z11k_bin_bcastIXadL_ZL6op_mulffEE6__halfffEvPKT0_PKT1_PT2_iiiiiiiiiiiiiiiii, address: 1725936, vaddr: 65536
Name: _ZN14bin_bcast_cudaIXadL_ZL6op_mulffEEEclI6__halffS2_EEvPK11ggml_tensorS5_PS3_PKT_PKT0_PT1_P11CUstream_st.constprop.0, address: 1747344
	->Name: _ZN14bin_bcast_cudaIXadL_ZL6op_mulffEEEclI6__halffS2_EEvPK11ggml_tensorS5_PS3_PKT_PKT0_PT1_P11CUstream_st.constprop.0, address: 1681808, vaddr: 65536
Name: _Z19k_bin_bcast_unravelIXadL_ZL6op_mulffEE6__halffS0_EvPKT0_PKT1_PT2_iiiiiiiiiiiiiiiii, address: 1788656
	->Name: _Z19k_bin_bcast_unravelIXadL_ZL6op_mulffEE6__halffS0_EvPKT0_PKT1_PT2_iiiiiiiiiiiiiiiii, address: 1723120, vaddr: 65536
Name: _Z11k_bin_bcastIXadL_ZL6op_mulffEE6__halffS0_EvPKT0_PKT1_PT2_iiiiiiiiiiiiiiiii, address: 1792176
	->Name: _Z11k_bin_bcastIXadL_ZL6op_mulffEE6__halffS0_EvPKT0_PKT1_PT2_iiiiiiiiiiiiiiiii, address: 1726640, vaddr: 65536
Name: _ZN14bin_bcast_cudaIXadL_ZL6op_mulffEEEclIfffEEvPK11ggml_tensorS4_PS2_PKT_PKT0_PT1_P11CUstream_st.constprop.0, address: 1751088
	->Name: _ZN14bin_bcast_cudaIXadL_ZL6op_mulffEEEclIfffEEvPK11ggml_tensorS4_PS2_PKT_PKT0_PT1_P11CUstream_st.constprop.0, address: 1685552, vaddr: 65536
Name: _Z19k_bin_bcast_unravelIXadL_ZL6op_mulffEEfffEvPKT0_PKT1_PT2_iiiiiiiiiiiiiiiii, address: 1787248
	->Name: _Z19k_bin_bcast_unravelIXadL_ZL6op_mulffEEfffEvPKT0_PKT1_PT2_iiiiiiiiiiiiiiiii, address: 1721712, vaddr: 65536
Name: _Z11k_bin_bcastIXadL_ZL6op_mulffEEfffEvPKT0_PKT1_PT2_iiiiiiiiiiiiiiiii, address: 1787952
	->Name: _Z11k_bin_bcastIXadL_ZL6op_mulffEEfffEvPKT0_PKT1_PT2_iiiiiiiiiiiiiiiii, address: 1722416, vaddr: 65536
Name: _ZN14bin_bcast_cudaIXadL_ZL6op_addffEEEclI6__halfffEEvPK11ggml_tensorS5_PS3_PKT_PKT0_PT1_P11CUstream_st.constprop.0, address: 1754848
	->Name: _ZN14bin_bcast_cudaIXadL_ZL6op_addffEEEclI6__halfffEEvPK11ggml_tensorS5_PS3_PKT_PKT0_PT1_P11CUstream_st.constprop.0, address: 1689312, vaddr: 65536
Name: _Z19k_bin_bcast_unravelIXadL_ZL6op_addffEE6__halfffEvPKT0_PKT1_PT2_iiiiiiiiiiiiiiiii, address: 1785840
	->Name: _Z19k_bin_bcast_unravelIXadL_ZL6op_addffEE6__halfffEvPKT0_PKT1_PT2_iiiiiiiiiiiiiiiii, address: 1720304, vaddr: 65536
Name: _Z11k_bin_bcastIXadL_ZL6op_addffEE6__halfffEvPKT0_PKT1_PT2_iiiiiiiiiiiiiiiii, address: 1790768
	->Name: _Z11k_bin_bcastIXadL_ZL6op_addffEE6__halfffEvPKT0_PKT1_PT2_iiiiiiiiiiiiiiiii, address: 1725232, vaddr: 65536
Name: _ZN14bin_bcast_cudaIXadL_ZL6op_addffEEEclI6__halffS2_EEvPK11ggml_tensorS5_PS3_PKT_PKT0_PT1_P11CUstream_st.constprop.0, address: 1758608
	->Name: _ZN14bin_bcast_cudaIXadL_ZL6op_addffEEEclI6__halffS2_EEvPK11ggml_tensorS5_PS3_PKT_PKT0_PT1_P11CUstream_st.constprop.0, address: 1693072, vaddr: 65536
Name: _Z19k_bin_bcast_unravelIXadL_ZL6op_addffEE6__halffS0_EvPKT0_PKT1_PT2_iiiiiiiiiiiiiiiii, address: 1784432
	->Name: _Z19k_bin_bcast_unravelIXadL_ZL6op_addffEE6__halffS0_EvPKT0_PKT1_PT2_iiiiiiiiiiiiiiiii, address: 1718896, vaddr: 65536
Name: _Z11k_bin_bcastIXadL_ZL6op_addffEE6__halffS0_EvPKT0_PKT1_PT2_iiiiiiiiiiiiiiiii, address: 1790064
	->Name: _Z11k_bin_bcastIXadL_ZL6op_addffEE6__halffS0_EvPKT0_PKT1_PT2_iiiiiiiiiiiiiiiii, address: 1724528, vaddr: 65536
Name: _ZN14bin_bcast_cudaIXadL_ZL6op_addffEEEclIfffEEvPK11ggml_tensorS4_PS2_PKT_PKT0_PT1_P11CUstream_st.constprop.0, address: 1762352
	->Name: _ZN14bin_bcast_cudaIXadL_ZL6op_addffEEEclIfffEEvPK11ggml_tensorS4_PS2_PKT_PKT0_PT1_P11CUstream_st.constprop.0, address: 1696816, vaddr: 65536
Name: _Z19k_bin_bcast_unravelIXadL_ZL6op_addffEEfffEvPKT0_PKT1_PT2_iiiiiiiiiiiiiiiii, address: 1782320
	->Name: _Z19k_bin_bcast_unravelIXadL_ZL6op_addffEEfffEvPKT0_PKT1_PT2_iiiiiiiiiiiiiiiii, address: 1716784, vaddr: 65536
Name: _Z11k_bin_bcastIXadL_ZL6op_addffEEfffEvPKT0_PKT1_PT2_iiiiiiiiiiiiiiiii, address: 1789360
	->Name: _Z11k_bin_bcastIXadL_ZL6op_addffEEfffEvPKT0_PKT1_PT2_iiiiiiiiiiiiiiiii, address: 1723824, vaddr: 65536
Name: _ZN14bin_bcast_cudaIXadL_ZL9op_repeatffEEEclI6__halfffEEvPK11ggml_tensorS5_PS3_PKT_PKT0_PT1_P11CUstream_st.constprop.0, address: 1766112
	->Name: _ZN14bin_bcast_cudaIXadL_ZL9op_repeatffEEEclI6__halfffEEvPK11ggml_tensorS5_PS3_PKT_PKT0_PT1_P11CUstream_st.constprop.0, address: 1700576, vaddr: 65536
Name: _Z19k_bin_bcast_unravelIXadL_ZL9op_repeatffEE6__halfffEvPKT0_PKT1_PT2_iiiiiiiiiiiiiiiii, address: 1785136
	->Name: _Z19k_bin_bcast_unravelIXadL_ZL9op_repeatffEE6__halfffEvPKT0_PKT1_PT2_iiiiiiiiiiiiiiiii, address: 1719600, vaddr: 65536
Name: _Z11k_bin_bcastIXadL_ZL9op_repeatffEE6__halfffEvPKT0_PKT1_PT2_iiiiiiiiiiiiiiiii, address: 1786544
	->Name: _Z11k_bin_bcastIXadL_ZL9op_repeatffEE6__halfffEvPKT0_PKT1_PT2_iiiiiiiiiiiiiiiii, address: 1721008, vaddr: 65536
Name: _ZN14bin_bcast_cudaIXadL_ZL9op_repeatffEEEclI6__halffS2_EEvPK11ggml_tensorS5_PS3_PKT_PKT0_PT1_P11CUstream_st.constprop.0, address: 1769872
	->Name: _ZN14bin_bcast_cudaIXadL_ZL9op_repeatffEEEclI6__halffS2_EEvPK11ggml_tensorS5_PS3_PKT_PKT0_PT1_P11CUstream_st.constprop.0, address: 1704336, vaddr: 65536
Name: _Z19k_bin_bcast_unravelIXadL_ZL9op_repeatffEE6__halffS0_EvPKT0_PKT1_PT2_iiiiiiiiiiiiiiiii, address: 1779504
	->Name: _Z19k_bin_bcast_unravelIXadL_ZL9op_repeatffEE6__halffS0_EvPKT0_PKT1_PT2_iiiiiiiiiiiiiiiii, address: 1713968, vaddr: 65536
Name: _Z11k_bin_bcastIXadL_ZL9op_repeatffEE6__halffS0_EvPKT0_PKT1_PT2_iiiiiiiiiiiiiiiii, address: 1783728
	->Name: _Z11k_bin_bcastIXadL_ZL9op_repeatffEE6__halffS0_EvPKT0_PKT1_PT2_iiiiiiiiiiiiiiiii, address: 1718192, vaddr: 65536
Name: _ZN14bin_bcast_cudaIXadL_ZL9op_repeatffEEEclIfffEEvPK11ggml_tensorS4_PS2_PKT_PKT0_PT1_P11CUstream_st.constprop.0, address: 1773632
	->Name: _ZN14bin_bcast_cudaIXadL_ZL9op_repeatffEEEclIfffEEvPK11ggml_tensorS4_PS2_PKT_PKT0_PT1_P11CUstream_st.constprop.0, address: 1708096, vaddr: 65536
Name: _Z19k_bin_bcast_unravelIXadL_ZL9op_repeatffEEfffEvPKT0_PKT1_PT2_iiiiiiiiiiiiiiiii, address: 1778096
	->Name: _Z19k_bin_bcast_unravelIXadL_ZL9op_repeatffEEfffEvPKT0_PKT1_PT2_iiiiiiiiiiiiiiiii, address: 1712560, vaddr: 65536
Name: _Z11k_bin_bcastIXadL_ZL9op_repeatffEEfffEvPKT0_PKT1_PT2_iiiiiiiiiiiiiiiii, address: 1780912
	->Name: _Z11k_bin_bcastIXadL_ZL9op_repeatffEEfffEvPKT0_PKT1_PT2_iiiiiiiiiiiiiiiii, address: 1715376, vaddr: 65536
Name: _ZL24__sti____cudaRegisterAllv, address: 197744
	->Name: _ZL24__sti____cudaRegisterAllv, address: 132208, vaddr: 65536
Name: _ZL26__cudaUnregisterBinaryUtilv, address: 1796368
	->Name: _ZL26__cudaUnregisterBinaryUtilv, address: 1730832, vaddr: 65536
Name: _ZL9clamp_f32PKfPfffi, address: 1796384
	->Name: _ZL9clamp_f32PKfPfffi, address: 1730848, vaddr: 65536
Name: _ZL24__sti____cudaRegisterAllv, address: 199312
	->Name: _ZL24__sti____cudaRegisterAllv, address: 133776, vaddr: 65536
Name: _ZL26__cudaUnregisterBinaryUtilv, address: 1797376
	->Name: _ZL26__cudaUnregisterBinaryUtilv, address: 1731840, vaddr: 65536
Name: _ZL10concat_f32PKfS0_Pfii, address: 1797392
	->Name: _ZL10concat_f32PKfS0_Pfii, address: 1731856, vaddr: 65536
Name: _ZL24__sti____cudaRegisterAllv, address: 199824
	->Name: _ZL24__sti____cudaRegisterAllv, address: 134288, vaddr: 65536
Name: _Z18convert_unary_cudaIf6__halfEvPKvPT0_lP11CUstream_st, address: 1798704
	->Name: _Z18convert_unary_cudaIf6__halfEvPKvPT0_lP11CUstream_st, address: 1733168, vaddr: 65536
Name: _Z13convert_unaryIf6__halfEvPKvPT0_l, address: 1814368
	->Name: _Z13convert_unaryIf6__halfEvPKvPT0_l, address: 1748832, vaddr: 65536
Name: _Z25dequantize_row_iq3_s_cudaI6__halfEvPKvPT_lP11CUstream_st, address: 1799056
	->Name: _Z25dequantize_row_iq3_s_cudaI6__halfEvPKvPT_lP11CUstream_st, address: 1733520, vaddr: 65536
Name: _Z22dequantize_block_iq3_sI6__halfEvPKvPT_, address: 1819664
	->Name: _Z22dequantize_block_iq3_sI6__halfEvPKvPT_, address: 1754128, vaddr: 65536
Name: _Z26dequantize_row_iq4_xs_cudaI6__halfEvPKvPT_lP11CUstream_st, address: 1799376
	->Name: _Z26dequantize_row_iq4_xs_cudaI6__halfEvPKvPT_lP11CUstream_st, address: 1733840, vaddr: 65536
Name: _Z23dequantize_block_iq4_xsI6__halfEvPKvPT_, address: 1819456
	->Name: _Z23dequantize_block_iq4_xsI6__halfEvPKvPT_, address: 1753920, vaddr: 65536
Name: _Z26dequantize_row_iq4_nl_cudaI6__halfEvPKvPT_lP11CUstream_st, address: 1799696
	->Name: _Z26dequantize_row_iq4_nl_cudaI6__halfEvPKvPT_lP11CUstream_st, address: 1734160, vaddr: 65536
Name: _Z23dequantize_block_iq4_nlI6__halfEvPKvPT_, address: 1819248
	->Name: _Z23dequantize_block_iq4_nlI6__halfEvPKvPT_, address: 1753712, vaddr: 65536
Name: _Z25dequantize_row_iq1_m_cudaI6__halfEvPKvPT_lP11CUstream_st, address: 1800016
	->Name: _Z25dequantize_row_iq1_m_cudaI6__halfEvPKvPT_lP11CUstream_st, address: 1734480, vaddr: 65536
Name: _Z22dequantize_block_iq1_mI6__halfEvPKvPT_, address: 1819040
	->Name: _Z22dequantize_block_iq1_mI6__halfEvPKvPT_, address: 1753504, vaddr: 65536
Name: _Z25dequantize_row_iq1_s_cudaI6__halfEvPKvPT_lP11CUstream_st, address: 1800336
	->Name: _Z25dequantize_row_iq1_s_cudaI6__halfEvPKvPT_lP11CUstream_st, address: 1734800, vaddr: 65536
Name: _Z22dequantize_block_iq1_sI6__halfEvPKvPT_, address: 1821328
	->Name: _Z22dequantize_block_iq1_sI6__halfEvPKvPT_, address: 1755792, vaddr: 65536
Name: _Z27dequantize_row_iq3_xxs_cudaI6__halfEvPKvPT_lP11CUstream_st, address: 1800656
	->Name: _Z27dequantize_row_iq3_xxs_cudaI6__halfEvPKvPT_lP11CUstream_st, address: 1735120, vaddr: 65536
Name: _Z24dequantize_block_iq3_xxsI6__halfEvPKvPT_, address: 1821120
	->Name: _Z24dequantize_block_iq3_xxsI6__halfEvPKvPT_, address: 1755584, vaddr: 65536
Name: _Z25dequantize_row_iq2_s_cudaI6__halfEvPKvPT_lP11CUstream_st, address: 1800976
	->Name: _Z25dequantize_row_iq2_s_cudaI6__halfEvPKvPT_lP11CUstream_st, address: 1735440, vaddr: 65536
Name: _Z22dequantize_block_iq2_sI6__halfEvPKvPT_, address: 1820912
	->Name: _Z22dequantize_block_iq2_sI6__halfEvPKvPT_, address: 1755376, vaddr: 65536
Name: _Z26dequantize_row_iq2_xs_cudaI6__halfEvPKvPT_lP11CUstream_st, address: 1801296
	->Name: _Z26dequantize_row_iq2_xs_cudaI6__halfEvPKvPT_lP11CUstream_st, address: 1735760, vaddr: 65536
Name: _Z23dequantize_block_iq2_xsI6__halfEvPKvPT_, address: 1820704
	->Name: _Z23dequantize_block_iq2_xsI6__halfEvPKvPT_, address: 1755168, vaddr: 65536
Name: _Z27dequantize_row_iq2_xxs_cudaI6__halfEvPKvPT_lP11CUstream_st, address: 1801616
	->Name: _Z27dequantize_row_iq2_xxs_cudaI6__halfEvPKvPT_lP11CUstream_st, address: 1736080, vaddr: 65536
Name: _Z24dequantize_block_iq2_xxsI6__halfEvPKvPT_, address: 1820496
	->Name: _Z24dequantize_block_iq2_xxsI6__halfEvPKvPT_, address: 1754960, vaddr: 65536
Name: _Z24dequantize_row_q6_K_cudaI6__halfEvPKvPT_lP11CUstream_st, address: 1801936
	->Name: _Z24dequantize_row_q6_K_cudaI6__halfEvPKvPT_lP11CUstream_st, address: 1736400, vaddr: 65536
Name: _Z21dequantize_block_q6_KI6__halfEvPKvPT_, address: 1820288
	->Name: _Z21dequantize_block_q6_KI6__halfEvPKvPT_, address: 1754752, vaddr: 65536
Name: _Z24dequantize_row_q5_K_cudaI6__halfEvPKvPT_lP11CUstream_st, address: 1802256
	->Name: _Z24dequantize_row_q5_K_cudaI6__halfEvPKvPT_lP11CUstream_st, address: 1736720, vaddr: 65536
Name: _Z21dequantize_block_q5_KI6__halfEvPKvPT_, address: 1820080
	->Name: _Z21dequantize_block_q5_KI6__halfEvPKvPT_, address: 1754544, vaddr: 65536
Name: _Z24dequantize_row_q4_K_cudaI6__halfEvPKvPT_lP11CUstream_st, address: 1802576
	->Name: _Z24dequantize_row_q4_K_cudaI6__halfEvPKvPT_lP11CUstream_st, address: 1737040, vaddr: 65536
Name: _Z21dequantize_block_q4_KI6__halfEvPKvPT_, address: 1819872
	->Name: _Z21dequantize_block_q4_KI6__halfEvPKvPT_, address: 1754336, vaddr: 65536
Name: _Z24dequantize_row_q3_K_cudaI6__halfEvPKvPT_lP11CUstream_st, address: 1802896
	->Name: _Z24dequantize_row_q3_K_cudaI6__halfEvPKvPT_lP11CUstream_st, address: 1737360, vaddr: 65536
Name: _Z21dequantize_block_q3_KI6__halfEvPKvPT_, address: 1818832
	->Name: _Z21dequantize_block_q3_KI6__halfEvPKvPT_, address: 1753296, vaddr: 65536
Name: _Z24dequantize_row_q2_K_cudaI6__halfEvPKvPT_lP11CUstream_st, address: 1803216
	->Name: _Z24dequantize_row_q2_K_cudaI6__halfEvPKvPT_lP11CUstream_st, address: 1737680, vaddr: 65536
Name: _Z21dequantize_block_q2_KI6__halfEvPKvPT_, address: 1818624
	->Name: _Z21dequantize_block_q2_KI6__halfEvPKvPT_, address: 1753088, vaddr: 65536
Name: _Z21dequantize_block_cudaILi32ELi1EXadL_ZL15dequantize_q8_0PKvliR6float2EE6__halfEvS1_PT2_lP11CUstream_st, address: 1803536
	->Name: _Z21dequantize_block_cudaILi32ELi1EXadL_ZL15dequantize_q8_0PKvliR6float2EE6__halfEvS1_PT2_lP11CUstream_st, address: 1738000, vaddr: 65536
Name: _Z16dequantize_blockILi32ELi1EXadL_ZL15dequantize_q8_0PKvliR6float2EE6__halfEvS1_PT2_l, address: 1814144
	->Name: _Z16dequantize_blockILi32ELi1EXadL_ZL15dequantize_q8_0PKvliR6float2EE6__halfEvS1_PT2_l, address: 1748608, vaddr: 65536
Name: _ZL30dequantize_block_q8_0_f16_cudaPKvP6__halflP11CUstream_st, address: 1803888
	->Name: _ZL30dequantize_block_q8_0_f16_cudaPKvP6__halflP11CUstream_st, address: 1738352, vaddr: 65536
Name: _Z25dequantize_block_q8_0_f16ILb1EEvPKvP6__halfl, address: 1813024
	->Name: _Z25dequantize_block_q8_0_f16ILb1EEvPKvP6__halfl, address: 1747488, vaddr: 65536
Name: _Z25dequantize_block_q8_0_f16ILb0EEvPKvP6__halfl, address: 1812800
	->Name: _Z25dequantize_block_q8_0_f16ILb0EEvPKvP6__halfl, address: 1747264, vaddr: 65536
Name: _Z21dequantize_block_cudaILi32ELi2EXadL_ZL15dequantize_q5_1PKvliR6float2EE6__halfEvS1_PT2_lP11CUstream_st, address: 1804496
	->Name: _Z21dequantize_block_cudaILi32ELi2EXadL_ZL15dequantize_q5_1PKvliR6float2EE6__halfEvS1_PT2_lP11CUstream_st, address: 1738960, vaddr: 65536
Name: _Z16dequantize_blockILi32ELi2EXadL_ZL15dequantize_q5_1PKvliR6float2EE6__halfEvS1_PT2_l, address: 1813920
	->Name: _Z16dequantize_blockILi32ELi2EXadL_ZL15dequantize_q5_1PKvliR6float2EE6__halfEvS1_PT2_l, address: 1748384, vaddr: 65536
Name: _Z21dequantize_block_cudaILi32ELi2EXadL_ZL15dequantize_q5_0PKvliR6float2EE6__halfEvS1_PT2_lP11CUstream_st, address: 1804848
	->Name: _Z21dequantize_block_cudaILi32ELi2EXadL_ZL15dequantize_q5_0PKvliR6float2EE6__halfEvS1_PT2_lP11CUstream_st, address: 1739312, vaddr: 65536
Name: _Z16dequantize_blockILi32ELi2EXadL_ZL15dequantize_q5_0PKvliR6float2EE6__halfEvS1_PT2_l, address: 1813696
	->Name: _Z16dequantize_blockILi32ELi2EXadL_ZL15dequantize_q5_0PKvliR6float2EE6__halfEvS1_PT2_l, address: 1748160, vaddr: 65536
Name: _Z24dequantize_row_q4_1_cudaI6__halfEvPKvPT_lP11CUstream_st, address: 1805200
	->Name: _Z24dequantize_row_q4_1_cudaI6__halfEvPKvPT_lP11CUstream_st, address: 1739664, vaddr: 65536
Name: _Z21dequantize_block_q4_1I6__halfEvPKvPT_i, address: 1813472
	->Name: _Z21dequantize_block_q4_1I6__halfEvPKvPT_i, address: 1747936, vaddr: 65536
Name: _Z24dequantize_row_q4_0_cudaI6__halfEvPKvPT_lP11CUstream_st, address: 1805568
	->Name: _Z24dequantize_row_q4_0_cudaI6__halfEvPKvPT_lP11CUstream_st, address: 1740032, vaddr: 65536
Name: _Z21dequantize_block_q4_0I6__halfEvPKvPT_i, address: 1813248
	->Name: _Z21dequantize_block_q4_0I6__halfEvPKvPT_i, address: 1747712, vaddr: 65536
Name: _Z18convert_unary_cudaI6__halffEvPKvPT0_lP11CUstream_st, address: 1805936
	->Name: _Z18convert_unary_cudaI6__halffEvPKvPT0_lP11CUstream_st, address: 1740400, vaddr: 65536
Name: _Z13convert_unaryI6__halffEvPKvPT0_l, address: 1812576
	->Name: _Z13convert_unaryI6__halffEvPKvPT0_l, address: 1747040, vaddr: 65536
Name: _Z25dequantize_row_iq3_s_cudaIfEvPKvPT_lP11CUstream_st, address: 1806288
	->Name: _Z25dequantize_row_iq3_s_cudaIfEvPKvPT_lP11CUstream_st, address: 1740752, vaddr: 65536
Name: _Z22dequantize_block_iq3_sIfEvPKvPT_, address: 1818416
	->Name: _Z22dequantize_block_iq3_sIfEvPKvPT_, address: 1752880, vaddr: 65536
Name: _Z26dequantize_row_iq4_xs_cudaIfEvPKvPT_lP11CUstream_st, address: 1806608
	->Name: _Z26dequantize_row_iq4_xs_cudaIfEvPKvPT_lP11CUstream_st, address: 1741072, vaddr: 65536
Name: _Z23dequantize_block_iq4_xsIfEvPKvPT_, address: 1818208
	->Name: _Z23dequantize_block_iq4_xsIfEvPKvPT_, address: 1752672, vaddr: 65536
Name: _Z26dequantize_row_iq4_nl_cudaIfEvPKvPT_lP11CUstream_st, address: 1806928
	->Name: _Z26dequantize_row_iq4_nl_cudaIfEvPKvPT_lP11CUstream_st, address: 1741392, vaddr: 65536
Name: _Z23dequantize_block_iq4_nlIfEvPKvPT_, address: 1818000
	->Name: _Z23dequantize_block_iq4_nlIfEvPKvPT_, address: 1752464, vaddr: 65536
Name: _Z25dequantize_row_iq1_m_cudaIfEvPKvPT_lP11CUstream_st, address: 1807248
	->Name: _Z25dequantize_row_iq1_m_cudaIfEvPKvPT_lP11CUstream_st, address: 1741712, vaddr: 65536
Name: _Z22dequantize_block_iq1_mIfEvPKvPT_, address: 1817792
	->Name: _Z22dequantize_block_iq1_mIfEvPKvPT_, address: 1752256, vaddr: 65536
Name: _Z25dequantize_row_iq1_s_cudaIfEvPKvPT_lP11CUstream_st, address: 1807568
	->Name: _Z25dequantize_row_iq1_s_cudaIfEvPKvPT_lP11CUstream_st, address: 1742032, vaddr: 65536
Name: _Z22dequantize_block_iq1_sIfEvPKvPT_, address: 1817584
	->Name: _Z22dequantize_block_iq1_sIfEvPKvPT_, address: 1752048, vaddr: 65536
Name: _Z27dequantize_row_iq3_xxs_cudaIfEvPKvPT_lP11CUstream_st, address: 1807888
	->Name: _Z27dequantize_row_iq3_xxs_cudaIfEvPKvPT_lP11CUstream_st, address: 1742352, vaddr: 65536
Name: _Z24dequantize_block_iq3_xxsIfEvPKvPT_, address: 1817376
	->Name: _Z24dequantize_block_iq3_xxsIfEvPKvPT_, address: 1751840, vaddr: 65536
Name: _Z25dequantize_row_iq2_s_cudaIfEvPKvPT_lP11CUstream_st, address: 1808208
	->Name: _Z25dequantize_row_iq2_s_cudaIfEvPKvPT_lP11CUstream_st, address: 1742672, vaddr: 65536
Name: _Z22dequantize_block_iq2_sIfEvPKvPT_, address: 1817168
	->Name: _Z22dequantize_block_iq2_sIfEvPKvPT_, address: 1751632, vaddr: 65536
Name: _Z26dequantize_row_iq2_xs_cudaIfEvPKvPT_lP11CUstream_st, address: 1808528
	->Name: _Z26dequantize_row_iq2_xs_cudaIfEvPKvPT_lP11CUstream_st, address: 1742992, vaddr: 65536
Name: _Z23dequantize_block_iq2_xsIfEvPKvPT_, address: 1816960
	->Name: _Z23dequantize_block_iq2_xsIfEvPKvPT_, address: 1751424, vaddr: 65536
Name: _Z27dequantize_row_iq2_xxs_cudaIfEvPKvPT_lP11CUstream_st, address: 1808848
	->Name: _Z27dequantize_row_iq2_xxs_cudaIfEvPKvPT_lP11CUstream_st, address: 1743312, vaddr: 65536
Name: _Z24dequantize_block_iq2_xxsIfEvPKvPT_, address: 1816752
	->Name: _Z24dequantize_block_iq2_xxsIfEvPKvPT_, address: 1751216, vaddr: 65536
Name: _Z24dequantize_row_q6_K_cudaIfEvPKvPT_lP11CUstream_st, address: 1809168
	->Name: _Z24dequantize_row_q6_K_cudaIfEvPKvPT_lP11CUstream_st, address: 1743632, vaddr: 65536
Name: _Z21dequantize_block_q6_KIfEvPKvPT_, address: 1816544
	->Name: _Z21dequantize_block_q6_KIfEvPKvPT_, address: 1751008, vaddr: 65536
Name: _Z24dequantize_row_q5_K_cudaIfEvPKvPT_lP11CUstream_st, address: 1809488
	->Name: _Z24dequantize_row_q5_K_cudaIfEvPKvPT_lP11CUstream_st, address: 1743952, vaddr: 65536
Name: _Z21dequantize_block_q5_KIfEvPKvPT_, address: 1816336
	->Name: _Z21dequantize_block_q5_KIfEvPKvPT_, address: 1750800, vaddr: 65536
Name: _Z24dequantize_row_q4_K_cudaIfEvPKvPT_lP11CUstream_st, address: 1809808
	->Name: _Z24dequantize_row_q4_K_cudaIfEvPKvPT_lP11CUstream_st, address: 1744272, vaddr: 65536
Name: _Z21dequantize_block_q4_KIfEvPKvPT_, address: 1816128
	->Name: _Z21dequantize_block_q4_KIfEvPKvPT_, address: 1750592, vaddr: 65536
Name: _Z24dequantize_row_q3_K_cudaIfEvPKvPT_lP11CUstream_st, address: 1810128
	->Name: _Z24dequantize_row_q3_K_cudaIfEvPKvPT_lP11CUstream_st, address: 1744592, vaddr: 65536
Name: _Z21dequantize_block_q3_KIfEvPKvPT_, address: 1815920
	->Name: _Z21dequantize_block_q3_KIfEvPKvPT_, address: 1750384, vaddr: 65536
Name: _Z24dequantize_row_q2_K_cudaIfEvPKvPT_lP11CUstream_st, address: 1810448
	->Name: _Z24dequantize_row_q2_K_cudaIfEvPKvPT_lP11CUstream_st, address: 1744912, vaddr: 65536
Name: _Z21dequantize_block_q2_KIfEvPKvPT_, address: 1815712
	->Name: _Z21dequantize_block_q2_KIfEvPKvPT_, address: 1750176, vaddr: 65536
Name: _Z21dequantize_block_cudaILi32ELi1EXadL_ZL15dequantize_q8_0PKvliR6float2EEfEvS1_PT2_lP11CUstream_st, address: 1810768
	->Name: _Z21dequantize_block_cudaILi32ELi1EXadL_ZL15dequantize_q8_0PKvliR6float2EEfEvS1_PT2_lP11CUstream_st, address: 1745232, vaddr: 65536
Name: _Z16dequantize_blockILi32ELi1EXadL_ZL15dequantize_q8_0PKvliR6float2EEfEvS1_PT2_l, address: 1815488
	->Name: _Z16dequantize_blockILi32ELi1EXadL_ZL15dequantize_q8_0PKvliR6float2EEfEvS1_PT2_l, address: 1749952, vaddr: 65536
Name: _Z21dequantize_block_cudaILi32ELi2EXadL_ZL15dequantize_q5_1PKvliR6float2EEfEvS1_PT2_lP11CUstream_st, address: 1811120
	->Name: _Z21dequantize_block_cudaILi32ELi2EXadL_ZL15dequantize_q5_1PKvliR6float2EEfEvS1_PT2_lP11CUstream_st, address: 1745584, vaddr: 65536
Name: _Z16dequantize_blockILi32ELi2EXadL_ZL15dequantize_q5_1PKvliR6float2EEfEvS1_PT2_l, address: 1815264
	->Name: _Z16dequantize_blockILi32ELi2EXadL_ZL15dequantize_q5_1PKvliR6float2EEfEvS1_PT2_l, address: 1749728, vaddr: 65536
Name: _Z21dequantize_block_cudaILi32ELi2EXadL_ZL15dequantize_q5_0PKvliR6float2EEfEvS1_PT2_lP11CUstream_st, address: 1811472
	->Name: _Z21dequantize_block_cudaILi32ELi2EXadL_ZL15dequantize_q5_0PKvliR6float2EEfEvS1_PT2_lP11CUstream_st, address: 1745936, vaddr: 65536
Name: _Z16dequantize_blockILi32ELi2EXadL_ZL15dequantize_q5_0PKvliR6float2EEfEvS1_PT2_l, address: 1815040
	->Name: _Z16dequantize_blockILi32ELi2EXadL_ZL15dequantize_q5_0PKvliR6float2EEfEvS1_PT2_l, address: 1749504, vaddr: 65536
Name: _Z24dequantize_row_q4_1_cudaIfEvPKvPT_lP11CUstream_st, address: 1811824
	->Name: _Z24dequantize_row_q4_1_cudaIfEvPKvPT_lP11CUstream_st, address: 1746288, vaddr: 65536
Name: _Z21dequantize_block_q4_1IfEvPKvPT_i, address: 1814816
	->Name: _Z21dequantize_block_q4_1IfEvPKvPT_i, address: 1749280, vaddr: 65536
Name: _Z24dequantize_row_q4_0_cudaIfEvPKvPT_lP11CUstream_st, address: 1812192
	->Name: _Z24dequantize_row_q4_0_cudaIfEvPKvPT_lP11CUstream_st, address: 1746656, vaddr: 65536
Name: _Z21dequantize_block_q4_0IfEvPKvPT_i, address: 1814592
	->Name: _Z21dequantize_block_q4_0IfEvPKvPT_i, address: 1749056, vaddr: 65536
Name: _ZL26__cudaUnregisterBinaryUtilv, address: 1812560
	->Name: _ZL26__cudaUnregisterBinaryUtilv, address: 1747024, vaddr: 65536
Name: _ZL24__sti____cudaRegisterAllv, address: 200336
	->Name: _ZL24__sti____cudaRegisterAllv, address: 134800, vaddr: 65536
Name: _ZL26__cudaUnregisterBinaryUtilv, address: 1822272
	->Name: _ZL26__cudaUnregisterBinaryUtilv, address: 1756736, vaddr: 65536
Name: _ZL21ggml_cpy_f16_f16_cudaPKcPciiiiiiiiiiiiiiiP11CUstream_st, address: 1822288
	->Name: _ZL21ggml_cpy_f16_f16_cudaPKcPciiiiiiiiiiiiiiiP11CUstream_st, address: 1756752, vaddr: 65536
Name: _Z11cpy_f32_f16IXadL_ZL13cpy_1_f16_f16PKcPcEEEvS1_S2_iiiiiiiiiiiiiii, address: 1830992
	->Name: _Z11cpy_f32_f16IXadL_ZL13cpy_1_f16_f16PKcPcEEEvS1_S2_iiiiiiiiiiiiiii, address: 1765456, vaddr: 65536
Name: _ZL24ggml_cpy_f32_iq4_nl_cudaPKcPciiiiiiiiiiiiiiiP11CUstream_st, address: 1823040
	->Name: _ZL24ggml_cpy_f32_iq4_nl_cudaPKcPciiiiiiiiiiiiiiiP11CUstream_st, address: 1757504, vaddr: 65536
Name: _Z9cpy_f32_qIXadL_ZL19cpy_blck_f32_iq4_nlPKcPcEELi32EEvS1_S2_iiiiiiiiiiiiiii, address: 1830384
	->Name: _Z9cpy_f32_qIXadL_ZL19cpy_blck_f32_iq4_nlPKcPcEELi32EEvS1_S2_iiiiiiiiiiiiiii, address: 1764848, vaddr: 65536
Name: _ZL22ggml_cpy_f32_q5_1_cudaPKcPciiiiiiiiiiiiiiiP11CUstream_st, address: 1823888
	->Name: _ZL22ggml_cpy_f32_q5_1_cudaPKcPciiiiiiiiiiiiiiiP11CUstream_st, address: 1758352, vaddr: 65536
Name: _Z9cpy_f32_qIXadL_ZL17cpy_blck_f32_q5_1PKcPcEELi32EEvS1_S2_iiiiiiiiiiiiiii, address: 1832208
	->Name: _Z9cpy_f32_qIXadL_ZL17cpy_blck_f32_q5_1PKcPcEELi32EEvS1_S2_iiiiiiiiiiiiiii, address: 1766672, vaddr: 65536
Name: _ZL22ggml_cpy_f32_q5_0_cudaPKcPciiiiiiiiiiiiiiiP11CUstream_st, address: 1824736
	->Name: _ZL22ggml_cpy_f32_q5_0_cudaPKcPciiiiiiiiiiiiiiiP11CUstream_st, address: 1759200, vaddr: 65536
Name: _Z9cpy_f32_qIXadL_ZL17cpy_blck_f32_q5_0PKcPcEELi32EEvS1_S2_iiiiiiiiiiiiiii, address: 1833424
	->Name: _Z9cpy_f32_qIXadL_ZL17cpy_blck_f32_q5_0PKcPcEELi32EEvS1_S2_iiiiiiiiiiiiiii, address: 1767888, vaddr: 65536
Name: _ZL22ggml_cpy_f32_q4_1_cudaPKcPciiiiiiiiiiiiiiiP11CUstream_st, address: 1825584
	->Name: _ZL22ggml_cpy_f32_q4_1_cudaPKcPciiiiiiiiiiiiiiiP11CUstream_st, address: 1760048, vaddr: 65536
Name: _Z9cpy_f32_qIXadL_ZL17cpy_blck_f32_q4_1PKcPcEELi32EEvS1_S2_iiiiiiiiiiiiiii, address: 1832816
	->Name: _Z9cpy_f32_qIXadL_ZL17cpy_blck_f32_q4_1PKcPcEELi32EEvS1_S2_iiiiiiiiiiiiiii, address: 1767280, vaddr: 65536
Name: _ZL22ggml_cpy_f32_q4_0_cudaPKcPciiiiiiiiiiiiiiiP11CUstream_st, address: 1826432
	->Name: _ZL22ggml_cpy_f32_q4_0_cudaPKcPciiiiiiiiiiiiiiiP11CUstream_st, address: 1760896, vaddr: 65536
Name: _Z9cpy_f32_qIXadL_ZL17cpy_blck_f32_q4_0PKcPcEELi32EEvS1_S2_iiiiiiiiiiiiiii, address: 1835856
	->Name: _Z9cpy_f32_qIXadL_ZL17cpy_blck_f32_q4_0PKcPcEELi32EEvS1_S2_iiiiiiiiiiiiiii, address: 1770320, vaddr: 65536
Name: _ZL22ggml_cpy_f32_q8_0_cudaPKcPciiiiiiiiiiiiiiiP11CUstream_st, address: 1827280
	->Name: _ZL22ggml_cpy_f32_q8_0_cudaPKcPciiiiiiiiiiiiiiiP11CUstream_st, address: 1761744, vaddr: 65536
Name: _Z9cpy_f32_qIXadL_ZL17cpy_blck_f32_q8_0PKcPcEELi32EEvS1_S2_iiiiiiiiiiiiiii, address: 1835248
	->Name: _Z9cpy_f32_qIXadL_ZL17cpy_blck_f32_q8_0PKcPcEELi32EEvS1_S2_iiiiiiiiiiiiiii, address: 1769712, vaddr: 65536
Name: _ZL21ggml_cpy_f32_f16_cudaPKcPciiiiiiiiiiiiiiiP11CUstream_st, address: 1828128
	->Name: _ZL21ggml_cpy_f32_f16_cudaPKcPciiiiiiiiiiiiiiiP11CUstream_st, address: 1762592, vaddr: 65536
Name: _Z11cpy_f32_f16IXadL_ZL13cpy_1_f32_f16PKcPcEEEvS1_S2_iiiiiiiiiiiiiii, address: 1834640
	->Name: _Z11cpy_f32_f16IXadL_ZL13cpy_1_f32_f16PKcPcEEEvS1_S2_iiiiiiiiiiiiiii, address: 1769104, vaddr: 65536
Name: _ZL21ggml_cpy_f32_f32_cudaPKcPciiiiiiiiiiiiiiiP11CUstream_st, address: 1828880
	->Name: _ZL21ggml_cpy_f32_f32_cudaPKcPciiiiiiiiiiiiiiiP11CUstream_st, address: 1763344, vaddr: 65536
Name: _Z11cpy_f32_f16IXadL_ZL13cpy_1_f32_f32PKcPcEEEvS1_S2_iiiiiiiiiiiiiii, address: 1834032
	->Name: _Z11cpy_f32_f16IXadL_ZL13cpy_1_f32_f32PKcPcEEEvS1_S2_iiiiiiiiiiiiiii, address: 1768496, vaddr: 65536
Name: _ZL21ggml_cpy_f16_f32_cudaPKcPciiiiiiiiiiiiiiiP11CUstream_st, address: 1829632
	->Name: _ZL21ggml_cpy_f16_f32_cudaPKcPciiiiiiiiiiiiiiiP11CUstream_st, address: 1764096, vaddr: 65536
Name: _Z11cpy_f32_f16IXadL_ZL13cpy_1_f16_f32PKcPcEEEvS1_S2_iiiiiiiiiiiiiii, address: 1831600
	->Name: _Z11cpy_f32_f16IXadL_ZL13cpy_1_f16_f32PKcPcEEEvS1_S2_iiiiiiiiiiiiiii, address: 1766064, vaddr: 65536
Name: _ZL24__sti____cudaRegisterAllv, address: 202736
	->Name: _ZL24__sti____cudaRegisterAllv, address: 137200, vaddr: 65536
Name: _ZL26__cudaUnregisterBinaryUtilv, address: 1838304
	->Name: _ZL26__cudaUnregisterBinaryUtilv, address: 1772768, vaddr: 65536
Name: _ZL17diag_mask_inf_f32PKfPfiii, address: 1838320
	->Name: _ZL17diag_mask_inf_f32PKfPfiii, address: 1772784, vaddr: 65536
Name: _ZL24__sti____cudaRegisterAllv, address: 203664
	->Name: _ZL24__sti____cudaRegisterAllv, address: 138128, vaddr: 65536
Name: _ZL26__cudaUnregisterBinaryUtilv, address: 1839280
	->Name: _ZL26__cudaUnregisterBinaryUtilv, address: 1773744, vaddr: 65536
Name: _ZL27dequantize_mul_mat_vec_q2_kPKvPKfPfii, address: 1839296
	->Name: _ZL27dequantize_mul_mat_vec_q2_kPKvPKfPfii, address: 1773760, vaddr: 65536
Name: _ZL27dequantize_mul_mat_vec_q3_kPKvPKfPfii, address: 1839568
	->Name: _ZL27dequantize_mul_mat_vec_q3_kPKvPKfPfii, address: 1774032, vaddr: 65536
Name: _ZL27dequantize_mul_mat_vec_q4_kPKvPKfPfii, address: 1839840
	->Name: _ZL27dequantize_mul_mat_vec_q4_kPKvPKfPfii, address: 1774304, vaddr: 65536
Name: _ZL27dequantize_mul_mat_vec_q6_kPKvPKfPfii, address: 1840112
	->Name: _ZL27dequantize_mul_mat_vec_q6_kPKvPKfPfii, address: 1774576, vaddr: 65536
Name: _Z22dequantize_mul_mat_vecILi32ELi2EXadL_ZL15dequantize_q4_0PKvliR6float2EEEvS1_PKfPfii, address: 1840384
	->Name: _Z22dequantize_mul_mat_vecILi32ELi2EXadL_ZL15dequantize_q4_0PKvliR6float2EEEvS1_PKfPfii, address: 1774848, vaddr: 65536
Name: _Z22dequantize_mul_mat_vecILi32ELi2EXadL_ZL15dequantize_q4_1PKvliR6float2EEEvS1_PKfPfii, address: 1840656
	->Name: _Z22dequantize_mul_mat_vecILi32ELi2EXadL_ZL15dequantize_q4_1PKvliR6float2EEEvS1_PKfPfii, address: 1775120, vaddr: 65536
Name: _Z22dequantize_mul_mat_vecILi32ELi2EXadL_ZL15dequantize_q5_0PKvliR6float2EEEvS1_PKfPfii, address: 1840928
	->Name: _Z22dequantize_mul_mat_vecILi32ELi2EXadL_ZL15dequantize_q5_0PKvliR6float2EEEvS1_PKfPfii, address: 1775392, vaddr: 65536
Name: _Z22dequantize_mul_mat_vecILi32ELi2EXadL_ZL15dequantize_q5_1PKvliR6float2EEEvS1_PKfPfii, address: 1841200
	->Name: _Z22dequantize_mul_mat_vecILi32ELi2EXadL_ZL15dequantize_q5_1PKvliR6float2EEEvS1_PKfPfii, address: 1775664, vaddr: 65536
Name: _Z22dequantize_mul_mat_vecILi32ELi1EXadL_ZL15dequantize_q8_0PKvliR6float2EEEvS1_PKfPfii, address: 1841472
	->Name: _Z22dequantize_mul_mat_vecILi32ELi1EXadL_ZL15dequantize_q8_0PKvliR6float2EEEvS1_PKfPfii, address: 1775936, vaddr: 65536
Name: _Z22dequantize_mul_mat_vecILi1ELi1EXadL_ZL11convert_f16PKvliR6float2EEEvS1_PKfPfii, address: 1841744
	->Name: _Z22dequantize_mul_mat_vecILi1ELi1EXadL_ZL11convert_f16PKvliR6float2EEEvS1_PKfPfii, address: 1776208, vaddr: 65536
Name: _ZL27dequantize_mul_mat_vec_q5_kPKvPKfPfi, address: 1842016
	->Name: _ZL27dequantize_mul_mat_vec_q5_kPKvPKfPfi, address: 1776480, vaddr: 65536
Name: _ZL24__sti____cudaRegisterAllv, address: 204176
	->Name: _ZL24__sti____cudaRegisterAllv, address: 138640, vaddr: 65536
Name: _ZL110__device_stub__Z18flash_attn_ext_f16ILi64ELi16ELi4ELi64ELi4EfEvPKcS1_S1_S1_PfP6float2ffffjiiiiiiiiiiiiiiiiiiiiPKcS0_S0_S0_PfP6float2ffffjiiiiiiiiiiiiiiiiiiii, address: 1846592
	->Name: _ZL110__device_stub__Z18flash_attn_ext_f16ILi64ELi16ELi4ELi64ELi4EfEvPKcS1_S1_S1_PfP6float2ffffjiiiiiiiiiiiiiiiiiiiiPKcS0_S0_S0_PfP6float2ffffjiiiiiiiiiiiiiiiiiiii, address: 1781056, vaddr: 65536
Name: _Z18flash_attn_ext_f16ILi64ELi16ELi4ELi64ELi4EfEvPKcS1_S1_S1_PfP6float2ffffjiiiiiiiiiiiiiiiiiiii, address: 1914048
	->Name: _Z18flash_attn_ext_f16ILi64ELi16ELi4ELi64ELi4EfEvPKcS1_S1_S1_PfP6float2ffffjiiiiiiiiiiiiiiiiiiii, address: 1848512, vaddr: 65536
Name: _ZL70__device_stub__Z26flash_attn_combine_resultsILi64ELi4EEvPKfPK6float2PfPKfPK6float2Pf, address: 1847376
	->Name: _ZL70__device_stub__Z26flash_attn_combine_resultsILi64ELi4EEvPKfPK6float2PfPKfPK6float2Pf, address: 1781840, vaddr: 65536
Name: _Z26flash_attn_combine_resultsILi64ELi4EEvPKfPK6float2Pf, address: 1916672
	->Name: _Z26flash_attn_combine_resultsILi64ELi4EEvPKfPK6float2Pf, address: 1851136, vaddr: 65536
Name: _ZL110__device_stub__Z18flash_attn_ext_f16ILi64ELi16ELi4ELi64ELi2EfEvPKcS1_S1_S1_PfP6float2ffffjiiiiiiiiiiiiiiiiiiiiPKcS0_S0_S0_PfP6float2ffffjiiiiiiiiiiiiiiiiiiii, address: 1847584
	->Name: _ZL110__device_stub__Z18flash_attn_ext_f16ILi64ELi16ELi4ELi64ELi2EfEvPKcS1_S1_S1_PfP6float2ffffjiiiiiiiiiiiiiiiiiiiiPKcS0_S0_S0_PfP6float2ffffjiiiiiiiiiiiiiiiiiiii, address: 1782048, vaddr: 65536
Name: _Z18flash_attn_ext_f16ILi64ELi16ELi4ELi64ELi2EfEvPKcS1_S1_S1_PfP6float2ffffjiiiiiiiiiiiiiiiiiiii, address: 1914064
	->Name: _Z18flash_attn_ext_f16ILi64ELi16ELi4ELi64ELi2EfEvPKcS1_S1_S1_PfP6float2ffffjiiiiiiiiiiiiiiiiiiii, address: 1848528, vaddr: 65536
Name: _ZL70__device_stub__Z26flash_attn_combine_resultsILi64ELi2EEvPKfPK6float2PfPKfPK6float2Pf, address: 1848368
	->Name: _ZL70__device_stub__Z26flash_attn_combine_resultsILi64ELi2EEvPKfPK6float2PfPKfPK6float2Pf, address: 1782832, vaddr: 65536
Name: _Z26flash_attn_combine_resultsILi64ELi2EEvPKfPK6float2Pf, address: 1916896
	->Name: _Z26flash_attn_combine_resultsILi64ELi2EEvPKfPK6float2Pf, address: 1851360, vaddr: 65536
Name: _ZL110__device_stub__Z18flash_attn_ext_f16ILi64ELi16ELi4ELi64ELi1EfEvPKcS1_S1_S1_PfP6float2ffffjiiiiiiiiiiiiiiiiiiiiPKcS0_S0_S0_PfP6float2ffffjiiiiiiiiiiiiiiiiiiii, address: 1848576
	->Name: _ZL110__device_stub__Z18flash_attn_ext_f16ILi64ELi16ELi4ELi64ELi1EfEvPKcS1_S1_S1_PfP6float2ffffjiiiiiiiiiiiiiiiiiiiiPKcS0_S0_S0_PfP6float2ffffjiiiiiiiiiiiiiiiiiiii, address: 1783040, vaddr: 65536
Name: _Z18flash_attn_ext_f16ILi64ELi16ELi4ELi64ELi1EfEvPKcS1_S1_S1_PfP6float2ffffjiiiiiiiiiiiiiiiiiiii, address: 1914080
	->Name: _Z18flash_attn_ext_f16ILi64ELi16ELi4ELi64ELi1EfEvPKcS1_S1_S1_PfP6float2ffffjiiiiiiiiiiiiiiiiiiii, address: 1848544, vaddr: 65536
Name: _ZL110__device_stub__Z18flash_attn_ext_f16ILi80ELi16ELi4ELi16ELi4EfEvPKcS1_S1_S1_PfP6float2ffffjiiiiiiiiiiiiiiiiiiiiPKcS0_S0_S0_PfP6float2ffffjiiiiiiiiiiiiiiiiiiii, address: 1849360
	->Name: _ZL110__device_stub__Z18flash_attn_ext_f16ILi80ELi16ELi4ELi16ELi4EfEvPKcS1_S1_S1_PfP6float2ffffjiiiiiiiiiiiiiiiiiiiiPKcS0_S0_S0_PfP6float2ffffjiiiiiiiiiiiiiiiiiiii, address: 1783824, vaddr: 65536
Name: _Z18flash_attn_ext_f16ILi80ELi16ELi4ELi16ELi4EfEvPKcS1_S1_S1_PfP6float2ffffjiiiiiiiiiiiiiiiiiiii, address: 1914096
	->Name: _Z18flash_attn_ext_f16ILi80ELi16ELi4ELi16ELi4EfEvPKcS1_S1_S1_PfP6float2ffffjiiiiiiiiiiiiiiiiiiii, address: 1848560, vaddr: 65536
Name: _ZL70__device_stub__Z26flash_attn_combine_resultsILi80ELi4EEvPKfPK6float2PfPKfPK6float2Pf, address: 1850144
	->Name: _ZL70__device_stub__Z26flash_attn_combine_resultsILi80ELi4EEvPKfPK6float2PfPKfPK6float2Pf, address: 1784608, vaddr: 65536
Name: _Z26flash_attn_combine_resultsILi80ELi4EEvPKfPK6float2Pf, address: 1916224
	->Name: _Z26flash_attn_combine_resultsILi80ELi4EEvPKfPK6float2Pf, address: 1850688, vaddr: 65536
Name: _ZL110__device_stub__Z18flash_attn_ext_f16ILi80ELi16ELi4ELi16ELi2EfEvPKcS1_S1_S1_PfP6float2ffffjiiiiiiiiiiiiiiiiiiiiPKcS0_S0_S0_PfP6float2ffffjiiiiiiiiiiiiiiiiiiii, address: 1850352
	->Name: _ZL110__device_stub__Z18flash_attn_ext_f16ILi80ELi16ELi4ELi16ELi2EfEvPKcS1_S1_S1_PfP6float2ffffjiiiiiiiiiiiiiiiiiiiiPKcS0_S0_S0_PfP6float2ffffjiiiiiiiiiiiiiiiiiiii, address: 1784816, vaddr: 65536
Name: _Z18flash_attn_ext_f16ILi80ELi16ELi4ELi16ELi2EfEvPKcS1_S1_S1_PfP6float2ffffjiiiiiiiiiiiiiiiiiiii, address: 1914112
	->Name: _Z18flash_attn_ext_f16ILi80ELi16ELi4ELi16ELi2EfEvPKcS1_S1_S1_PfP6float2ffffjiiiiiiiiiiiiiiiiiiii, address: 1848576, vaddr: 65536
Name: _ZL70__device_stub__Z26flash_attn_combine_resultsILi80ELi2EEvPKfPK6float2PfPKfPK6float2Pf, address: 1851136
	->Name: _ZL70__device_stub__Z26flash_attn_combine_resultsILi80ELi2EEvPKfPK6float2PfPKfPK6float2Pf, address: 1785600, vaddr: 65536
Name: _Z26flash_attn_combine_resultsILi80ELi2EEvPKfPK6float2Pf, address: 1916448
	->Name: _Z26flash_attn_combine_resultsILi80ELi2EEvPKfPK6float2Pf, address: 1850912, vaddr: 65536
Name: _ZL110__device_stub__Z18flash_attn_ext_f16ILi80ELi16ELi4ELi16ELi1EfEvPKcS1_S1_S1_PfP6float2ffffjiiiiiiiiiiiiiiiiiiiiPKcS0_S0_S0_PfP6float2ffffjiiiiiiiiiiiiiiiiiiii, address: 1851344
	->Name: _ZL110__device_stub__Z18flash_attn_ext_f16ILi80ELi16ELi4ELi16ELi1EfEvPKcS1_S1_S1_PfP6float2ffffjiiiiiiiiiiiiiiiiiiiiPKcS0_S0_S0_PfP6float2ffffjiiiiiiiiiiiiiiiiiiii, address: 1785808, vaddr: 65536
Name: _Z18flash_attn_ext_f16ILi80ELi16ELi4ELi16ELi1EfEvPKcS1_S1_S1_PfP6float2ffffjiiiiiiiiiiiiiiiiiiii, address: 1914128
	->Name: _Z18flash_attn_ext_f16ILi80ELi16ELi4ELi16ELi1EfEvPKcS1_S1_S1_PfP6float2ffffjiiiiiiiiiiiiiiiiiiii, address: 1848592, vaddr: 65536
Name: _ZL110__device_stub__Z18flash_attn_ext_f16ILi96ELi16ELi4ELi32ELi4EfEvPKcS1_S1_S1_PfP6float2ffffjiiiiiiiiiiiiiiiiiiiiPKcS0_S0_S0_PfP6float2ffffjiiiiiiiiiiiiiiiiiiii, address: 1852128
	->Name: _ZL110__device_stub__Z18flash_attn_ext_f16ILi96ELi16ELi4ELi32ELi4EfEvPKcS1_S1_S1_PfP6float2ffffjiiiiiiiiiiiiiiiiiiiiPKcS0_S0_S0_PfP6float2ffffjiiiiiiiiiiiiiiiiiiii, address: 1786592, vaddr: 65536
Name: _Z18flash_attn_ext_f16ILi96ELi16ELi4ELi32ELi4EfEvPKcS1_S1_S1_PfP6float2ffffjiiiiiiiiiiiiiiiiiiii, address: 1914144
	->Name: _Z18flash_attn_ext_f16ILi96ELi16ELi4ELi32ELi4EfEvPKcS1_S1_S1_PfP6float2ffffjiiiiiiiiiiiiiiiiiiii, address: 1848608, vaddr: 65536
Name: _ZL70__device_stub__Z26flash_attn_combine_resultsILi96ELi4EEvPKfPK6float2PfPKfPK6float2Pf, address: 1852912
	->Name: _ZL70__device_stub__Z26flash_attn_combine_resultsILi96ELi4EEvPKfPK6float2PfPKfPK6float2Pf, address: 1787376, vaddr: 65536
Name: _Z26flash_attn_combine_resultsILi96ELi4EEvPKfPK6float2Pf, address: 1917120
	->Name: _Z26flash_attn_combine_resultsILi96ELi4EEvPKfPK6float2Pf, address: 1851584, vaddr: 65536
Name: _ZL110__device_stub__Z18flash_attn_ext_f16ILi96ELi16ELi4ELi32ELi2EfEvPKcS1_S1_S1_PfP6float2ffffjiiiiiiiiiiiiiiiiiiiiPKcS0_S0_S0_PfP6float2ffffjiiiiiiiiiiiiiiiiiiii, address: 1853120
	->Name: _ZL110__device_stub__Z18flash_attn_ext_f16ILi96ELi16ELi4ELi32ELi2EfEvPKcS1_S1_S1_PfP6float2ffffjiiiiiiiiiiiiiiiiiiiiPKcS0_S0_S0_PfP6float2ffffjiiiiiiiiiiiiiiiiiiii, address: 1787584, vaddr: 65536
Name: _Z18flash_attn_ext_f16ILi96ELi16ELi4ELi32ELi2EfEvPKcS1_S1_S1_PfP6float2ffffjiiiiiiiiiiiiiiiiiiii, address: 1914160
	->Name: _Z18flash_attn_ext_f16ILi96ELi16ELi4ELi32ELi2EfEvPKcS1_S1_S1_PfP6float2ffffjiiiiiiiiiiiiiiiiiiii, address: 1848624, vaddr: 65536
Name: _ZL70__device_stub__Z26flash_attn_combine_resultsILi96ELi2EEvPKfPK6float2PfPKfPK6float2Pf, address: 1853904
	->Name: _ZL70__device_stub__Z26flash_attn_combine_resultsILi96ELi2EEvPKfPK6float2PfPKfPK6float2Pf, address: 1788368, vaddr: 65536
Name: _Z26flash_attn_combine_resultsILi96ELi2EEvPKfPK6float2Pf, address: 1917344
	->Name: _Z26flash_attn_combine_resultsILi96ELi2EEvPKfPK6float2Pf, address: 1851808, vaddr: 65536
Name: _ZL110__device_stub__Z18flash_attn_ext_f16ILi96ELi16ELi4ELi32ELi1EfEvPKcS1_S1_S1_PfP6float2ffffjiiiiiiiiiiiiiiiiiiiiPKcS0_S0_S0_PfP6float2ffffjiiiiiiiiiiiiiiiiiiii, address: 1854112
	->Name: _ZL110__device_stub__Z18flash_attn_ext_f16ILi96ELi16ELi4ELi32ELi1EfEvPKcS1_S1_S1_PfP6float2ffffjiiiiiiiiiiiiiiiiiiiiPKcS0_S0_S0_PfP6float2ffffjiiiiiiiiiiiiiiiiiiii, address: 1788576, vaddr: 65536
Name: _Z18flash_attn_ext_f16ILi96ELi16ELi4ELi32ELi1EfEvPKcS1_S1_S1_PfP6float2ffffjiiiiiiiiiiiiiiiiiiii, address: 1914176
	->Name: _Z18flash_attn_ext_f16ILi96ELi16ELi4ELi32ELi1EfEvPKcS1_S1_S1_PfP6float2ffffjiiiiiiiiiiiiiiiiiiii, address: 1848640, vaddr: 65536
Name: _ZL111__device_stub__Z18flash_attn_ext_f16ILi112ELi16ELi4ELi16ELi4EfEvPKcS1_S1_S1_PfP6float2ffffjiiiiiiiiiiiiiiiiiiiiPKcS0_S0_S0_PfP6float2ffffjiiiiiiiiiiiiiiiiiiii, address: 1854896
	->Name: _ZL111__device_stub__Z18flash_attn_ext_f16ILi112ELi16ELi4ELi16ELi4EfEvPKcS1_S1_S1_PfP6float2ffffjiiiiiiiiiiiiiiiiiiiiPKcS0_S0_S0_PfP6float2ffffjiiiiiiiiiiiiiiiiiiii, address: 1789360, vaddr: 65536
Name: _Z18flash_attn_ext_f16ILi112ELi16ELi4ELi16ELi4EfEvPKcS1_S1_S1_PfP6float2ffffjiiiiiiiiiiiiiiiiiiii, address: 1914192
	->Name: _Z18flash_attn_ext_f16ILi112ELi16ELi4ELi16ELi4EfEvPKcS1_S1_S1_PfP6float2ffffjiiiiiiiiiiiiiiiiiiii, address: 1848656, vaddr: 65536
Name: _ZL71__device_stub__Z26flash_attn_combine_resultsILi112ELi4EEvPKfPK6float2PfPKfPK6float2Pf, address: 1855680
	->Name: _ZL71__device_stub__Z26flash_attn_combine_resultsILi112ELi4EEvPKfPK6float2PfPKfPK6float2Pf, address: 1790144, vaddr: 65536
Name: _Z26flash_attn_combine_resultsILi112ELi4EEvPKfPK6float2Pf, address: 1915776
	->Name: _Z26flash_attn_combine_resultsILi112ELi4EEvPKfPK6float2Pf, address: 1850240, vaddr: 65536
Name: _ZL111__device_stub__Z18flash_attn_ext_f16ILi112ELi16ELi4ELi16ELi2EfEvPKcS1_S1_S1_PfP6float2ffffjiiiiiiiiiiiiiiiiiiiiPKcS0_S0_S0_PfP6float2ffffjiiiiiiiiiiiiiiiiiiii, address: 1855888
	->Name: _ZL111__device_stub__Z18flash_attn_ext_f16ILi112ELi16ELi4ELi16ELi2EfEvPKcS1_S1_S1_PfP6float2ffffjiiiiiiiiiiiiiiiiiiiiPKcS0_S0_S0_PfP6float2ffffjiiiiiiiiiiiiiiiiiiii, address: 1790352, vaddr: 65536
Name: _Z18flash_attn_ext_f16ILi112ELi16ELi4ELi16ELi2EfEvPKcS1_S1_S1_PfP6float2ffffjiiiiiiiiiiiiiiiiiiii, address: 1914208
	->Name: _Z18flash_attn_ext_f16ILi112ELi16ELi4ELi16ELi2EfEvPKcS1_S1_S1_PfP6float2ffffjiiiiiiiiiiiiiiiiiiii, address: 1848672, vaddr: 65536
Name: _ZL71__device_stub__Z26flash_attn_combine_resultsILi112ELi2EEvPKfPK6float2PfPKfPK6float2Pf, address: 1856672
	->Name: _ZL71__device_stub__Z26flash_attn_combine_resultsILi112ELi2EEvPKfPK6float2PfPKfPK6float2Pf, address: 1791136, vaddr: 65536
Name: _Z26flash_attn_combine_resultsILi112ELi2EEvPKfPK6float2Pf, address: 1916000
	->Name: _Z26flash_attn_combine_resultsILi112ELi2EEvPKfPK6float2Pf, address: 1850464, vaddr: 65536
Name: _ZL111__device_stub__Z18flash_attn_ext_f16ILi112ELi16ELi4ELi16ELi1EfEvPKcS1_S1_S1_PfP6float2ffffjiiiiiiiiiiiiiiiiiiiiPKcS0_S0_S0_PfP6float2ffffjiiiiiiiiiiiiiiiiiiii, address: 1856880
	->Name: _ZL111__device_stub__Z18flash_attn_ext_f16ILi112ELi16ELi4ELi16ELi1EfEvPKcS1_S1_S1_PfP6float2ffffjiiiiiiiiiiiiiiiiiiiiPKcS0_S0_S0_PfP6float2ffffjiiiiiiiiiiiiiiiiiiii, address: 1791344, vaddr: 65536
Name: _Z18flash_attn_ext_f16ILi112ELi16ELi4ELi16ELi1EfEvPKcS1_S1_S1_PfP6float2ffffjiiiiiiiiiiiiiiiiiiii, address: 1914224
	->Name: _Z18flash_attn_ext_f16ILi112ELi16ELi4ELi16ELi1EfEvPKcS1_S1_S1_PfP6float2ffffjiiiiiiiiiiiiiiiiiiii, address: 1848688, vaddr: 65536
Name: _ZL111__device_stub__Z18flash_attn_ext_f16ILi128ELi16ELi4ELi64ELi4EfEvPKcS1_S1_S1_PfP6float2ffffjiiiiiiiiiiiiiiiiiiiiPKcS0_S0_S0_PfP6float2ffffjiiiiiiiiiiiiiiiiiiii, address: 1857664
	->Name: _ZL111__device_stub__Z18flash_attn_ext_f16ILi128ELi16ELi4ELi64ELi4EfEvPKcS1_S1_S1_PfP6float2ffffjiiiiiiiiiiiiiiiiiiiiPKcS0_S0_S0_PfP6float2ffffjiiiiiiiiiiiiiiiiiiii, address: 1792128, vaddr: 65536
Name: _Z18flash_attn_ext_f16ILi128ELi16ELi4ELi64ELi4EfEvPKcS1_S1_S1_PfP6float2ffffjiiiiiiiiiiiiiiiiiiii, address: 1914240
	->Name: _Z18flash_attn_ext_f16ILi128ELi16ELi4ELi64ELi4EfEvPKcS1_S1_S1_PfP6float2ffffjiiiiiiiiiiiiiiiiiiii, address: 1848704, vaddr: 65536
Name: _ZL71__device_stub__Z26flash_attn_combine_resultsILi128ELi4EEvPKfPK6float2PfPKfPK6float2Pf, address: 1858448
	->Name: _ZL71__device_stub__Z26flash_attn_combine_resultsILi128ELi4EEvPKfPK6float2PfPKfPK6float2Pf, address: 1792912, vaddr: 65536
Name: _Z26flash_attn_combine_resultsILi128ELi4EEvPKfPK6float2Pf, address: 1917792
	->Name: _Z26flash_attn_combine_resultsILi128ELi4EEvPKfPK6float2Pf, address: 1852256, vaddr: 65536
Name: _ZL111__device_stub__Z18flash_attn_ext_f16ILi128ELi16ELi4ELi64ELi2EfEvPKcS1_S1_S1_PfP6float2ffffjiiiiiiiiiiiiiiiiiiiiPKcS0_S0_S0_PfP6float2ffffjiiiiiiiiiiiiiiiiiiii, address: 1858656
	->Name: _ZL111__device_stub__Z18flash_attn_ext_f16ILi128ELi16ELi4ELi64ELi2EfEvPKcS1_S1_S1_PfP6float2ffffjiiiiiiiiiiiiiiiiiiiiPKcS0_S0_S0_PfP6float2ffffjiiiiiiiiiiiiiiiiiiii, address: 1793120, vaddr: 65536
Name: _Z18flash_attn_ext_f16ILi128ELi16ELi4ELi64ELi2EfEvPKcS1_S1_S1_PfP6float2ffffjiiiiiiiiiiiiiiiiiiii, address: 1914256
	->Name: _Z18flash_attn_ext_f16ILi128ELi16ELi4ELi64ELi2EfEvPKcS1_S1_S1_PfP6float2ffffjiiiiiiiiiiiiiiiiiiii, address: 1848720, vaddr: 65536
Name: _ZL71__device_stub__Z26flash_attn_combine_resultsILi128ELi2EEvPKfPK6float2PfPKfPK6float2Pf, address: 1859440
	->Name: _ZL71__device_stub__Z26flash_attn_combine_resultsILi128ELi2EEvPKfPK6float2PfPKfPK6float2Pf, address: 1793904, vaddr: 65536
Name: _Z26flash_attn_combine_resultsILi128ELi2EEvPKfPK6float2Pf, address: 1917568
	->Name: _Z26flash_attn_combine_resultsILi128ELi2EEvPKfPK6float2Pf, address: 1852032, vaddr: 65536
Name: _ZL111__device_stub__Z18flash_attn_ext_f16ILi128ELi16ELi4ELi64ELi1EfEvPKcS1_S1_S1_PfP6float2ffffjiiiiiiiiiiiiiiiiiiiiPKcS0_S0_S0_PfP6float2ffffjiiiiiiiiiiiiiiiiiiii, address: 1859648
	->Name: _ZL111__device_stub__Z18flash_attn_ext_f16ILi128ELi16ELi4ELi64ELi1EfEvPKcS1_S1_S1_PfP6float2ffffjiiiiiiiiiiiiiiiiiiiiPKcS0_S0_S0_PfP6float2ffffjiiiiiiiiiiiiiiiiiiii, address: 1794112, vaddr: 65536
Name: _Z18flash_attn_ext_f16ILi128ELi16ELi4ELi64ELi1EfEvPKcS1_S1_S1_PfP6float2ffffjiiiiiiiiiiiiiiiiiiii, address: 1914272
	->Name: _Z18flash_attn_ext_f16ILi128ELi16ELi4ELi64ELi1EfEvPKcS1_S1_S1_PfP6float2ffffjiiiiiiiiiiiiiiiiiiii, address: 1848736, vaddr: 65536
Name: _ZL111__device_stub__Z18flash_attn_ext_f16ILi256ELi16ELi4ELi64ELi4EfEvPKcS1_S1_S1_PfP6float2ffffjiiiiiiiiiiiiiiiiiiiiPKcS0_S0_S0_PfP6float2ffffjiiiiiiiiiiiiiiiiiiii, address: 1860432
	->Name: _ZL111__device_stub__Z18flash_attn_ext_f16ILi256ELi16ELi4ELi64ELi4EfEvPKcS1_S1_S1_PfP6float2ffffjiiiiiiiiiiiiiiiiiiiiPKcS0_S0_S0_PfP6float2ffffjiiiiiiiiiiiiiiiiiiii, address: 1794896, vaddr: 65536
Name: _Z18flash_attn_ext_f16ILi256ELi16ELi4ELi64ELi4EfEvPKcS1_S1_S1_PfP6float2ffffjiiiiiiiiiiiiiiiiiiii, address: 1914288
	->Name: _Z18flash_attn_ext_f16ILi256ELi16ELi4ELi64ELi4EfEvPKcS1_S1_S1_PfP6float2ffffjiiiiiiiiiiiiiiiiiiii, address: 1848752, vaddr: 65536
Name: _ZL71__device_stub__Z26flash_attn_combine_resultsILi256ELi4EEvPKfPK6float2PfPKfPK6float2Pf, address: 1861216
	->Name: _ZL71__device_stub__Z26flash_attn_combine_resultsILi256ELi4EEvPKfPK6float2PfPKfPK6float2Pf, address: 1795680, vaddr: 65536
Name: _Z26flash_attn_combine_resultsILi256ELi4EEvPKfPK6float2Pf, address: 1915328
	->Name: _Z26flash_attn_combine_resultsILi256ELi4EEvPKfPK6float2Pf, address: 1849792, vaddr: 65536
Name: _ZL111__device_stub__Z18flash_attn_ext_f16ILi256ELi16ELi4ELi64ELi2EfEvPKcS1_S1_S1_PfP6float2ffffjiiiiiiiiiiiiiiiiiiiiPKcS0_S0_S0_PfP6float2ffffjiiiiiiiiiiiiiiiiiiii, address: 1861424
	->Name: _ZL111__device_stub__Z18flash_attn_ext_f16ILi256ELi16ELi4ELi64ELi2EfEvPKcS1_S1_S1_PfP6float2ffffjiiiiiiiiiiiiiiiiiiiiPKcS0_S0_S0_PfP6float2ffffjiiiiiiiiiiiiiiiiiiii, address: 1795888, vaddr: 65536
Name: _Z18flash_attn_ext_f16ILi256ELi16ELi4ELi64ELi2EfEvPKcS1_S1_S1_PfP6float2ffffjiiiiiiiiiiiiiiiiiiii, address: 1914304
	->Name: _Z18flash_attn_ext_f16ILi256ELi16ELi4ELi64ELi2EfEvPKcS1_S1_S1_PfP6float2ffffjiiiiiiiiiiiiiiiiiiii, address: 1848768, vaddr: 65536
Name: _ZL71__device_stub__Z26flash_attn_combine_resultsILi256ELi2EEvPKfPK6float2PfPKfPK6float2Pf, address: 1862208
	->Name: _ZL71__device_stub__Z26flash_attn_combine_resultsILi256ELi2EEvPKfPK6float2PfPKfPK6float2Pf, address: 1796672, vaddr: 65536
Name: _Z26flash_attn_combine_resultsILi256ELi2EEvPKfPK6float2Pf, address: 1915552
	->Name: _Z26flash_attn_combine_resultsILi256ELi2EEvPKfPK6float2Pf, address: 1850016, vaddr: 65536
Name: _ZL111__device_stub__Z18flash_attn_ext_f16ILi256ELi16ELi4ELi64ELi1EfEvPKcS1_S1_S1_PfP6float2ffffjiiiiiiiiiiiiiiiiiiiiPKcS0_S0_S0_PfP6float2ffffjiiiiiiiiiiiiiiiiiiii, address: 1862416
	->Name: _ZL111__device_stub__Z18flash_attn_ext_f16ILi256ELi16ELi4ELi64ELi1EfEvPKcS1_S1_S1_PfP6float2ffffjiiiiiiiiiiiiiiiiiiiiPKcS0_S0_S0_PfP6float2ffffjiiiiiiiiiiiiiiiiiiii, address: 1796880, vaddr: 65536
Name: _Z18flash_attn_ext_f16ILi256ELi16ELi4ELi64ELi1EfEvPKcS1_S1_S1_PfP6float2ffffjiiiiiiiiiiiiiiiiiiii, address: 1914320
	->Name: _Z18flash_attn_ext_f16ILi256ELi16ELi4ELi64ELi1EfEvPKcS1_S1_S1_PfP6float2ffffjiiiiiiiiiiiiiiiiiiii, address: 1848784, vaddr: 65536
Name: _ZL110__device_stub__Z18flash_attn_ext_f16ILi64ELi32ELi4ELi64ELi4EfEvPKcS1_S1_S1_PfP6float2ffffjiiiiiiiiiiiiiiiiiiiiPKcS0_S0_S0_PfP6float2ffffjiiiiiiiiiiiiiiiiiiii, address: 1863200
	->Name: _ZL110__device_stub__Z18flash_attn_ext_f16ILi64ELi32ELi4ELi64ELi4EfEvPKcS1_S1_S1_PfP6float2ffffjiiiiiiiiiiiiiiiiiiiiPKcS0_S0_S0_PfP6float2ffffjiiiiiiiiiiiiiiiiiiii, address: 1797664, vaddr: 65536
Name: _Z18flash_attn_ext_f16ILi64ELi32ELi4ELi64ELi4EfEvPKcS1_S1_S1_PfP6float2ffffjiiiiiiiiiiiiiiiiiiii, address: 1914336
	->Name: _Z18flash_attn_ext_f16ILi64ELi32ELi4ELi64ELi4EfEvPKcS1_S1_S1_PfP6float2ffffjiiiiiiiiiiiiiiiiiiii, address: 1848800, vaddr: 65536
Name: _ZL110__device_stub__Z18flash_attn_ext_f16ILi64ELi32ELi4ELi64ELi2EfEvPKcS1_S1_S1_PfP6float2ffffjiiiiiiiiiiiiiiiiiiiiPKcS0_S0_S0_PfP6float2ffffjiiiiiiiiiiiiiiiiiiii, address: 1863984
	->Name: _ZL110__device_stub__Z18flash_attn_ext_f16ILi64ELi32ELi4ELi64ELi2EfEvPKcS1_S1_S1_PfP6float2ffffjiiiiiiiiiiiiiiiiiiiiPKcS0_S0_S0_PfP6float2ffffjiiiiiiiiiiiiiiiiiiii, address: 1798448, vaddr: 65536
Name: _Z18flash_attn_ext_f16ILi64ELi32ELi4ELi64ELi2EfEvPKcS1_S1_S1_PfP6float2ffffjiiiiiiiiiiiiiiiiiiii, address: 1914352
	->Name: _Z18flash_attn_ext_f16ILi64ELi32ELi4ELi64ELi2EfEvPKcS1_S1_S1_PfP6float2ffffjiiiiiiiiiiiiiiiiiiii, address: 1848816, vaddr: 65536
Name: _ZL110__device_stub__Z18flash_attn_ext_f16ILi64ELi32ELi4ELi64ELi1EfEvPKcS1_S1_S1_PfP6float2ffffjiiiiiiiiiiiiiiiiiiiiPKcS0_S0_S0_PfP6float2ffffjiiiiiiiiiiiiiiiiiiii, address: 1864768
	->Name: _ZL110__device_stub__Z18flash_attn_ext_f16ILi64ELi32ELi4ELi64ELi1EfEvPKcS1_S1_S1_PfP6float2ffffjiiiiiiiiiiiiiiiiiiiiPKcS0_S0_S0_PfP6float2ffffjiiiiiiiiiiiiiiiiiiii, address: 1799232, vaddr: 65536
Name: _Z18flash_attn_ext_f16ILi64ELi32ELi4ELi64ELi1EfEvPKcS1_S1_S1_PfP6float2ffffjiiiiiiiiiiiiiiiiiiii, address: 1914368
	->Name: _Z18flash_attn_ext_f16ILi64ELi32ELi4ELi64ELi1EfEvPKcS1_S1_S1_PfP6float2ffffjiiiiiiiiiiiiiiiiiiii, address: 1848832, vaddr: 65536
Name: _ZL110__device_stub__Z18flash_attn_ext_f16ILi80ELi32ELi4ELi16ELi4EfEvPKcS1_S1_S1_PfP6float2ffffjiiiiiiiiiiiiiiiiiiiiPKcS0_S0_S0_PfP6float2ffffjiiiiiiiiiiiiiiiiiiii, address: 1865552
	->Name: _ZL110__device_stub__Z18flash_attn_ext_f16ILi80ELi32ELi4ELi16ELi4EfEvPKcS1_S1_S1_PfP6float2ffffjiiiiiiiiiiiiiiiiiiiiPKcS0_S0_S0_PfP6float2ffffjiiiiiiiiiiiiiiiiiiii, address: 1800016, vaddr: 65536
Name: _Z18flash_attn_ext_f16ILi80ELi32ELi4ELi16ELi4EfEvPKcS1_S1_S1_PfP6float2ffffjiiiiiiiiiiiiiiiiiiii, address: 1914384
	->Name: _Z18flash_attn_ext_f16ILi80ELi32ELi4ELi16ELi4EfEvPKcS1_S1_S1_PfP6float2ffffjiiiiiiiiiiiiiiiiiiii, address: 1848848, vaddr: 65536
Name: _ZL110__device_stub__Z18flash_attn_ext_f16ILi80ELi32ELi4ELi16ELi2EfEvPKcS1_S1_S1_PfP6float2ffffjiiiiiiiiiiiiiiiiiiiiPKcS0_S0_S0_PfP6float2ffffjiiiiiiiiiiiiiiiiiiii, address: 1866336
	->Name: _ZL110__device_stub__Z18flash_attn_ext_f16ILi80ELi32ELi4ELi16ELi2EfEvPKcS1_S1_S1_PfP6float2ffffjiiiiiiiiiiiiiiiiiiiiPKcS0_S0_S0_PfP6float2ffffjiiiiiiiiiiiiiiiiiiii, address: 1800800, vaddr: 65536
Name: _Z18flash_attn_ext_f16ILi80ELi32ELi4ELi16ELi2EfEvPKcS1_S1_S1_PfP6float2ffffjiiiiiiiiiiiiiiiiiiii, address: 1914400
	->Name: _Z18flash_attn_ext_f16ILi80ELi32ELi4ELi16ELi2EfEvPKcS1_S1_S1_PfP6float2ffffjiiiiiiiiiiiiiiiiiiii, address: 1848864, vaddr: 65536
Name: _ZL110__device_stub__Z18flash_attn_ext_f16ILi80ELi32ELi4ELi16ELi1EfEvPKcS1_S1_S1_PfP6float2ffffjiiiiiiiiiiiiiiiiiiiiPKcS0_S0_S0_PfP6float2ffffjiiiiiiiiiiiiiiiiiiii, address: 1867120
	->Name: _ZL110__device_stub__Z18flash_attn_ext_f16ILi80ELi32ELi4ELi16ELi1EfEvPKcS1_S1_S1_PfP6float2ffffjiiiiiiiiiiiiiiiiiiiiPKcS0_S0_S0_PfP6float2ffffjiiiiiiiiiiiiiiiiiiii, address: 1801584, vaddr: 65536
Name: _Z18flash_attn_ext_f16ILi80ELi32ELi4ELi16ELi1EfEvPKcS1_S1_S1_PfP6float2ffffjiiiiiiiiiiiiiiiiiiii, address: 1914416
	->Name: _Z18flash_attn_ext_f16ILi80ELi32ELi4ELi16ELi1EfEvPKcS1_S1_S1_PfP6float2ffffjiiiiiiiiiiiiiiiiiiii, address: 1848880, vaddr: 65536
Name: _ZL110__device_stub__Z18flash_attn_ext_f16ILi96ELi32ELi4ELi32ELi4EfEvPKcS1_S1_S1_PfP6float2ffffjiiiiiiiiiiiiiiiiiiiiPKcS0_S0_S0_PfP6float2ffffjiiiiiiiiiiiiiiiiiiii, address: 1867904
	->Name: _ZL110__device_stub__Z18flash_attn_ext_f16ILi96ELi32ELi4ELi32ELi4EfEvPKcS1_S1_S1_PfP6float2ffffjiiiiiiiiiiiiiiiiiiiiPKcS0_S0_S0_PfP6float2ffffjiiiiiiiiiiiiiiiiiiii, address: 1802368, vaddr: 65536
Name: _Z18flash_attn_ext_f16ILi96ELi32ELi4ELi32ELi4EfEvPKcS1_S1_S1_PfP6float2ffffjiiiiiiiiiiiiiiiiiiii, address: 1914432
	->Name: _Z18flash_attn_ext_f16ILi96ELi32ELi4ELi32ELi4EfEvPKcS1_S1_S1_PfP6float2ffffjiiiiiiiiiiiiiiiiiiii, address: 1848896, vaddr: 65536
Name: _ZL110__device_stub__Z18flash_attn_ext_f16ILi96ELi32ELi4ELi32ELi2EfEvPKcS1_S1_S1_PfP6float2ffffjiiiiiiiiiiiiiiiiiiiiPKcS0_S0_S0_PfP6float2ffffjiiiiiiiiiiiiiiiiiiii, address: 1868688
	->Name: _ZL110__device_stub__Z18flash_attn_ext_f16ILi96ELi32ELi4ELi32ELi2EfEvPKcS1_S1_S1_PfP6float2ffffjiiiiiiiiiiiiiiiiiiiiPKcS0_S0_S0_PfP6float2ffffjiiiiiiiiiiiiiiiiiiii, address: 1803152, vaddr: 65536
Name: _Z18flash_attn_ext_f16ILi96ELi32ELi4ELi32ELi2EfEvPKcS1_S1_S1_PfP6float2ffffjiiiiiiiiiiiiiiiiiiii, address: 1914448
	->Name: _Z18flash_attn_ext_f16ILi96ELi32ELi4ELi32ELi2EfEvPKcS1_S1_S1_PfP6float2ffffjiiiiiiiiiiiiiiiiiiii, address: 1848912, vaddr: 65536
Name: _ZL110__device_stub__Z18flash_attn_ext_f16ILi96ELi32ELi4ELi32ELi1EfEvPKcS1_S1_S1_PfP6float2ffffjiiiiiiiiiiiiiiiiiiiiPKcS0_S0_S0_PfP6float2ffffjiiiiiiiiiiiiiiiiiiii, address: 1869472
	->Name: _ZL110__device_stub__Z18flash_attn_ext_f16ILi96ELi32ELi4ELi32ELi1EfEvPKcS1_S1_S1_PfP6float2ffffjiiiiiiiiiiiiiiiiiiiiPKcS0_S0_S0_PfP6float2ffffjiiiiiiiiiiiiiiiiiiii, address: 1803936, vaddr: 65536
Name: _Z18flash_attn_ext_f16ILi96ELi32ELi4ELi32ELi1EfEvPKcS1_S1_S1_PfP6float2ffffjiiiiiiiiiiiiiiiiiiii, address: 1914464
	->Name: _Z18flash_attn_ext_f16ILi96ELi32ELi4ELi32ELi1EfEvPKcS1_S1_S1_PfP6float2ffffjiiiiiiiiiiiiiiiiiiii, address: 1848928, vaddr: 65536
Name: _ZL111__device_stub__Z18flash_attn_ext_f16ILi112ELi32ELi4ELi16ELi4EfEvPKcS1_S1_S1_PfP6float2ffffjiiiiiiiiiiiiiiiiiiiiPKcS0_S0_S0_PfP6float2ffffjiiiiiiiiiiiiiiiiiiii, address: 1870256
	->Name: _ZL111__device_stub__Z18flash_attn_ext_f16ILi112ELi32ELi4ELi16ELi4EfEvPKcS1_S1_S1_PfP6float2ffffjiiiiiiiiiiiiiiiiiiiiPKcS0_S0_S0_PfP6float2ffffjiiiiiiiiiiiiiiiiiiii, address: 1804720, vaddr: 65536
Name: _Z18flash_attn_ext_f16ILi112ELi32ELi4ELi16ELi4EfEvPKcS1_S1_S1_PfP6float2ffffjiiiiiiiiiiiiiiiiiiii, address: 1914480
	->Name: _Z18flash_attn_ext_f16ILi112ELi32ELi4ELi16ELi4EfEvPKcS1_S1_S1_PfP6float2ffffjiiiiiiiiiiiiiiiiiiii, address: 1848944, vaddr: 65536
Name: _ZL111__device_stub__Z18flash_attn_ext_f16ILi112ELi32ELi4ELi16ELi2EfEvPKcS1_S1_S1_PfP6float2ffffjiiiiiiiiiiiiiiiiiiiiPKcS0_S0_S0_PfP6float2ffffjiiiiiiiiiiiiiiiiiiii, address: 1871040
	->Name: _ZL111__device_stub__Z18flash_attn_ext_f16ILi112ELi32ELi4ELi16ELi2EfEvPKcS1_S1_S1_PfP6float2ffffjiiiiiiiiiiiiiiiiiiiiPKcS0_S0_S0_PfP6float2ffffjiiiiiiiiiiiiiiiiiiii, address: 1805504, vaddr: 65536
Name: _Z18flash_attn_ext_f16ILi112ELi32ELi4ELi16ELi2EfEvPKcS1_S1_S1_PfP6float2ffffjiiiiiiiiiiiiiiiiiiii, address: 1914496
	->Name: _Z18flash_attn_ext_f16ILi112ELi32ELi4ELi16ELi2EfEvPKcS1_S1_S1_PfP6float2ffffjiiiiiiiiiiiiiiiiiiii, address: 1848960, vaddr: 65536
Name: _ZL111__device_stub__Z18flash_attn_ext_f16ILi112ELi32ELi4ELi16ELi1EfEvPKcS1_S1_S1_PfP6float2ffffjiiiiiiiiiiiiiiiiiiiiPKcS0_S0_S0_PfP6float2ffffjiiiiiiiiiiiiiiiiiiii, address: 1871824
	->Name: _ZL111__device_stub__Z18flash_attn_ext_f16ILi112ELi32ELi4ELi16ELi1EfEvPKcS1_S1_S1_PfP6float2ffffjiiiiiiiiiiiiiiiiiiiiPKcS0_S0_S0_PfP6float2ffffjiiiiiiiiiiiiiiiiiiii, address: 1806288, vaddr: 65536
Name: _Z18flash_attn_ext_f16ILi112ELi32ELi4ELi16ELi1EfEvPKcS1_S1_S1_PfP6float2ffffjiiiiiiiiiiiiiiiiiiii, address: 1914512
	->Name: _Z18flash_attn_ext_f16ILi112ELi32ELi4ELi16ELi1EfEvPKcS1_S1_S1_PfP6float2ffffjiiiiiiiiiiiiiiiiiiii, address: 1848976, vaddr: 65536
Name: _ZL111__device_stub__Z18flash_attn_ext_f16ILi128ELi32ELi4ELi64ELi4EfEvPKcS1_S1_S1_PfP6float2ffffjiiiiiiiiiiiiiiiiiiiiPKcS0_S0_S0_PfP6float2ffffjiiiiiiiiiiiiiiiiiiii, address: 1872608
	->Name: _ZL111__device_stub__Z18flash_attn_ext_f16ILi128ELi32ELi4ELi64ELi4EfEvPKcS1_S1_S1_PfP6float2ffffjiiiiiiiiiiiiiiiiiiiiPKcS0_S0_S0_PfP6float2ffffjiiiiiiiiiiiiiiiiiiii, address: 1807072, vaddr: 65536
Name: _Z18flash_attn_ext_f16ILi128ELi32ELi4ELi64ELi4EfEvPKcS1_S1_S1_PfP6float2ffffjiiiiiiiiiiiiiiiiiiii, address: 1914528
	->Name: _Z18flash_attn_ext_f16ILi128ELi32ELi4ELi64ELi4EfEvPKcS1_S1_S1_PfP6float2ffffjiiiiiiiiiiiiiiiiiiii, address: 1848992, vaddr: 65536
Name: _ZL111__device_stub__Z18flash_attn_ext_f16ILi128ELi32ELi4ELi64ELi2EfEvPKcS1_S1_S1_PfP6float2ffffjiiiiiiiiiiiiiiiiiiiiPKcS0_S0_S0_PfP6float2ffffjiiiiiiiiiiiiiiiiiiii, address: 1873392
	->Name: _ZL111__device_stub__Z18flash_attn_ext_f16ILi128ELi32ELi4ELi64ELi2EfEvPKcS1_S1_S1_PfP6float2ffffjiiiiiiiiiiiiiiiiiiiiPKcS0_S0_S0_PfP6float2ffffjiiiiiiiiiiiiiiiiiiii, address: 1807856, vaddr: 65536
Name: _Z18flash_attn_ext_f16ILi128ELi32ELi4ELi64ELi2EfEvPKcS1_S1_S1_PfP6float2ffffjiiiiiiiiiiiiiiiiiiii, address: 1914544
	->Name: _Z18flash_attn_ext_f16ILi128ELi32ELi4ELi64ELi2EfEvPKcS1_S1_S1_PfP6float2ffffjiiiiiiiiiiiiiiiiiiii, address: 1849008, vaddr: 65536
Name: _ZL111__device_stub__Z18flash_attn_ext_f16ILi128ELi32ELi4ELi64ELi1EfEvPKcS1_S1_S1_PfP6float2ffffjiiiiiiiiiiiiiiiiiiiiPKcS0_S0_S0_PfP6float2ffffjiiiiiiiiiiiiiiiiiiii, address: 1874176
	->Name: _ZL111__device_stub__Z18flash_attn_ext_f16ILi128ELi32ELi4ELi64ELi1EfEvPKcS1_S1_S1_PfP6float2ffffjiiiiiiiiiiiiiiiiiiiiPKcS0_S0_S0_PfP6float2ffffjiiiiiiiiiiiiiiiiiiii, address: 1808640, vaddr: 65536
Name: _Z18flash_attn_ext_f16ILi128ELi32ELi4ELi64ELi1EfEvPKcS1_S1_S1_PfP6float2ffffjiiiiiiiiiiiiiiiiiiii, address: 1914560
	->Name: _Z18flash_attn_ext_f16ILi128ELi32ELi4ELi64ELi1EfEvPKcS1_S1_S1_PfP6float2ffffjiiiiiiiiiiiiiiiiiiii, address: 1849024, vaddr: 65536
Name: _ZL115__device_stub__Z18flash_attn_ext_f16ILi64ELi8ELi4ELi64ELi4E6__halfEvPKcS2_S2_S2_PfP6float2ffffjiiiiiiiiiiiiiiiiiiiiPKcS0_S0_S0_PfP6float2ffffjiiiiiiiiiiiiiiiiiiii, address: 1874960
	->Name: _ZL115__device_stub__Z18flash_attn_ext_f16ILi64ELi8ELi4ELi64ELi4E6__halfEvPKcS2_S2_S2_PfP6float2ffffjiiiiiiiiiiiiiiiiiiiiPKcS0_S0_S0_PfP6float2ffffjiiiiiiiiiiiiiiiiiiii, address: 1809424, vaddr: 65536
Name: _Z18flash_attn_ext_f16ILi64ELi8ELi4ELi64ELi4E6__halfEvPKcS2_S2_S2_PfP6float2ffffjiiiiiiiiiiiiiiiiiiii, address: 1914576
	->Name: _Z18flash_attn_ext_f16ILi64ELi8ELi4ELi64ELi4E6__halfEvPKcS2_S2_S2_PfP6float2ffffjiiiiiiiiiiiiiiiiiiii, address: 1849040, vaddr: 65536
Name: _ZL115__device_stub__Z18flash_attn_ext_f16ILi64ELi8ELi4ELi64ELi2E6__halfEvPKcS2_S2_S2_PfP6float2ffffjiiiiiiiiiiiiiiiiiiiiPKcS0_S0_S0_PfP6float2ffffjiiiiiiiiiiiiiiiiiiii, address: 1875744
	->Name: _ZL115__device_stub__Z18flash_attn_ext_f16ILi64ELi8ELi4ELi64ELi2E6__halfEvPKcS2_S2_S2_PfP6float2ffffjiiiiiiiiiiiiiiiiiiiiPKcS0_S0_S0_PfP6float2ffffjiiiiiiiiiiiiiiiiiiii, address: 1810208, vaddr: 65536
Name: _Z18flash_attn_ext_f16ILi64ELi8ELi4ELi64ELi2E6__halfEvPKcS2_S2_S2_PfP6float2ffffjiiiiiiiiiiiiiiiiiiii, address: 1914592
	->Name: _Z18flash_attn_ext_f16ILi64ELi8ELi4ELi64ELi2E6__halfEvPKcS2_S2_S2_PfP6float2ffffjiiiiiiiiiiiiiiiiiiii, address: 1849056, vaddr: 65536
Name: _ZL115__device_stub__Z18flash_attn_ext_f16ILi64ELi8ELi4ELi64ELi1E6__halfEvPKcS2_S2_S2_PfP6float2ffffjiiiiiiiiiiiiiiiiiiiiPKcS0_S0_S0_PfP6float2ffffjiiiiiiiiiiiiiiiiiiii, address: 1876528
	->Name: _ZL115__device_stub__Z18flash_attn_ext_f16ILi64ELi8ELi4ELi64ELi1E6__halfEvPKcS2_S2_S2_PfP6float2ffffjiiiiiiiiiiiiiiiiiiiiPKcS0_S0_S0_PfP6float2ffffjiiiiiiiiiiiiiiiiiiii, address: 1810992, vaddr: 65536
Name: _Z18flash_attn_ext_f16ILi64ELi8ELi4ELi64ELi1E6__halfEvPKcS2_S2_S2_PfP6float2ffffjiiiiiiiiiiiiiiiiiiii, address: 1914608
	->Name: _Z18flash_attn_ext_f16ILi64ELi8ELi4ELi64ELi1E6__halfEvPKcS2_S2_S2_PfP6float2ffffjiiiiiiiiiiiiiiiiiiii, address: 1849072, vaddr: 65536
Name: _ZL115__device_stub__Z18flash_attn_ext_f16ILi96ELi8ELi4ELi32ELi4E6__halfEvPKcS2_S2_S2_PfP6float2ffffjiiiiiiiiiiiiiiiiiiiiPKcS0_S0_S0_PfP6float2ffffjiiiiiiiiiiiiiiiiiiii, address: 1877312
	->Name: _ZL115__device_stub__Z18flash_attn_ext_f16ILi96ELi8ELi4ELi32ELi4E6__halfEvPKcS2_S2_S2_PfP6float2ffffjiiiiiiiiiiiiiiiiiiiiPKcS0_S0_S0_PfP6float2ffffjiiiiiiiiiiiiiiiiiiii, address: 1811776, vaddr: 65536
Name: _Z18flash_attn_ext_f16ILi96ELi8ELi4ELi32ELi4E6__halfEvPKcS2_S2_S2_PfP6float2ffffjiiiiiiiiiiiiiiiiiiii, address: 1914624
	->Name: _Z18flash_attn_ext_f16ILi96ELi8ELi4ELi32ELi4E6__halfEvPKcS2_S2_S2_PfP6float2ffffjiiiiiiiiiiiiiiiiiiii, address: 1849088, vaddr: 65536
Name: _ZL115__device_stub__Z18flash_attn_ext_f16ILi96ELi8ELi4ELi32ELi2E6__halfEvPKcS2_S2_S2_PfP6float2ffffjiiiiiiiiiiiiiiiiiiiiPKcS0_S0_S0_PfP6float2ffffjiiiiiiiiiiiiiiiiiiii, address: 1878096
	->Name: _ZL115__device_stub__Z18flash_attn_ext_f16ILi96ELi8ELi4ELi32ELi2E6__halfEvPKcS2_S2_S2_PfP6float2ffffjiiiiiiiiiiiiiiiiiiiiPKcS0_S0_S0_PfP6float2ffffjiiiiiiiiiiiiiiiiiiii, address: 1812560, vaddr: 65536
Name: _Z18flash_attn_ext_f16ILi96ELi8ELi4ELi32ELi2E6__halfEvPKcS2_S2_S2_PfP6float2ffffjiiiiiiiiiiiiiiiiiiii, address: 1914640
	->Name: _Z18flash_attn_ext_f16ILi96ELi8ELi4ELi32ELi2E6__halfEvPKcS2_S2_S2_PfP6float2ffffjiiiiiiiiiiiiiiiiiiii, address: 1849104, vaddr: 65536
Name: _ZL115__device_stub__Z18flash_attn_ext_f16ILi96ELi8ELi4ELi32ELi1E6__halfEvPKcS2_S2_S2_PfP6float2ffffjiiiiiiiiiiiiiiiiiiiiPKcS0_S0_S0_PfP6float2ffffjiiiiiiiiiiiiiiiiiiii, address: 1878880
	->Name: _ZL115__device_stub__Z18flash_attn_ext_f16ILi96ELi8ELi4ELi32ELi1E6__halfEvPKcS2_S2_S2_PfP6float2ffffjiiiiiiiiiiiiiiiiiiiiPKcS0_S0_S0_PfP6float2ffffjiiiiiiiiiiiiiiiiiiii, address: 1813344, vaddr: 65536
Name: _Z18flash_attn_ext_f16ILi96ELi8ELi4ELi32ELi1E6__halfEvPKcS2_S2_S2_PfP6float2ffffjiiiiiiiiiiiiiiiiiiii, address: 1914656
	->Name: _Z18flash_attn_ext_f16ILi96ELi8ELi4ELi32ELi1E6__halfEvPKcS2_S2_S2_PfP6float2ffffjiiiiiiiiiiiiiiiiiiii, address: 1849120, vaddr: 65536
Name: _ZL117__device_stub__Z18flash_attn_ext_f16ILi128ELi8ELi4ELi128ELi4E6__halfEvPKcS2_S2_S2_PfP6float2ffffjiiiiiiiiiiiiiiiiiiiiPKcS0_S0_S0_PfP6float2ffffjiiiiiiiiiiiiiiiiiiii, address: 1879664
	->Name: _ZL117__device_stub__Z18flash_attn_ext_f16ILi128ELi8ELi4ELi128ELi4E6__halfEvPKcS2_S2_S2_PfP6float2ffffjiiiiiiiiiiiiiiiiiiiiPKcS0_S0_S0_PfP6float2ffffjiiiiiiiiiiiiiiiiiiii, address: 1814128, vaddr: 65536
Name: _Z18flash_attn_ext_f16ILi128ELi8ELi4ELi128ELi4E6__halfEvPKcS2_S2_S2_PfP6float2ffffjiiiiiiiiiiiiiiiiiiii, address: 1914672
	->Name: _Z18flash_attn_ext_f16ILi128ELi8ELi4ELi128ELi4E6__halfEvPKcS2_S2_S2_PfP6float2ffffjiiiiiiiiiiiiiiiiiiii, address: 1849136, vaddr: 65536
Name: _ZL117__device_stub__Z18flash_attn_ext_f16ILi128ELi8ELi4ELi128ELi2E6__halfEvPKcS2_S2_S2_PfP6float2ffffjiiiiiiiiiiiiiiiiiiiiPKcS0_S0_S0_PfP6float2ffffjiiiiiiiiiiiiiiiiiiii, address: 1880448
	->Name: _ZL117__device_stub__Z18flash_attn_ext_f16ILi128ELi8ELi4ELi128ELi2E6__halfEvPKcS2_S2_S2_PfP6float2ffffjiiiiiiiiiiiiiiiiiiiiPKcS0_S0_S0_PfP6float2ffffjiiiiiiiiiiiiiiiiiiii, address: 1814912, vaddr: 65536
Name: _Z18flash_attn_ext_f16ILi128ELi8ELi4ELi128ELi2E6__halfEvPKcS2_S2_S2_PfP6float2ffffjiiiiiiiiiiiiiiiiiiii, address: 1914688
	->Name: _Z18flash_attn_ext_f16ILi128ELi8ELi4ELi128ELi2E6__halfEvPKcS2_S2_S2_PfP6float2ffffjiiiiiiiiiiiiiiiiiiii, address: 1849152, vaddr: 65536
Name: _ZL117__device_stub__Z18flash_attn_ext_f16ILi128ELi8ELi4ELi128ELi1E6__halfEvPKcS2_S2_S2_PfP6float2ffffjiiiiiiiiiiiiiiiiiiiiPKcS0_S0_S0_PfP6float2ffffjiiiiiiiiiiiiiiiiiiii, address: 1881232
	->Name: _ZL117__device_stub__Z18flash_attn_ext_f16ILi128ELi8ELi4ELi128ELi1E6__halfEvPKcS2_S2_S2_PfP6float2ffffjiiiiiiiiiiiiiiiiiiiiPKcS0_S0_S0_PfP6float2ffffjiiiiiiiiiiiiiiiiiiii, address: 1815696, vaddr: 65536
Name: _Z18flash_attn_ext_f16ILi128ELi8ELi4ELi128ELi1E6__halfEvPKcS2_S2_S2_PfP6float2ffffjiiiiiiiiiiiiiiiiiiii, address: 1914704
	->Name: _Z18flash_attn_ext_f16ILi128ELi8ELi4ELi128ELi1E6__halfEvPKcS2_S2_S2_PfP6float2ffffjiiiiiiiiiiiiiiiiiiii, address: 1849168, vaddr: 65536
Name: _ZL117__device_stub__Z18flash_attn_ext_f16ILi256ELi8ELi4ELi128ELi4E6__halfEvPKcS2_S2_S2_PfP6float2ffffjiiiiiiiiiiiiiiiiiiiiPKcS0_S0_S0_PfP6float2ffffjiiiiiiiiiiiiiiiiiiii, address: 1882016
	->Name: _ZL117__device_stub__Z18flash_attn_ext_f16ILi256ELi8ELi4ELi128ELi4E6__halfEvPKcS2_S2_S2_PfP6float2ffffjiiiiiiiiiiiiiiiiiiiiPKcS0_S0_S0_PfP6float2ffffjiiiiiiiiiiiiiiiiiiii, address: 1816480, vaddr: 65536
Name: _Z18flash_attn_ext_f16ILi256ELi8ELi4ELi128ELi4E6__halfEvPKcS2_S2_S2_PfP6float2ffffjiiiiiiiiiiiiiiiiiiii, address: 1914720
	->Name: _Z18flash_attn_ext_f16ILi256ELi8ELi4ELi128ELi4E6__halfEvPKcS2_S2_S2_PfP6float2ffffjiiiiiiiiiiiiiiiiiiii, address: 1849184, vaddr: 65536
Name: _ZL117__device_stub__Z18flash_attn_ext_f16ILi256ELi8ELi4ELi128ELi2E6__halfEvPKcS2_S2_S2_PfP6float2ffffjiiiiiiiiiiiiiiiiiiiiPKcS0_S0_S0_PfP6float2ffffjiiiiiiiiiiiiiiiiiiii, address: 1882800
	->Name: _ZL117__device_stub__Z18flash_attn_ext_f16ILi256ELi8ELi4ELi128ELi2E6__halfEvPKcS2_S2_S2_PfP6float2ffffjiiiiiiiiiiiiiiiiiiiiPKcS0_S0_S0_PfP6float2ffffjiiiiiiiiiiiiiiiiiiii, address: 1817264, vaddr: 65536
Name: _Z18flash_attn_ext_f16ILi256ELi8ELi4ELi128ELi2E6__halfEvPKcS2_S2_S2_PfP6float2ffffjiiiiiiiiiiiiiiiiiiii, address: 1914736
	->Name: _Z18flash_attn_ext_f16ILi256ELi8ELi4ELi128ELi2E6__halfEvPKcS2_S2_S2_PfP6float2ffffjiiiiiiiiiiiiiiiiiiii, address: 1849200, vaddr: 65536
Name: _ZL117__device_stub__Z18flash_attn_ext_f16ILi256ELi8ELi4ELi128ELi1E6__halfEvPKcS2_S2_S2_PfP6float2ffffjiiiiiiiiiiiiiiiiiiiiPKcS0_S0_S0_PfP6float2ffffjiiiiiiiiiiiiiiiiiiii, address: 1883584
	->Name: _ZL117__device_stub__Z18flash_attn_ext_f16ILi256ELi8ELi4ELi128ELi1E6__halfEvPKcS2_S2_S2_PfP6float2ffffjiiiiiiiiiiiiiiiiiiiiPKcS0_S0_S0_PfP6float2ffffjiiiiiiiiiiiiiiiiiiii, address: 1818048, vaddr: 65536
Name: _Z18flash_attn_ext_f16ILi256ELi8ELi4ELi128ELi1E6__halfEvPKcS2_S2_S2_PfP6float2ffffjiiiiiiiiiiiiiiiiiiii, address: 1914752
	->Name: _Z18flash_attn_ext_f16ILi256ELi8ELi4ELi128ELi1E6__halfEvPKcS2_S2_S2_PfP6float2ffffjiiiiiiiiiiiiiiiiiiii, address: 1849216, vaddr: 65536
Name: _ZL116__device_stub__Z18flash_attn_ext_f16ILi64ELi16ELi4ELi64ELi4E6__halfEvPKcS2_S2_S2_PfP6float2ffffjiiiiiiiiiiiiiiiiiiiiPKcS0_S0_S0_PfP6float2ffffjiiiiiiiiiiiiiiiiiiii, address: 1884368
	->Name: _ZL116__device_stub__Z18flash_attn_ext_f16ILi64ELi16ELi4ELi64ELi4E6__halfEvPKcS2_S2_S2_PfP6float2ffffjiiiiiiiiiiiiiiiiiiiiPKcS0_S0_S0_PfP6float2ffffjiiiiiiiiiiiiiiiiiiii, address: 1818832, vaddr: 65536
Name: _Z18flash_attn_ext_f16ILi64ELi16ELi4ELi64ELi4E6__halfEvPKcS2_S2_S2_PfP6float2ffffjiiiiiiiiiiiiiiiiiiii, address: 1914768
	->Name: _Z18flash_attn_ext_f16ILi64ELi16ELi4ELi64ELi4E6__halfEvPKcS2_S2_S2_PfP6float2ffffjiiiiiiiiiiiiiiiiiiii, address: 1849232, vaddr: 65536
Name: _ZL116__device_stub__Z18flash_attn_ext_f16ILi64ELi16ELi4ELi64ELi2E6__halfEvPKcS2_S2_S2_PfP6float2ffffjiiiiiiiiiiiiiiiiiiiiPKcS0_S0_S0_PfP6float2ffffjiiiiiiiiiiiiiiiiiiii, address: 1885152
	->Name: _ZL116__device_stub__Z18flash_attn_ext_f16ILi64ELi16ELi4ELi64ELi2E6__halfEvPKcS2_S2_S2_PfP6float2ffffjiiiiiiiiiiiiiiiiiiiiPKcS0_S0_S0_PfP6float2ffffjiiiiiiiiiiiiiiiiiiii, address: 1819616, vaddr: 65536
Name: _Z18flash_attn_ext_f16ILi64ELi16ELi4ELi64ELi2E6__halfEvPKcS2_S2_S2_PfP6float2ffffjiiiiiiiiiiiiiiiiiiii, address: 1914784
	->Name: _Z18flash_attn_ext_f16ILi64ELi16ELi4ELi64ELi2E6__halfEvPKcS2_S2_S2_PfP6float2ffffjiiiiiiiiiiiiiiiiiiii, address: 1849248, vaddr: 65536
Name: _ZL116__device_stub__Z18flash_attn_ext_f16ILi64ELi16ELi4ELi64ELi1E6__halfEvPKcS2_S2_S2_PfP6float2ffffjiiiiiiiiiiiiiiiiiiiiPKcS0_S0_S0_PfP6float2ffffjiiiiiiiiiiiiiiiiiiii, address: 1885936
	->Name: _ZL116__device_stub__Z18flash_attn_ext_f16ILi64ELi16ELi4ELi64ELi1E6__halfEvPKcS2_S2_S2_PfP6float2ffffjiiiiiiiiiiiiiiiiiiiiPKcS0_S0_S0_PfP6float2ffffjiiiiiiiiiiiiiiiiiiii, address: 1820400, vaddr: 65536
Name: _Z18flash_attn_ext_f16ILi64ELi16ELi4ELi64ELi1E6__halfEvPKcS2_S2_S2_PfP6float2ffffjiiiiiiiiiiiiiiiiiiii, address: 1914800
	->Name: _Z18flash_attn_ext_f16ILi64ELi16ELi4ELi64ELi1E6__halfEvPKcS2_S2_S2_PfP6float2ffffjiiiiiiiiiiiiiiiiiiii, address: 1849264, vaddr: 65536
Name: _ZL116__device_stub__Z18flash_attn_ext_f16ILi80ELi16ELi4ELi16ELi4E6__halfEvPKcS2_S2_S2_PfP6float2ffffjiiiiiiiiiiiiiiiiiiiiPKcS0_S0_S0_PfP6float2ffffjiiiiiiiiiiiiiiiiiiii, address: 1886720
	->Name: _ZL116__device_stub__Z18flash_attn_ext_f16ILi80ELi16ELi4ELi16ELi4E6__halfEvPKcS2_S2_S2_PfP6float2ffffjiiiiiiiiiiiiiiiiiiiiPKcS0_S0_S0_PfP6float2ffffjiiiiiiiiiiiiiiiiiiii, address: 1821184, vaddr: 65536
Name: _Z18flash_attn_ext_f16ILi80ELi16ELi4ELi16ELi4E6__halfEvPKcS2_S2_S2_PfP6float2ffffjiiiiiiiiiiiiiiiiiiii, address: 1914816
	->Name: _Z18flash_attn_ext_f16ILi80ELi16ELi4ELi16ELi4E6__halfEvPKcS2_S2_S2_PfP6float2ffffjiiiiiiiiiiiiiiiiiiii, address: 1849280, vaddr: 65536
Name: _ZL116__device_stub__Z18flash_attn_ext_f16ILi80ELi16ELi4ELi16ELi2E6__halfEvPKcS2_S2_S2_PfP6float2ffffjiiiiiiiiiiiiiiiiiiiiPKcS0_S0_S0_PfP6float2ffffjiiiiiiiiiiiiiiiiiiii, address: 1887504
	->Name: _ZL116__device_stub__Z18flash_attn_ext_f16ILi80ELi16ELi4ELi16ELi2E6__halfEvPKcS2_S2_S2_PfP6float2ffffjiiiiiiiiiiiiiiiiiiiiPKcS0_S0_S0_PfP6float2ffffjiiiiiiiiiiiiiiiiiiii, address: 1821968, vaddr: 65536
Name: _Z18flash_attn_ext_f16ILi80ELi16ELi4ELi16ELi2E6__halfEvPKcS2_S2_S2_PfP6float2ffffjiiiiiiiiiiiiiiiiiiii, address: 1914832
	->Name: _Z18flash_attn_ext_f16ILi80ELi16ELi4ELi16ELi2E6__halfEvPKcS2_S2_S2_PfP6float2ffffjiiiiiiiiiiiiiiiiiiii, address: 1849296, vaddr: 65536
Name: _ZL116__device_stub__Z18flash_attn_ext_f16ILi80ELi16ELi4ELi16ELi1E6__halfEvPKcS2_S2_S2_PfP6float2ffffjiiiiiiiiiiiiiiiiiiiiPKcS0_S0_S0_PfP6float2ffffjiiiiiiiiiiiiiiiiiiii, address: 1888288
	->Name: _ZL116__device_stub__Z18flash_attn_ext_f16ILi80ELi16ELi4ELi16ELi1E6__halfEvPKcS2_S2_S2_PfP6float2ffffjiiiiiiiiiiiiiiiiiiiiPKcS0_S0_S0_PfP6float2ffffjiiiiiiiiiiiiiiiiiiii, address: 1822752, vaddr: 65536
Name: _Z18flash_attn_ext_f16ILi80ELi16ELi4ELi16ELi1E6__halfEvPKcS2_S2_S2_PfP6float2ffffjiiiiiiiiiiiiiiiiiiii, address: 1914848
	->Name: _Z18flash_attn_ext_f16ILi80ELi16ELi4ELi16ELi1E6__halfEvPKcS2_S2_S2_PfP6float2ffffjiiiiiiiiiiiiiiiiiiii, address: 1849312, vaddr: 65536
Name: _ZL116__device_stub__Z18flash_attn_ext_f16ILi96ELi16ELi4ELi32ELi4E6__halfEvPKcS2_S2_S2_PfP6float2ffffjiiiiiiiiiiiiiiiiiiiiPKcS0_S0_S0_PfP6float2ffffjiiiiiiiiiiiiiiiiiiii, address: 1889072
	->Name: _ZL116__device_stub__Z18flash_attn_ext_f16ILi96ELi16ELi4ELi32ELi4E6__halfEvPKcS2_S2_S2_PfP6float2ffffjiiiiiiiiiiiiiiiiiiiiPKcS0_S0_S0_PfP6float2ffffjiiiiiiiiiiiiiiiiiiii, address: 1823536, vaddr: 65536
Name: _Z18flash_attn_ext_f16ILi96ELi16ELi4ELi32ELi4E6__halfEvPKcS2_S2_S2_PfP6float2ffffjiiiiiiiiiiiiiiiiiiii, address: 1914864
	->Name: _Z18flash_attn_ext_f16ILi96ELi16ELi4ELi32ELi4E6__halfEvPKcS2_S2_S2_PfP6float2ffffjiiiiiiiiiiiiiiiiiiii, address: 1849328, vaddr: 65536
Name: _ZL116__device_stub__Z18flash_attn_ext_f16ILi96ELi16ELi4ELi32ELi2E6__halfEvPKcS2_S2_S2_PfP6float2ffffjiiiiiiiiiiiiiiiiiiiiPKcS0_S0_S0_PfP6float2ffffjiiiiiiiiiiiiiiiiiiii, address: 1889856
	->Name: _ZL116__device_stub__Z18flash_attn_ext_f16ILi96ELi16ELi4ELi32ELi2E6__halfEvPKcS2_S2_S2_PfP6float2ffffjiiiiiiiiiiiiiiiiiiiiPKcS0_S0_S0_PfP6float2ffffjiiiiiiiiiiiiiiiiiiii, address: 1824320, vaddr: 65536
Name: _Z18flash_attn_ext_f16ILi96ELi16ELi4ELi32ELi2E6__halfEvPKcS2_S2_S2_PfP6float2ffffjiiiiiiiiiiiiiiiiiiii, address: 1914880
	->Name: _Z18flash_attn_ext_f16ILi96ELi16ELi4ELi32ELi2E6__halfEvPKcS2_S2_S2_PfP6float2ffffjiiiiiiiiiiiiiiiiiiii, address: 1849344, vaddr: 65536
Name: _ZL116__device_stub__Z18flash_attn_ext_f16ILi96ELi16ELi4ELi32ELi1E6__halfEvPKcS2_S2_S2_PfP6float2ffffjiiiiiiiiiiiiiiiiiiiiPKcS0_S0_S0_PfP6float2ffffjiiiiiiiiiiiiiiiiiiii, address: 1890640
	->Name: _ZL116__device_stub__Z18flash_attn_ext_f16ILi96ELi16ELi4ELi32ELi1E6__halfEvPKcS2_S2_S2_PfP6float2ffffjiiiiiiiiiiiiiiiiiiiiPKcS0_S0_S0_PfP6float2ffffjiiiiiiiiiiiiiiiiiiii, address: 1825104, vaddr: 65536
Name: _Z18flash_attn_ext_f16ILi96ELi16ELi4ELi32ELi1E6__halfEvPKcS2_S2_S2_PfP6float2ffffjiiiiiiiiiiiiiiiiiiii, address: 1914896
	->Name: _Z18flash_attn_ext_f16ILi96ELi16ELi4ELi32ELi1E6__halfEvPKcS2_S2_S2_PfP6float2ffffjiiiiiiiiiiiiiiiiiiii, address: 1849360, vaddr: 65536
Name: _ZL117__device_stub__Z18flash_attn_ext_f16ILi112ELi16ELi4ELi16ELi4E6__halfEvPKcS2_S2_S2_PfP6float2ffffjiiiiiiiiiiiiiiiiiiiiPKcS0_S0_S0_PfP6float2ffffjiiiiiiiiiiiiiiiiiiii, address: 1891424
	->Name: _ZL117__device_stub__Z18flash_attn_ext_f16ILi112ELi16ELi4ELi16ELi4E6__halfEvPKcS2_S2_S2_PfP6float2ffffjiiiiiiiiiiiiiiiiiiiiPKcS0_S0_S0_PfP6float2ffffjiiiiiiiiiiiiiiiiiiii, address: 1825888, vaddr: 65536
Name: _Z18flash_attn_ext_f16ILi112ELi16ELi4ELi16ELi4E6__halfEvPKcS2_S2_S2_PfP6float2ffffjiiiiiiiiiiiiiiiiiiii, address: 1914912
	->Name: _Z18flash_attn_ext_f16ILi112ELi16ELi4ELi16ELi4E6__halfEvPKcS2_S2_S2_PfP6float2ffffjiiiiiiiiiiiiiiiiiiii, address: 1849376, vaddr: 65536
Name: _ZL117__device_stub__Z18flash_attn_ext_f16ILi112ELi16ELi4ELi16ELi2E6__halfEvPKcS2_S2_S2_PfP6float2ffffjiiiiiiiiiiiiiiiiiiiiPKcS0_S0_S0_PfP6float2ffffjiiiiiiiiiiiiiiiiiiii, address: 1892208
	->Name: _ZL117__device_stub__Z18flash_attn_ext_f16ILi112ELi16ELi4ELi16ELi2E6__halfEvPKcS2_S2_S2_PfP6float2ffffjiiiiiiiiiiiiiiiiiiiiPKcS0_S0_S0_PfP6float2ffffjiiiiiiiiiiiiiiiiiiii, address: 1826672, vaddr: 65536
Name: _Z18flash_attn_ext_f16ILi112ELi16ELi4ELi16ELi2E6__halfEvPKcS2_S2_S2_PfP6float2ffffjiiiiiiiiiiiiiiiiiiii, address: 1914928
	->Name: _Z18flash_attn_ext_f16ILi112ELi16ELi4ELi16ELi2E6__halfEvPKcS2_S2_S2_PfP6float2ffffjiiiiiiiiiiiiiiiiiiii, address: 1849392, vaddr: 65536
Name: _ZL117__device_stub__Z18flash_attn_ext_f16ILi112ELi16ELi4ELi16ELi1E6__halfEvPKcS2_S2_S2_PfP6float2ffffjiiiiiiiiiiiiiiiiiiiiPKcS0_S0_S0_PfP6float2ffffjiiiiiiiiiiiiiiiiiiii, address: 1892992
	->Name: _ZL117__device_stub__Z18flash_attn_ext_f16ILi112ELi16ELi4ELi16ELi1E6__halfEvPKcS2_S2_S2_PfP6float2ffffjiiiiiiiiiiiiiiiiiiiiPKcS0_S0_S0_PfP6float2ffffjiiiiiiiiiiiiiiiiiiii, address: 1827456, vaddr: 65536
Name: _Z18flash_attn_ext_f16ILi112ELi16ELi4ELi16ELi1E6__halfEvPKcS2_S2_S2_PfP6float2ffffjiiiiiiiiiiiiiiiiiiii, address: 1914944
	->Name: _Z18flash_attn_ext_f16ILi112ELi16ELi4ELi16ELi1E6__halfEvPKcS2_S2_S2_PfP6float2ffffjiiiiiiiiiiiiiiiiiiii, address: 1849408, vaddr: 65536
Name: _ZL117__device_stub__Z18flash_attn_ext_f16ILi128ELi16ELi4ELi64ELi4E6__halfEvPKcS2_S2_S2_PfP6float2ffffjiiiiiiiiiiiiiiiiiiiiPKcS0_S0_S0_PfP6float2ffffjiiiiiiiiiiiiiiiiiiii, address: 1893776
	->Name: _ZL117__device_stub__Z18flash_attn_ext_f16ILi128ELi16ELi4ELi64ELi4E6__halfEvPKcS2_S2_S2_PfP6float2ffffjiiiiiiiiiiiiiiiiiiiiPKcS0_S0_S0_PfP6float2ffffjiiiiiiiiiiiiiiiiiiii, address: 1828240, vaddr: 65536
Name: _Z18flash_attn_ext_f16ILi128ELi16ELi4ELi64ELi4E6__halfEvPKcS2_S2_S2_PfP6float2ffffjiiiiiiiiiiiiiiiiiiii, address: 1914960
	->Name: _Z18flash_attn_ext_f16ILi128ELi16ELi4ELi64ELi4E6__halfEvPKcS2_S2_S2_PfP6float2ffffjiiiiiiiiiiiiiiiiiiii, address: 1849424, vaddr: 65536
Name: _ZL117__device_stub__Z18flash_attn_ext_f16ILi128ELi16ELi4ELi64ELi2E6__halfEvPKcS2_S2_S2_PfP6float2ffffjiiiiiiiiiiiiiiiiiiiiPKcS0_S0_S0_PfP6float2ffffjiiiiiiiiiiiiiiiiiiii, address: 1894560
	->Name: _ZL117__device_stub__Z18flash_attn_ext_f16ILi128ELi16ELi4ELi64ELi2E6__halfEvPKcS2_S2_S2_PfP6float2ffffjiiiiiiiiiiiiiiiiiiiiPKcS0_S0_S0_PfP6float2ffffjiiiiiiiiiiiiiiiiiiii, address: 1829024, vaddr: 65536
Name: _Z18flash_attn_ext_f16ILi128ELi16ELi4ELi64ELi2E6__halfEvPKcS2_S2_S2_PfP6float2ffffjiiiiiiiiiiiiiiiiiiii, address: 1914976
	->Name: _Z18flash_attn_ext_f16ILi128ELi16ELi4ELi64ELi2E6__halfEvPKcS2_S2_S2_PfP6float2ffffjiiiiiiiiiiiiiiiiiiii, address: 1849440, vaddr: 65536
Name: _ZL117__device_stub__Z18flash_attn_ext_f16ILi128ELi16ELi4ELi64ELi1E6__halfEvPKcS2_S2_S2_PfP6float2ffffjiiiiiiiiiiiiiiiiiiiiPKcS0_S0_S0_PfP6float2ffffjiiiiiiiiiiiiiiiiiiii, address: 1895344
	->Name: _ZL117__device_stub__Z18flash_attn_ext_f16ILi128ELi16ELi4ELi64ELi1E6__halfEvPKcS2_S2_S2_PfP6float2ffffjiiiiiiiiiiiiiiiiiiiiPKcS0_S0_S0_PfP6float2ffffjiiiiiiiiiiiiiiiiiiii, address: 1829808, vaddr: 65536
Name: _Z18flash_attn_ext_f16ILi128ELi16ELi4ELi64ELi1E6__halfEvPKcS2_S2_S2_PfP6float2ffffjiiiiiiiiiiiiiiiiiiii, address: 1914992
	->Name: _Z18flash_attn_ext_f16ILi128ELi16ELi4ELi64ELi1E6__halfEvPKcS2_S2_S2_PfP6float2ffffjiiiiiiiiiiiiiiiiiiii, address: 1849456, vaddr: 65536
Name: _ZL117__device_stub__Z18flash_attn_ext_f16ILi256ELi16ELi4ELi64ELi4E6__halfEvPKcS2_S2_S2_PfP6float2ffffjiiiiiiiiiiiiiiiiiiiiPKcS0_S0_S0_PfP6float2ffffjiiiiiiiiiiiiiiiiiiii, address: 1896128
	->Name: _ZL117__device_stub__Z18flash_attn_ext_f16ILi256ELi16ELi4ELi64ELi4E6__halfEvPKcS2_S2_S2_PfP6float2ffffjiiiiiiiiiiiiiiiiiiiiPKcS0_S0_S0_PfP6float2ffffjiiiiiiiiiiiiiiiiiiii, address: 1830592, vaddr: 65536
Name: _Z18flash_attn_ext_f16ILi256ELi16ELi4ELi64ELi4E6__halfEvPKcS2_S2_S2_PfP6float2ffffjiiiiiiiiiiiiiiiiiiii, address: 1915008
	->Name: _Z18flash_attn_ext_f16ILi256ELi16ELi4ELi64ELi4E6__halfEvPKcS2_S2_S2_PfP6float2ffffjiiiiiiiiiiiiiiiiiiii, address: 1849472, vaddr: 65536
Name: _ZL117__device_stub__Z18flash_attn_ext_f16ILi256ELi16ELi4ELi64ELi2E6__halfEvPKcS2_S2_S2_PfP6float2ffffjiiiiiiiiiiiiiiiiiiiiPKcS0_S0_S0_PfP6float2ffffjiiiiiiiiiiiiiiiiiiii, address: 1896912
	->Name: _ZL117__device_stub__Z18flash_attn_ext_f16ILi256ELi16ELi4ELi64ELi2E6__halfEvPKcS2_S2_S2_PfP6float2ffffjiiiiiiiiiiiiiiiiiiiiPKcS0_S0_S0_PfP6float2ffffjiiiiiiiiiiiiiiiiiiii, address: 1831376, vaddr: 65536
Name: _Z18flash_attn_ext_f16ILi256ELi16ELi4ELi64ELi2E6__halfEvPKcS2_S2_S2_PfP6float2ffffjiiiiiiiiiiiiiiiiiiii, address: 1915024
	->Name: _Z18flash_attn_ext_f16ILi256ELi16ELi4ELi64ELi2E6__halfEvPKcS2_S2_S2_PfP6float2ffffjiiiiiiiiiiiiiiiiiiii, address: 1849488, vaddr: 65536
Name: _ZL117__device_stub__Z18flash_attn_ext_f16ILi256ELi16ELi4ELi64ELi1E6__halfEvPKcS2_S2_S2_PfP6float2ffffjiiiiiiiiiiiiiiiiiiiiPKcS0_S0_S0_PfP6float2ffffjiiiiiiiiiiiiiiiiiiii, address: 1897696
	->Name: _ZL117__device_stub__Z18flash_attn_ext_f16ILi256ELi16ELi4ELi64ELi1E6__halfEvPKcS2_S2_S2_PfP6float2ffffjiiiiiiiiiiiiiiiiiiiiPKcS0_S0_S0_PfP6float2ffffjiiiiiiiiiiiiiiiiiiii, address: 1832160, vaddr: 65536
Name: _Z18flash_attn_ext_f16ILi256ELi16ELi4ELi64ELi1E6__halfEvPKcS2_S2_S2_PfP6float2ffffjiiiiiiiiiiiiiiiiiiii, address: 1915040
	->Name: _Z18flash_attn_ext_f16ILi256ELi16ELi4ELi64ELi1E6__halfEvPKcS2_S2_S2_PfP6float2ffffjiiiiiiiiiiiiiiiiiiii, address: 1849504, vaddr: 65536
Name: _ZL116__device_stub__Z18flash_attn_ext_f16ILi64ELi32ELi4ELi64ELi4E6__halfEvPKcS2_S2_S2_PfP6float2ffffjiiiiiiiiiiiiiiiiiiiiPKcS0_S0_S0_PfP6float2ffffjiiiiiiiiiiiiiiiiiiii, address: 1898480
	->Name: _ZL116__device_stub__Z18flash_attn_ext_f16ILi64ELi32ELi4ELi64ELi4E6__halfEvPKcS2_S2_S2_PfP6float2ffffjiiiiiiiiiiiiiiiiiiiiPKcS0_S0_S0_PfP6float2ffffjiiiiiiiiiiiiiiiiiiii, address: 1832944, vaddr: 65536
Name: _Z18flash_attn_ext_f16ILi64ELi32ELi4ELi64ELi4E6__halfEvPKcS2_S2_S2_PfP6float2ffffjiiiiiiiiiiiiiiiiiiii, address: 1915056
	->Name: _Z18flash_attn_ext_f16ILi64ELi32ELi4ELi64ELi4E6__halfEvPKcS2_S2_S2_PfP6float2ffffjiiiiiiiiiiiiiiiiiiii, address: 1849520, vaddr: 65536
Name: _ZL116__device_stub__Z18flash_attn_ext_f16ILi64ELi32ELi4ELi64ELi2E6__halfEvPKcS2_S2_S2_PfP6float2ffffjiiiiiiiiiiiiiiiiiiiiPKcS0_S0_S0_PfP6float2ffffjiiiiiiiiiiiiiiiiiiii, address: 1899264
	->Name: _ZL116__device_stub__Z18flash_attn_ext_f16ILi64ELi32ELi4ELi64ELi2E6__halfEvPKcS2_S2_S2_PfP6float2ffffjiiiiiiiiiiiiiiiiiiiiPKcS0_S0_S0_PfP6float2ffffjiiiiiiiiiiiiiiiiiiii, address: 1833728, vaddr: 65536
Name: _Z18flash_attn_ext_f16ILi64ELi32ELi4ELi64ELi2E6__halfEvPKcS2_S2_S2_PfP6float2ffffjiiiiiiiiiiiiiiiiiiii, address: 1915072
	->Name: _Z18flash_attn_ext_f16ILi64ELi32ELi4ELi64ELi2E6__halfEvPKcS2_S2_S2_PfP6float2ffffjiiiiiiiiiiiiiiiiiiii, address: 1849536, vaddr: 65536
Name: _ZL116__device_stub__Z18flash_attn_ext_f16ILi64ELi32ELi4ELi64ELi1E6__halfEvPKcS2_S2_S2_PfP6float2ffffjiiiiiiiiiiiiiiiiiiiiPKcS0_S0_S0_PfP6float2ffffjiiiiiiiiiiiiiiiiiiii, address: 1900048
	->Name: _ZL116__device_stub__Z18flash_attn_ext_f16ILi64ELi32ELi4ELi64ELi1E6__halfEvPKcS2_S2_S2_PfP6float2ffffjiiiiiiiiiiiiiiiiiiiiPKcS0_S0_S0_PfP6float2ffffjiiiiiiiiiiiiiiiiiiii, address: 1834512, vaddr: 65536
Name: _Z18flash_attn_ext_f16ILi64ELi32ELi4ELi64ELi1E6__halfEvPKcS2_S2_S2_PfP6float2ffffjiiiiiiiiiiiiiiiiiiii, address: 1915088
	->Name: _Z18flash_attn_ext_f16ILi64ELi32ELi4ELi64ELi1E6__halfEvPKcS2_S2_S2_PfP6float2ffffjiiiiiiiiiiiiiiiiiiii, address: 1849552, vaddr: 65536
Name: _ZL116__device_stub__Z18flash_attn_ext_f16ILi80ELi32ELi4ELi16ELi4E6__halfEvPKcS2_S2_S2_PfP6float2ffffjiiiiiiiiiiiiiiiiiiiiPKcS0_S0_S0_PfP6float2ffffjiiiiiiiiiiiiiiiiiiii, address: 1900832
	->Name: _ZL116__device_stub__Z18flash_attn_ext_f16ILi80ELi32ELi4ELi16ELi4E6__halfEvPKcS2_S2_S2_PfP6float2ffffjiiiiiiiiiiiiiiiiiiiiPKcS0_S0_S0_PfP6float2ffffjiiiiiiiiiiiiiiiiiiii, address: 1835296, vaddr: 65536
Name: _Z18flash_attn_ext_f16ILi80ELi32ELi4ELi16ELi4E6__halfEvPKcS2_S2_S2_PfP6float2ffffjiiiiiiiiiiiiiiiiiiii, address: 1915104
	->Name: _Z18flash_attn_ext_f16ILi80ELi32ELi4ELi16ELi4E6__halfEvPKcS2_S2_S2_PfP6float2ffffjiiiiiiiiiiiiiiiiiiii, address: 1849568, vaddr: 65536
Name: _ZL116__device_stub__Z18flash_attn_ext_f16ILi80ELi32ELi4ELi16ELi2E6__halfEvPKcS2_S2_S2_PfP6float2ffffjiiiiiiiiiiiiiiiiiiiiPKcS0_S0_S0_PfP6float2ffffjiiiiiiiiiiiiiiiiiiii, address: 1901616
	->Name: _ZL116__device_stub__Z18flash_attn_ext_f16ILi80ELi32ELi4ELi16ELi2E6__halfEvPKcS2_S2_S2_PfP6float2ffffjiiiiiiiiiiiiiiiiiiiiPKcS0_S0_S0_PfP6float2ffffjiiiiiiiiiiiiiiiiiiii, address: 1836080, vaddr: 65536
Name: _Z18flash_attn_ext_f16ILi80ELi32ELi4ELi16ELi2E6__halfEvPKcS2_S2_S2_PfP6float2ffffjiiiiiiiiiiiiiiiiiiii, address: 1915120
	->Name: _Z18flash_attn_ext_f16ILi80ELi32ELi4ELi16ELi2E6__halfEvPKcS2_S2_S2_PfP6float2ffffjiiiiiiiiiiiiiiiiiiii, address: 1849584, vaddr: 65536
Name: _ZL116__device_stub__Z18flash_attn_ext_f16ILi80ELi32ELi4ELi16ELi1E6__halfEvPKcS2_S2_S2_PfP6float2ffffjiiiiiiiiiiiiiiiiiiiiPKcS0_S0_S0_PfP6float2ffffjiiiiiiiiiiiiiiiiiiii, address: 1902400
	->Name: _ZL116__device_stub__Z18flash_attn_ext_f16ILi80ELi32ELi4ELi16ELi1E6__halfEvPKcS2_S2_S2_PfP6float2ffffjiiiiiiiiiiiiiiiiiiiiPKcS0_S0_S0_PfP6float2ffffjiiiiiiiiiiiiiiiiiiii, address: 1836864, vaddr: 65536
Name: _Z18flash_attn_ext_f16ILi80ELi32ELi4ELi16ELi1E6__halfEvPKcS2_S2_S2_PfP6float2ffffjiiiiiiiiiiiiiiiiiiii, address: 1915136
	->Name: _Z18flash_attn_ext_f16ILi80ELi32ELi4ELi16ELi1E6__halfEvPKcS2_S2_S2_PfP6float2ffffjiiiiiiiiiiiiiiiiiiii, address: 1849600, vaddr: 65536
Name: _ZL116__device_stub__Z18flash_attn_ext_f16ILi96ELi32ELi4ELi32ELi4E6__halfEvPKcS2_S2_S2_PfP6float2ffffjiiiiiiiiiiiiiiiiiiiiPKcS0_S0_S0_PfP6float2ffffjiiiiiiiiiiiiiiiiiiii, address: 1903184
	->Name: _ZL116__device_stub__Z18flash_attn_ext_f16ILi96ELi32ELi4ELi32ELi4E6__halfEvPKcS2_S2_S2_PfP6float2ffffjiiiiiiiiiiiiiiiiiiiiPKcS0_S0_S0_PfP6float2ffffjiiiiiiiiiiiiiiiiiiii, address: 1837648, vaddr: 65536
Name: _Z18flash_attn_ext_f16ILi96ELi32ELi4ELi32ELi4E6__halfEvPKcS2_S2_S2_PfP6float2ffffjiiiiiiiiiiiiiiiiiiii, address: 1915152
	->Name: _Z18flash_attn_ext_f16ILi96ELi32ELi4ELi32ELi4E6__halfEvPKcS2_S2_S2_PfP6float2ffffjiiiiiiiiiiiiiiiiiiii, address: 1849616, vaddr: 65536
Name: _ZL116__device_stub__Z18flash_attn_ext_f16ILi96ELi32ELi4ELi32ELi2E6__halfEvPKcS2_S2_S2_PfP6float2ffffjiiiiiiiiiiiiiiiiiiiiPKcS0_S0_S0_PfP6float2ffffjiiiiiiiiiiiiiiiiiiii, address: 1903968
	->Name: _ZL116__device_stub__Z18flash_attn_ext_f16ILi96ELi32ELi4ELi32ELi2E6__halfEvPKcS2_S2_S2_PfP6float2ffffjiiiiiiiiiiiiiiiiiiiiPKcS0_S0_S0_PfP6float2ffffjiiiiiiiiiiiiiiiiiiii, address: 1838432, vaddr: 65536
Name: _Z18flash_attn_ext_f16ILi96ELi32ELi4ELi32ELi2E6__halfEvPKcS2_S2_S2_PfP6float2ffffjiiiiiiiiiiiiiiiiiiii, address: 1915168
	->Name: _Z18flash_attn_ext_f16ILi96ELi32ELi4ELi32ELi2E6__halfEvPKcS2_S2_S2_PfP6float2ffffjiiiiiiiiiiiiiiiiiiii, address: 1849632, vaddr: 65536
Name: _ZL116__device_stub__Z18flash_attn_ext_f16ILi96ELi32ELi4ELi32ELi1E6__halfEvPKcS2_S2_S2_PfP6float2ffffjiiiiiiiiiiiiiiiiiiiiPKcS0_S0_S0_PfP6float2ffffjiiiiiiiiiiiiiiiiiiii, address: 1904752
	->Name: _ZL116__device_stub__Z18flash_attn_ext_f16ILi96ELi32ELi4ELi32ELi1E6__halfEvPKcS2_S2_S2_PfP6float2ffffjiiiiiiiiiiiiiiiiiiiiPKcS0_S0_S0_PfP6float2ffffjiiiiiiiiiiiiiiiiiiii, address: 1839216, vaddr: 65536
Name: _Z18flash_attn_ext_f16ILi96ELi32ELi4ELi32ELi1E6__halfEvPKcS2_S2_S2_PfP6float2ffffjiiiiiiiiiiiiiiiiiiii, address: 1915184
	->Name: _Z18flash_attn_ext_f16ILi96ELi32ELi4ELi32ELi1E6__halfEvPKcS2_S2_S2_PfP6float2ffffjiiiiiiiiiiiiiiiiiiii, address: 1849648, vaddr: 65536
Name: _ZL117__device_stub__Z18flash_attn_ext_f16ILi112ELi32ELi4ELi16ELi4E6__halfEvPKcS2_S2_S2_PfP6float2ffffjiiiiiiiiiiiiiiiiiiiiPKcS0_S0_S0_PfP6float2ffffjiiiiiiiiiiiiiiiiiiii, address: 1905536
	->Name: _ZL117__device_stub__Z18flash_attn_ext_f16ILi112ELi32ELi4ELi16ELi4E6__halfEvPKcS2_S2_S2_PfP6float2ffffjiiiiiiiiiiiiiiiiiiiiPKcS0_S0_S0_PfP6float2ffffjiiiiiiiiiiiiiiiiiiii, address: 1840000, vaddr: 65536
Name: _Z18flash_attn_ext_f16ILi112ELi32ELi4ELi16ELi4E6__halfEvPKcS2_S2_S2_PfP6float2ffffjiiiiiiiiiiiiiiiiiiii, address: 1915200
	->Name: _Z18flash_attn_ext_f16ILi112ELi32ELi4ELi16ELi4E6__halfEvPKcS2_S2_S2_PfP6float2ffffjiiiiiiiiiiiiiiiiiiii, address: 1849664, vaddr: 65536
Name: _ZL117__device_stub__Z18flash_attn_ext_f16ILi112ELi32ELi4ELi16ELi2E6__halfEvPKcS2_S2_S2_PfP6float2ffffjiiiiiiiiiiiiiiiiiiiiPKcS0_S0_S0_PfP6float2ffffjiiiiiiiiiiiiiiiiiiii, address: 1906320
	->Name: _ZL117__device_stub__Z18flash_attn_ext_f16ILi112ELi32ELi4ELi16ELi2E6__halfEvPKcS2_S2_S2_PfP6float2ffffjiiiiiiiiiiiiiiiiiiiiPKcS0_S0_S0_PfP6float2ffffjiiiiiiiiiiiiiiiiiiii, address: 1840784, vaddr: 65536
Name: _Z18flash_attn_ext_f16ILi112ELi32ELi4ELi16ELi2E6__halfEvPKcS2_S2_S2_PfP6float2ffffjiiiiiiiiiiiiiiiiiiii, address: 1915216
	->Name: _Z18flash_attn_ext_f16ILi112ELi32ELi4ELi16ELi2E6__halfEvPKcS2_S2_S2_PfP6float2ffffjiiiiiiiiiiiiiiiiiiii, address: 1849680, vaddr: 65536
Name: _ZL117__device_stub__Z18flash_attn_ext_f16ILi112ELi32ELi4ELi16ELi1E6__halfEvPKcS2_S2_S2_PfP6float2ffffjiiiiiiiiiiiiiiiiiiiiPKcS0_S0_S0_PfP6float2ffffjiiiiiiiiiiiiiiiiiiii, address: 1907104
	->Name: _ZL117__device_stub__Z18flash_attn_ext_f16ILi112ELi32ELi4ELi16ELi1E6__halfEvPKcS2_S2_S2_PfP6float2ffffjiiiiiiiiiiiiiiiiiiiiPKcS0_S0_S0_PfP6float2ffffjiiiiiiiiiiiiiiiiiiii, address: 1841568, vaddr: 65536
Name: _Z18flash_attn_ext_f16ILi112ELi32ELi4ELi16ELi1E6__halfEvPKcS2_S2_S2_PfP6float2ffffjiiiiiiiiiiiiiiiiiiii, address: 1915232
	->Name: _Z18flash_attn_ext_f16ILi112ELi32ELi4ELi16ELi1E6__halfEvPKcS2_S2_S2_PfP6float2ffffjiiiiiiiiiiiiiiiiiiii, address: 1849696, vaddr: 65536
Name: _ZL117__device_stub__Z18flash_attn_ext_f16ILi128ELi32ELi4ELi64ELi4E6__halfEvPKcS2_S2_S2_PfP6float2ffffjiiiiiiiiiiiiiiiiiiiiPKcS0_S0_S0_PfP6float2ffffjiiiiiiiiiiiiiiiiiiii, address: 1907888
	->Name: _ZL117__device_stub__Z18flash_attn_ext_f16ILi128ELi32ELi4ELi64ELi4E6__halfEvPKcS2_S2_S2_PfP6float2ffffjiiiiiiiiiiiiiiiiiiiiPKcS0_S0_S0_PfP6float2ffffjiiiiiiiiiiiiiiiiiiii, address: 1842352, vaddr: 65536
Name: _Z18flash_attn_ext_f16ILi128ELi32ELi4ELi64ELi4E6__halfEvPKcS2_S2_S2_PfP6float2ffffjiiiiiiiiiiiiiiiiiiii, address: 1915248
	->Name: _Z18flash_attn_ext_f16ILi128ELi32ELi4ELi64ELi4E6__halfEvPKcS2_S2_S2_PfP6float2ffffjiiiiiiiiiiiiiiiiiiii, address: 1849712, vaddr: 65536
Name: _ZL117__device_stub__Z18flash_attn_ext_f16ILi128ELi32ELi4ELi64ELi2E6__halfEvPKcS2_S2_S2_PfP6float2ffffjiiiiiiiiiiiiiiiiiiiiPKcS0_S0_S0_PfP6float2ffffjiiiiiiiiiiiiiiiiiiii, address: 1908672
	->Name: _ZL117__device_stub__Z18flash_attn_ext_f16ILi128ELi32ELi4ELi64ELi2E6__halfEvPKcS2_S2_S2_PfP6float2ffffjiiiiiiiiiiiiiiiiiiiiPKcS0_S0_S0_PfP6float2ffffjiiiiiiiiiiiiiiiiiiii, address: 1843136, vaddr: 65536
Name: _Z18flash_attn_ext_f16ILi128ELi32ELi4ELi64ELi2E6__halfEvPKcS2_S2_S2_PfP6float2ffffjiiiiiiiiiiiiiiiiiiii, address: 1915264
	->Name: _Z18flash_attn_ext_f16ILi128ELi32ELi4ELi64ELi2E6__halfEvPKcS2_S2_S2_PfP6float2ffffjiiiiiiiiiiiiiiiiiiii, address: 1849728, vaddr: 65536
Name: _ZL117__device_stub__Z18flash_attn_ext_f16ILi128ELi32ELi4ELi64ELi1E6__halfEvPKcS2_S2_S2_PfP6float2ffffjiiiiiiiiiiiiiiiiiiiiPKcS0_S0_S0_PfP6float2ffffjiiiiiiiiiiiiiiiiiiii, address: 1909456
	->Name: _ZL117__device_stub__Z18flash_attn_ext_f16ILi128ELi32ELi4ELi64ELi1E6__halfEvPKcS2_S2_S2_PfP6float2ffffjiiiiiiiiiiiiiiiiiiiiPKcS0_S0_S0_PfP6float2ffffjiiiiiiiiiiiiiiiiiiii, address: 1843920, vaddr: 65536
Name: _Z18flash_attn_ext_f16ILi128ELi32ELi4ELi64ELi1E6__halfEvPKcS2_S2_S2_PfP6float2ffffjiiiiiiiiiiiiiiiiiiii, address: 1915280
	->Name: _Z18flash_attn_ext_f16ILi128ELi32ELi4ELi64ELi1E6__halfEvPKcS2_S2_S2_PfP6float2ffffjiiiiiiiiiiiiiiiiiiii, address: 1849744, vaddr: 65536
Name: _ZL117__device_stub__Z18flash_attn_ext_f16ILi256ELi32ELi4ELi64ELi4E6__halfEvPKcS2_S2_S2_PfP6float2ffffjiiiiiiiiiiiiiiiiiiiiPKcS0_S0_S0_PfP6float2ffffjiiiiiiiiiiiiiiiiiiii, address: 1910240
	->Name: _ZL117__device_stub__Z18flash_attn_ext_f16ILi256ELi32ELi4ELi64ELi4E6__halfEvPKcS2_S2_S2_PfP6float2ffffjiiiiiiiiiiiiiiiiiiiiPKcS0_S0_S0_PfP6float2ffffjiiiiiiiiiiiiiiiiiiii, address: 1844704, vaddr: 65536
Name: _Z18flash_attn_ext_f16ILi256ELi32ELi4ELi64ELi4E6__halfEvPKcS2_S2_S2_PfP6float2ffffjiiiiiiiiiiiiiiiiiiii, address: 1915296
	->Name: _Z18flash_attn_ext_f16ILi256ELi32ELi4ELi64ELi4E6__halfEvPKcS2_S2_S2_PfP6float2ffffjiiiiiiiiiiiiiiiiiiii, address: 1849760, vaddr: 65536
Name: _ZL117__device_stub__Z18flash_attn_ext_f16ILi256ELi32ELi4ELi64ELi2E6__halfEvPKcS2_S2_S2_PfP6float2ffffjiiiiiiiiiiiiiiiiiiiiPKcS0_S0_S0_PfP6float2ffffjiiiiiiiiiiiiiiiiiiii, address: 1911024
	->Name: _ZL117__device_stub__Z18flash_attn_ext_f16ILi256ELi32ELi4ELi64ELi2E6__halfEvPKcS2_S2_S2_PfP6float2ffffjiiiiiiiiiiiiiiiiiiiiPKcS0_S0_S0_PfP6float2ffffjiiiiiiiiiiiiiiiiiiii, address: 1845488, vaddr: 65536
Name: _Z18flash_attn_ext_f16ILi256ELi32ELi4ELi64ELi2E6__halfEvPKcS2_S2_S2_PfP6float2ffffjiiiiiiiiiiiiiiiiiiii, address: 1915312
	->Name: _Z18flash_attn_ext_f16ILi256ELi32ELi4ELi64ELi2E6__halfEvPKcS2_S2_S2_PfP6float2ffffjiiiiiiiiiiiiiiiiiiii, address: 1849776, vaddr: 65536
Name: _ZL117__device_stub__Z18flash_attn_ext_f16ILi256ELi32ELi4ELi64ELi1E6__halfEvPKcS2_S2_S2_PfP6float2ffffjiiiiiiiiiiiiiiiiiiiiPKcS0_S0_S0_PfP6float2ffffjiiiiiiiiiiiiiiiiiiii, address: 1911808
	->Name: _ZL117__device_stub__Z18flash_attn_ext_f16ILi256ELi32ELi4ELi64ELi1E6__halfEvPKcS2_S2_S2_PfP6float2ffffjiiiiiiiiiiiiiiiiiiiiPKcS0_S0_S0_PfP6float2ffffjiiiiiiiiiiiiiiiiiiii, address: 1846272, vaddr: 65536
Name: _Z18flash_attn_ext_f16ILi256ELi32ELi4ELi64ELi1E6__halfEvPKcS2_S2_S2_PfP6float2ffffjiiiiiiiiiiiiiiiiiiii, address: 1914032
	->Name: _Z18flash_attn_ext_f16ILi256ELi32ELi4ELi64ELi1E6__halfEvPKcS2_S2_S2_PfP6float2ffffjiiiiiiiiiiiiiiiiiiii, address: 1848496, vaddr: 65536
Name: _Z26flash_attn_combine_resultsILi64ELi1EEvPKfPK6float2Pf, address: 1912592
	->Name: _Z26flash_attn_combine_resultsILi64ELi1EEvPKfPK6float2Pf, address: 1847056, vaddr: 65536
Name: _Z26flash_attn_combine_resultsILi80ELi1EEvPKfPK6float2Pf, address: 1912816
	->Name: _Z26flash_attn_combine_resultsILi80ELi1EEvPKfPK6float2Pf, address: 1847280, vaddr: 65536
Name: _Z26flash_attn_combine_resultsILi96ELi1EEvPKfPK6float2Pf, address: 1913040
	->Name: _Z26flash_attn_combine_resultsILi96ELi1EEvPKfPK6float2Pf, address: 1847504, vaddr: 65536
Name: _Z26flash_attn_combine_resultsILi112ELi1EEvPKfPK6float2Pf, address: 1913264
	->Name: _Z26flash_attn_combine_resultsILi112ELi1EEvPKfPK6float2Pf, address: 1847728, vaddr: 65536
Name: _Z26flash_attn_combine_resultsILi128ELi1EEvPKfPK6float2Pf, address: 1913488
	->Name: _Z26flash_attn_combine_resultsILi128ELi1EEvPKfPK6float2Pf, address: 1847952, vaddr: 65536
Name: _Z26flash_attn_combine_resultsILi256ELi1EEvPKfPK6float2Pf, address: 1913712
	->Name: _Z26flash_attn_combine_resultsILi256ELi1EEvPKfPK6float2Pf, address: 1848176, vaddr: 65536
Name: _ZL26__cudaUnregisterBinaryUtilv, address: 1913936
	->Name: _ZL26__cudaUnregisterBinaryUtilv, address: 1848400, vaddr: 65536
Name: _ZN20ggml_cuda_pool_allocIfE5allocEm.part.0, address: 1913952
	->Name: _ZN20ggml_cuda_pool_allocIfE5allocEm.part.0, address: 1848416, vaddr: 65536
Name: _ZN20ggml_cuda_pool_allocI6float2E5allocEm.part.0, address: 1913952
	->Name: _ZN20ggml_cuda_pool_allocI6float2E5allocEm.part.0, address: 1848416, vaddr: 65536
Name: _ZL24__sti____cudaRegisterAllv, address: 205152
	->Name: _ZL24__sti____cudaRegisterAllv, address: 139616, vaddr: 65536
Name: _ZL103__device_stub__Z22flash_attn_vec_ext_f16ILi64ELi1ELi4EEvPKcS1_S1_S1_PfP6float2ffffjiiiiiiiiiiiiiiiiiiiiPKcS0_S0_S0_PfP6float2ffffjiiiiiiiiiiiiiiiiiiii, address: 2039776
	->Name: _ZL103__device_stub__Z22flash_attn_vec_ext_f16ILi64ELi1ELi4EEvPKcS1_S1_S1_PfP6float2ffffjiiiiiiiiiiiiiiiiiiiiPKcS0_S0_S0_PfP6float2ffffjiiiiiiiiiiiiiiiiiiii, address: 1974240, vaddr: 65536
Name: _Z22flash_attn_vec_ext_f16ILi64ELi1ELi4EEvPKcS1_S1_S1_PfP6float2ffffjiiiiiiiiiiiiiiiiiiii, address: 2049376
	->Name: _Z22flash_attn_vec_ext_f16ILi64ELi1ELi4EEvPKcS1_S1_S1_PfP6float2ffffjiiiiiiiiiiiiiiiiiiii, address: 1983840, vaddr: 65536
Name: _ZL70__device_stub__Z26flash_attn_combine_resultsILi64ELi4EEvPKfPK6float2PfPKfPK6float2Pf, address: 2040560
	->Name: _ZL70__device_stub__Z26flash_attn_combine_resultsILi64ELi4EEvPKfPK6float2PfPKfPK6float2Pf, address: 1975024, vaddr: 65536
Name: _Z26flash_attn_combine_resultsILi64ELi4EEvPKfPK6float2Pf, address: 2049760
	->Name: _Z26flash_attn_combine_resultsILi64ELi4EEvPKfPK6float2Pf, address: 1984224, vaddr: 65536
Name: _ZL104__device_stub__Z22flash_attn_vec_ext_f16ILi128ELi1ELi4EEvPKcS1_S1_S1_PfP6float2ffffjiiiiiiiiiiiiiiiiiiiiPKcS0_S0_S0_PfP6float2ffffjiiiiiiiiiiiiiiiiiiii, address: 2040768
	->Name: _ZL104__device_stub__Z22flash_attn_vec_ext_f16ILi128ELi1ELi4EEvPKcS1_S1_S1_PfP6float2ffffjiiiiiiiiiiiiiiiiiiiiPKcS0_S0_S0_PfP6float2ffffjiiiiiiiiiiiiiiiiiiii, address: 1975232, vaddr: 65536
Name: _Z22flash_attn_vec_ext_f16ILi128ELi1ELi4EEvPKcS1_S1_S1_PfP6float2ffffjiiiiiiiiiiiiiiiiiiii, address: 2049392
	->Name: _Z22flash_attn_vec_ext_f16ILi128ELi1ELi4EEvPKcS1_S1_S1_PfP6float2ffffjiiiiiiiiiiiiiiiiiiii, address: 1983856, vaddr: 65536
Name: _ZL71__device_stub__Z26flash_attn_combine_resultsILi128ELi4EEvPKfPK6float2PfPKfPK6float2Pf, address: 2041552
	->Name: _ZL71__device_stub__Z26flash_attn_combine_resultsILi128ELi4EEvPKfPK6float2PfPKfPK6float2Pf, address: 1976016, vaddr: 65536
Name: _Z26flash_attn_combine_resultsILi128ELi4EEvPKfPK6float2Pf, address: 2049984
	->Name: _Z26flash_attn_combine_resultsILi128ELi4EEvPKfPK6float2Pf, address: 1984448, vaddr: 65536
Name: _ZL104__device_stub__Z22flash_attn_vec_ext_f16ILi256ELi1ELi4EEvPKcS1_S1_S1_PfP6float2ffffjiiiiiiiiiiiiiiiiiiiiPKcS0_S0_S0_PfP6float2ffffjiiiiiiiiiiiiiiiiiiii, address: 2041760
	->Name: _ZL104__device_stub__Z22flash_attn_vec_ext_f16ILi256ELi1ELi4EEvPKcS1_S1_S1_PfP6float2ffffjiiiiiiiiiiiiiiiiiiiiPKcS0_S0_S0_PfP6float2ffffjiiiiiiiiiiiiiiiiiiii, address: 1976224, vaddr: 65536
Name: _Z22flash_attn_vec_ext_f16ILi256ELi1ELi4EEvPKcS1_S1_S1_PfP6float2ffffjiiiiiiiiiiiiiiiiiiii, address: 2049408
	->Name: _Z22flash_attn_vec_ext_f16ILi256ELi1ELi4EEvPKcS1_S1_S1_PfP6float2ffffjiiiiiiiiiiiiiiiiiiii, address: 1983872, vaddr: 65536
Name: _ZL103__device_stub__Z22flash_attn_vec_ext_f16ILi64ELi2ELi4EEvPKcS1_S1_S1_PfP6float2ffffjiiiiiiiiiiiiiiiiiiiiPKcS0_S0_S0_PfP6float2ffffjiiiiiiiiiiiiiiiiiiii, address: 2042544
	->Name: _ZL103__device_stub__Z22flash_attn_vec_ext_f16ILi64ELi2ELi4EEvPKcS1_S1_S1_PfP6float2ffffjiiiiiiiiiiiiiiiiiiiiPKcS0_S0_S0_PfP6float2ffffjiiiiiiiiiiiiiiiiiiii, address: 1977008, vaddr: 65536
Name: _Z22flash_attn_vec_ext_f16ILi64ELi2ELi4EEvPKcS1_S1_S1_PfP6float2ffffjiiiiiiiiiiiiiiiiiiii, address: 2049424
	->Name: _Z22flash_attn_vec_ext_f16ILi64ELi2ELi4EEvPKcS1_S1_S1_PfP6float2ffffjiiiiiiiiiiiiiiiiiiii, address: 1983888, vaddr: 65536
Name: _ZL104__device_stub__Z22flash_attn_vec_ext_f16ILi128ELi2ELi4EEvPKcS1_S1_S1_PfP6float2ffffjiiiiiiiiiiiiiiiiiiiiPKcS0_S0_S0_PfP6float2ffffjiiiiiiiiiiiiiiiiiiii, address: 2043328
	->Name: _ZL104__device_stub__Z22flash_attn_vec_ext_f16ILi128ELi2ELi4EEvPKcS1_S1_S1_PfP6float2ffffjiiiiiiiiiiiiiiiiiiiiPKcS0_S0_S0_PfP6float2ffffjiiiiiiiiiiiiiiiiiiii, address: 1977792, vaddr: 65536
Name: _Z22flash_attn_vec_ext_f16ILi128ELi2ELi4EEvPKcS1_S1_S1_PfP6float2ffffjiiiiiiiiiiiiiiiiiiii, address: 2049440
	->Name: _Z22flash_attn_vec_ext_f16ILi128ELi2ELi4EEvPKcS1_S1_S1_PfP6float2ffffjiiiiiiiiiiiiiiiiiiii, address: 1983904, vaddr: 65536
Name: _ZL103__device_stub__Z22flash_attn_vec_ext_f16ILi64ELi4ELi4EEvPKcS1_S1_S1_PfP6float2ffffjiiiiiiiiiiiiiiiiiiiiPKcS0_S0_S0_PfP6float2ffffjiiiiiiiiiiiiiiiiiiii, address: 2044112
	->Name: _ZL103__device_stub__Z22flash_attn_vec_ext_f16ILi64ELi4ELi4EEvPKcS1_S1_S1_PfP6float2ffffjiiiiiiiiiiiiiiiiiiiiPKcS0_S0_S0_PfP6float2ffffjiiiiiiiiiiiiiiiiiiii, address: 1978576, vaddr: 65536
Name: _Z22flash_attn_vec_ext_f16ILi64ELi4ELi4EEvPKcS1_S1_S1_PfP6float2ffffjiiiiiiiiiiiiiiiiiiii, address: 2049456
	->Name: _Z22flash_attn_vec_ext_f16ILi64ELi4ELi4EEvPKcS1_S1_S1_PfP6float2ffffjiiiiiiiiiiiiiiiiiiii, address: 1983920, vaddr: 65536
Name: _ZL104__device_stub__Z22flash_attn_vec_ext_f16ILi128ELi4ELi4EEvPKcS1_S1_S1_PfP6float2ffffjiiiiiiiiiiiiiiiiiiiiPKcS0_S0_S0_PfP6float2ffffjiiiiiiiiiiiiiiiiiiii, address: 2044896
	->Name: _ZL104__device_stub__Z22flash_attn_vec_ext_f16ILi128ELi4ELi4EEvPKcS1_S1_S1_PfP6float2ffffjiiiiiiiiiiiiiiiiiiiiPKcS0_S0_S0_PfP6float2ffffjiiiiiiiiiiiiiiiiiiii, address: 1979360, vaddr: 65536
Name: _Z22flash_attn_vec_ext_f16ILi128ELi4ELi4EEvPKcS1_S1_S1_PfP6float2ffffjiiiiiiiiiiiiiiiiiiii, address: 2049472
	->Name: _Z22flash_attn_vec_ext_f16ILi128ELi4ELi4EEvPKcS1_S1_S1_PfP6float2ffffjiiiiiiiiiiiiiiiiiiii, address: 1983936, vaddr: 65536
Name: _ZL103__device_stub__Z22flash_attn_vec_ext_f16ILi64ELi8ELi4EEvPKcS1_S1_S1_PfP6float2ffffjiiiiiiiiiiiiiiiiiiiiPKcS0_S0_S0_PfP6float2ffffjiiiiiiiiiiiiiiiiiiii, address: 2045680
	->Name: _ZL103__device_stub__Z22flash_attn_vec_ext_f16ILi64ELi8ELi4EEvPKcS1_S1_S1_PfP6float2ffffjiiiiiiiiiiiiiiiiiiiiPKcS0_S0_S0_PfP6float2ffffjiiiiiiiiiiiiiiiiiiii, address: 1980144, vaddr: 65536
Name: _Z22flash_attn_vec_ext_f16ILi64ELi8ELi4EEvPKcS1_S1_S1_PfP6float2ffffjiiiiiiiiiiiiiiiiiiii, address: 2049488
	->Name: _Z22flash_attn_vec_ext_f16ILi64ELi8ELi4EEvPKcS1_S1_S1_PfP6float2ffffjiiiiiiiiiiiiiiiiiiii, address: 1983952, vaddr: 65536
Name: _ZL104__device_stub__Z22flash_attn_vec_ext_f16ILi128ELi8ELi4EEvPKcS1_S1_S1_PfP6float2ffffjiiiiiiiiiiiiiiiiiiiiPKcS0_S0_S0_PfP6float2ffffjiiiiiiiiiiiiiiiiiiii, address: 2046464
	->Name: _ZL104__device_stub__Z22flash_attn_vec_ext_f16ILi128ELi8ELi4EEvPKcS1_S1_S1_PfP6float2ffffjiiiiiiiiiiiiiiiiiiiiPKcS0_S0_S0_PfP6float2ffffjiiiiiiiiiiiiiiiiiiii, address: 1980928, vaddr: 65536
Name: _Z22flash_attn_vec_ext_f16ILi128ELi8ELi4EEvPKcS1_S1_S1_PfP6float2ffffjiiiiiiiiiiiiiiiiiiii, address: 2049504
	->Name: _Z22flash_attn_vec_ext_f16ILi128ELi8ELi4EEvPKcS1_S1_S1_PfP6float2ffffjiiiiiiiiiiiiiiiiiiii, address: 1983968, vaddr: 65536
Name: _ZL103__device_stub__Z22flash_attn_vec_ext_f16ILi64ELi8ELi1EEvPKcS1_S1_S1_PfP6float2ffffjiiiiiiiiiiiiiiiiiiiiPKcS0_S0_S0_PfP6float2ffffjiiiiiiiiiiiiiiiiiiii, address: 2047248
	->Name: _ZL103__device_stub__Z22flash_attn_vec_ext_f16ILi64ELi8ELi1EEvPKcS1_S1_S1_PfP6float2ffffjiiiiiiiiiiiiiiiiiiiiPKcS0_S0_S0_PfP6float2ffffjiiiiiiiiiiiiiiiiiiii, address: 1981712, vaddr: 65536
Name: _Z22flash_attn_vec_ext_f16ILi64ELi8ELi1EEvPKcS1_S1_S1_PfP6float2ffffjiiiiiiiiiiiiiiiiiiii, address: 2049520
	->Name: _Z22flash_attn_vec_ext_f16ILi64ELi8ELi1EEvPKcS1_S1_S1_PfP6float2ffffjiiiiiiiiiiiiiiiiiiii, address: 1983984, vaddr: 65536
Name: _ZL104__device_stub__Z22flash_attn_vec_ext_f16ILi128ELi8ELi1EEvPKcS1_S1_S1_PfP6float2ffffjiiiiiiiiiiiiiiiiiiiiPKcS0_S0_S0_PfP6float2ffffjiiiiiiiiiiiiiiiiiiii, address: 2048032
	->Name: _ZL104__device_stub__Z22flash_attn_vec_ext_f16ILi128ELi8ELi1EEvPKcS1_S1_S1_PfP6float2ffffjiiiiiiiiiiiiiiiiiiiiPKcS0_S0_S0_PfP6float2ffffjiiiiiiiiiiiiiiiiiiii, address: 1982496, vaddr: 65536
Name: _Z22flash_attn_vec_ext_f16ILi128ELi8ELi1EEvPKcS1_S1_S1_PfP6float2ffffjiiiiiiiiiiiiiiiiiiii, address: 2049360
	->Name: _Z22flash_attn_vec_ext_f16ILi128ELi8ELi1EEvPKcS1_S1_S1_PfP6float2ffffjiiiiiiiiiiiiiiiiiiii, address: 1983824, vaddr: 65536
Name: _Z26flash_attn_combine_resultsILi64ELi1EEvPKfPK6float2Pf, address: 2048816
	->Name: _Z26flash_attn_combine_resultsILi64ELi1EEvPKfPK6float2Pf, address: 1983280, vaddr: 65536
Name: _Z26flash_attn_combine_resultsILi128ELi1EEvPKfPK6float2Pf, address: 2049040
	->Name: _Z26flash_attn_combine_resultsILi128ELi1EEvPKfPK6float2Pf, address: 1983504, vaddr: 65536
Name: _ZL26__cudaUnregisterBinaryUtilv, address: 2049264
	->Name: _ZL26__cudaUnregisterBinaryUtilv, address: 1983728, vaddr: 65536
Name: _ZN20ggml_cuda_pool_allocIfE5allocEm.part.0, address: 2049280
	->Name: _ZN20ggml_cuda_pool_allocIfE5allocEm.part.0, address: 1983744, vaddr: 65536
Name: _ZN20ggml_cuda_pool_allocI6float2E5allocEm.part.0, address: 2049280
	->Name: _ZN20ggml_cuda_pool_allocI6float2E5allocEm.part.0, address: 1983744, vaddr: 65536
Name: _Z26flash_attn_combine_resultsILi256ELi4EEvPKfPK6float2Pf, address: 2049536
	->Name: _Z26flash_attn_combine_resultsILi256ELi4EEvPKfPK6float2Pf, address: 1984000, vaddr: 65536
Name: _ZL24__sti____cudaRegisterAllv, address: 210176
	->Name: _ZL24__sti____cudaRegisterAllv, address: 144640, vaddr: 65536
Name: _ZL103__device_stub__Z22flash_attn_vec_ext_f32ILi64ELi1ELi4EEvPKcS1_S1_S1_PfP6float2ffffjiiiiiiiiiiiiiiiiiiiiPKcS0_S0_S0_PfP6float2ffffjiiiiiiiiiiiiiiiiiiii, address: 2070336
	->Name: _ZL103__device_stub__Z22flash_attn_vec_ext_f32ILi64ELi1ELi4EEvPKcS1_S1_S1_PfP6float2ffffjiiiiiiiiiiiiiiiiiiiiPKcS0_S0_S0_PfP6float2ffffjiiiiiiiiiiiiiiiiiiii, address: 2004800, vaddr: 65536
Name: _Z22flash_attn_vec_ext_f32ILi64ELi1ELi4EEvPKcS1_S1_S1_PfP6float2ffffjiiiiiiiiiiiiiiiiiiii, address: 2079152
	->Name: _Z22flash_attn_vec_ext_f32ILi64ELi1ELi4EEvPKcS1_S1_S1_PfP6float2ffffjiiiiiiiiiiiiiiiiiiii, address: 2013616, vaddr: 65536
Name: _ZL70__device_stub__Z26flash_attn_combine_resultsILi64ELi4EEvPKfPK6float2PfPKfPK6float2Pf, address: 2071120
	->Name: _ZL70__device_stub__Z26flash_attn_combine_resultsILi64ELi4EEvPKfPK6float2PfPKfPK6float2Pf, address: 2005584, vaddr: 65536
Name: _Z26flash_attn_combine_resultsILi64ELi4EEvPKfPK6float2Pf, address: 2079520
	->Name: _Z26flash_attn_combine_resultsILi64ELi4EEvPKfPK6float2Pf, address: 2013984, vaddr: 65536
Name: _ZL104__device_stub__Z22flash_attn_vec_ext_f32ILi128ELi1ELi4EEvPKcS1_S1_S1_PfP6float2ffffjiiiiiiiiiiiiiiiiiiiiPKcS0_S0_S0_PfP6float2ffffjiiiiiiiiiiiiiiiiiiii, address: 2071328
	->Name: _ZL104__device_stub__Z22flash_attn_vec_ext_f32ILi128ELi1ELi4EEvPKcS1_S1_S1_PfP6float2ffffjiiiiiiiiiiiiiiiiiiiiPKcS0_S0_S0_PfP6float2ffffjiiiiiiiiiiiiiiiiiiii, address: 2005792, vaddr: 65536
Name: _Z22flash_attn_vec_ext_f32ILi128ELi1ELi4EEvPKcS1_S1_S1_PfP6float2ffffjiiiiiiiiiiiiiiiiiiii, address: 2079168
	->Name: _Z22flash_attn_vec_ext_f32ILi128ELi1ELi4EEvPKcS1_S1_S1_PfP6float2ffffjiiiiiiiiiiiiiiiiiiii, address: 2013632, vaddr: 65536
Name: _ZL71__device_stub__Z26flash_attn_combine_resultsILi128ELi4EEvPKfPK6float2PfPKfPK6float2Pf, address: 2072112
	->Name: _ZL71__device_stub__Z26flash_attn_combine_resultsILi128ELi4EEvPKfPK6float2PfPKfPK6float2Pf, address: 2006576, vaddr: 65536
Name: _Z26flash_attn_combine_resultsILi128ELi4EEvPKfPK6float2Pf, address: 2079296
	->Name: _Z26flash_attn_combine_resultsILi128ELi4EEvPKfPK6float2Pf, address: 2013760, vaddr: 65536
Name: _ZL103__device_stub__Z22flash_attn_vec_ext_f32ILi64ELi2ELi4EEvPKcS1_S1_S1_PfP6float2ffffjiiiiiiiiiiiiiiiiiiiiPKcS0_S0_S0_PfP6float2ffffjiiiiiiiiiiiiiiiiiiii, address: 2072320
	->Name: _ZL103__device_stub__Z22flash_attn_vec_ext_f32ILi64ELi2ELi4EEvPKcS1_S1_S1_PfP6float2ffffjiiiiiiiiiiiiiiiiiiiiPKcS0_S0_S0_PfP6float2ffffjiiiiiiiiiiiiiiiiiiii, address: 2006784, vaddr: 65536
Name: _Z22flash_attn_vec_ext_f32ILi64ELi2ELi4EEvPKcS1_S1_S1_PfP6float2ffffjiiiiiiiiiiiiiiiiiiii, address: 2079184
	->Name: _Z22flash_attn_vec_ext_f32ILi64ELi2ELi4EEvPKcS1_S1_S1_PfP6float2ffffjiiiiiiiiiiiiiiiiiiii, address: 2013648, vaddr: 65536
Name: _ZL104__device_stub__Z22flash_attn_vec_ext_f32ILi128ELi2ELi4EEvPKcS1_S1_S1_PfP6float2ffffjiiiiiiiiiiiiiiiiiiiiPKcS0_S0_S0_PfP6float2ffffjiiiiiiiiiiiiiiiiiiii, address: 2073104
	->Name: _ZL104__device_stub__Z22flash_attn_vec_ext_f32ILi128ELi2ELi4EEvPKcS1_S1_S1_PfP6float2ffffjiiiiiiiiiiiiiiiiiiiiPKcS0_S0_S0_PfP6float2ffffjiiiiiiiiiiiiiiiiiiii, address: 2007568, vaddr: 65536
Name: _Z22flash_attn_vec_ext_f32ILi128ELi2ELi4EEvPKcS1_S1_S1_PfP6float2ffffjiiiiiiiiiiiiiiiiiiii, address: 2079200
	->Name: _Z22flash_attn_vec_ext_f32ILi128ELi2ELi4EEvPKcS1_S1_S1_PfP6float2ffffjiiiiiiiiiiiiiiiiiiii, address: 2013664, vaddr: 65536
Name: _ZL103__device_stub__Z22flash_attn_vec_ext_f32ILi64ELi4ELi4EEvPKcS1_S1_S1_PfP6float2ffffjiiiiiiiiiiiiiiiiiiiiPKcS0_S0_S0_PfP6float2ffffjiiiiiiiiiiiiiiiiiiii, address: 2073888
	->Name: _ZL103__device_stub__Z22flash_attn_vec_ext_f32ILi64ELi4ELi4EEvPKcS1_S1_S1_PfP6float2ffffjiiiiiiiiiiiiiiiiiiiiPKcS0_S0_S0_PfP6float2ffffjiiiiiiiiiiiiiiiiiiii, address: 2008352, vaddr: 65536
Name: _Z22flash_attn_vec_ext_f32ILi64ELi4ELi4EEvPKcS1_S1_S1_PfP6float2ffffjiiiiiiiiiiiiiiiiiiii, address: 2079216
	->Name: _Z22flash_attn_vec_ext_f32ILi64ELi4ELi4EEvPKcS1_S1_S1_PfP6float2ffffjiiiiiiiiiiiiiiiiiiii, address: 2013680, vaddr: 65536
Name: _ZL104__device_stub__Z22flash_attn_vec_ext_f32ILi128ELi4ELi4EEvPKcS1_S1_S1_PfP6float2ffffjiiiiiiiiiiiiiiiiiiiiPKcS0_S0_S0_PfP6float2ffffjiiiiiiiiiiiiiiiiiiii, address: 2074672
	->Name: _ZL104__device_stub__Z22flash_attn_vec_ext_f32ILi128ELi4ELi4EEvPKcS1_S1_S1_PfP6float2ffffjiiiiiiiiiiiiiiiiiiiiPKcS0_S0_S0_PfP6float2ffffjiiiiiiiiiiiiiiiiiiii, address: 2009136, vaddr: 65536
Name: _Z22flash_attn_vec_ext_f32ILi128ELi4ELi4EEvPKcS1_S1_S1_PfP6float2ffffjiiiiiiiiiiiiiiiiiiii, address: 2079232
	->Name: _Z22flash_attn_vec_ext_f32ILi128ELi4ELi4EEvPKcS1_S1_S1_PfP6float2ffffjiiiiiiiiiiiiiiiiiiii, address: 2013696, vaddr: 65536
Name: _ZL103__device_stub__Z22flash_attn_vec_ext_f32ILi64ELi8ELi4EEvPKcS1_S1_S1_PfP6float2ffffjiiiiiiiiiiiiiiiiiiiiPKcS0_S0_S0_PfP6float2ffffjiiiiiiiiiiiiiiiiiiii, address: 2075456
	->Name: _ZL103__device_stub__Z22flash_attn_vec_ext_f32ILi64ELi8ELi4EEvPKcS1_S1_S1_PfP6float2ffffjiiiiiiiiiiiiiiiiiiiiPKcS0_S0_S0_PfP6float2ffffjiiiiiiiiiiiiiiiiiiii, address: 2009920, vaddr: 65536
Name: _Z22flash_attn_vec_ext_f32ILi64ELi8ELi4EEvPKcS1_S1_S1_PfP6float2ffffjiiiiiiiiiiiiiiiiiiii, address: 2079248
	->Name: _Z22flash_attn_vec_ext_f32ILi64ELi8ELi4EEvPKcS1_S1_S1_PfP6float2ffffjiiiiiiiiiiiiiiiiiiii, address: 2013712, vaddr: 65536
Name: _ZL104__device_stub__Z22flash_attn_vec_ext_f32ILi128ELi8ELi4EEvPKcS1_S1_S1_PfP6float2ffffjiiiiiiiiiiiiiiiiiiiiPKcS0_S0_S0_PfP6float2ffffjiiiiiiiiiiiiiiiiiiii, address: 2076240
	->Name: _ZL104__device_stub__Z22flash_attn_vec_ext_f32ILi128ELi8ELi4EEvPKcS1_S1_S1_PfP6float2ffffjiiiiiiiiiiiiiiiiiiiiPKcS0_S0_S0_PfP6float2ffffjiiiiiiiiiiiiiiiiiiii, address: 2010704, vaddr: 65536
Name: _Z22flash_attn_vec_ext_f32ILi128ELi8ELi4EEvPKcS1_S1_S1_PfP6float2ffffjiiiiiiiiiiiiiiiiiiii, address: 2079264
	->Name: _Z22flash_attn_vec_ext_f32ILi128ELi8ELi4EEvPKcS1_S1_S1_PfP6float2ffffjiiiiiiiiiiiiiiiiiiii, address: 2013728, vaddr: 65536
Name: _ZL103__device_stub__Z22flash_attn_vec_ext_f32ILi64ELi8ELi1EEvPKcS1_S1_S1_PfP6float2ffffjiiiiiiiiiiiiiiiiiiiiPKcS0_S0_S0_PfP6float2ffffjiiiiiiiiiiiiiiiiiiii, address: 2077024
	->Name: _ZL103__device_stub__Z22flash_attn_vec_ext_f32ILi64ELi8ELi1EEvPKcS1_S1_S1_PfP6float2ffffjiiiiiiiiiiiiiiiiiiiiPKcS0_S0_S0_PfP6float2ffffjiiiiiiiiiiiiiiiiiiii, address: 2011488, vaddr: 65536
Name: _Z22flash_attn_vec_ext_f32ILi64ELi8ELi1EEvPKcS1_S1_S1_PfP6float2ffffjiiiiiiiiiiiiiiiiiiii, address: 2079280
	->Name: _Z22flash_attn_vec_ext_f32ILi64ELi8ELi1EEvPKcS1_S1_S1_PfP6float2ffffjiiiiiiiiiiiiiiiiiiii, address: 2013744, vaddr: 65536
Name: _ZL104__device_stub__Z22flash_attn_vec_ext_f32ILi128ELi8ELi1EEvPKcS1_S1_S1_PfP6float2ffffjiiiiiiiiiiiiiiiiiiiiPKcS0_S0_S0_PfP6float2ffffjiiiiiiiiiiiiiiiiiiii, address: 2077808
	->Name: _ZL104__device_stub__Z22flash_attn_vec_ext_f32ILi128ELi8ELi1EEvPKcS1_S1_S1_PfP6float2ffffjiiiiiiiiiiiiiiiiiiiiPKcS0_S0_S0_PfP6float2ffffjiiiiiiiiiiiiiiiiiiii, address: 2012272, vaddr: 65536
Name: _Z22flash_attn_vec_ext_f32ILi128ELi8ELi1EEvPKcS1_S1_S1_PfP6float2ffffjiiiiiiiiiiiiiiiiiiii, address: 2079136
	->Name: _Z22flash_attn_vec_ext_f32ILi128ELi8ELi1EEvPKcS1_S1_S1_PfP6float2ffffjiiiiiiiiiiiiiiiiiiii, address: 2013600, vaddr: 65536
Name: _Z26flash_attn_combine_resultsILi64ELi1EEvPKfPK6float2Pf, address: 2078592
	->Name: _Z26flash_attn_combine_resultsILi64ELi1EEvPKfPK6float2Pf, address: 2013056, vaddr: 65536
Name: _Z26flash_attn_combine_resultsILi128ELi1EEvPKfPK6float2Pf, address: 2078816
	->Name: _Z26flash_attn_combine_resultsILi128ELi1EEvPKfPK6float2Pf, address: 2013280, vaddr: 65536
Name: _ZL26__cudaUnregisterBinaryUtilv, address: 2079040
	->Name: _ZL26__cudaUnregisterBinaryUtilv, address: 2013504, vaddr: 65536
Name: _ZN20ggml_cuda_pool_allocIfE5allocEm.part.0, address: 2079056
	->Name: _ZN20ggml_cuda_pool_allocIfE5allocEm.part.0, address: 2013520, vaddr: 65536
Name: _ZN20ggml_cuda_pool_allocI6float2E5allocEm.part.0, address: 2079056
	->Name: _ZN20ggml_cuda_pool_allocI6float2E5allocEm.part.0, address: 2013520, vaddr: 65536
Name: _ZL24__sti____cudaRegisterAllv, address: 211376
	->Name: _ZL24__sti____cudaRegisterAllv, address: 145840, vaddr: 65536
Name: _ZL26__cudaUnregisterBinaryUtilv, address: 2096944
	->Name: _ZL26__cudaUnregisterBinaryUtilv, address: 2031408, vaddr: 65536
Name: _Z16k_get_rows_floatI6__halffEvPKT_PKiPT0_llmmmmmmmmm, address: 2096960
	->Name: _Z16k_get_rows_floatI6__halffEvPKT_PKiPT0_llmmmmmmmmm, address: 2031424, vaddr: 65536
Name: _Z16k_get_rows_floatIffEvPKT_PKiPT0_llmmmmmmmmm, address: 2097536
	->Name: _Z16k_get_rows_floatIffEvPKT_PKiPT0_llmmmmmmmmm, address: 2032000, vaddr: 65536
Name: _Z10k_get_rowsILi32ELi2EXadL_ZL15dequantize_q4_0PKvliR6float2EEfEvS1_PKiPT2_llmmmmmmmmm, address: 2098112
	->Name: _Z10k_get_rowsILi32ELi2EXadL_ZL15dequantize_q4_0PKvliR6float2EEfEvS1_PKiPT2_llmmmmmmmmm, address: 2032576, vaddr: 65536
Name: _Z10k_get_rowsILi32ELi2EXadL_ZL15dequantize_q4_1PKvliR6float2EEfEvS1_PKiPT2_llmmmmmmmmm, address: 2098688
	->Name: _Z10k_get_rowsILi32ELi2EXadL_ZL15dequantize_q4_1PKvliR6float2EEfEvS1_PKiPT2_llmmmmmmmmm, address: 2033152, vaddr: 65536
Name: _Z10k_get_rowsILi32ELi2EXadL_ZL15dequantize_q5_0PKvliR6float2EEfEvS1_PKiPT2_llmmmmmmmmm, address: 2099264
	->Name: _Z10k_get_rowsILi32ELi2EXadL_ZL15dequantize_q5_0PKvliR6float2EEfEvS1_PKiPT2_llmmmmmmmmm, address: 2033728, vaddr: 65536
Name: _Z10k_get_rowsILi32ELi2EXadL_ZL15dequantize_q5_1PKvliR6float2EEfEvS1_PKiPT2_llmmmmmmmmm, address: 2099840
	->Name: _Z10k_get_rowsILi32ELi2EXadL_ZL15dequantize_q5_1PKvliR6float2EEfEvS1_PKiPT2_llmmmmmmmmm, address: 2034304, vaddr: 65536
Name: _Z10k_get_rowsILi32ELi1EXadL_ZL15dequantize_q8_0PKvliR6float2EEfEvS1_PKiPT2_llmmmmmmmmm, address: 2100416
	->Name: _Z10k_get_rowsILi32ELi1EXadL_ZL15dequantize_q8_0PKvliR6float2EEfEvS1_PKiPT2_llmmmmmmmmm, address: 2034880, vaddr: 65536
Name: _ZL24__sti____cudaRegisterAllv, address: 212480
	->Name: _ZL24__sti____cudaRegisterAllv, address: 146944, vaddr: 65536
Name: _ZL26__cudaUnregisterBinaryUtilv, address: 2108480
	->Name: _ZL26__cudaUnregisterBinaryUtilv, address: 2042944, vaddr: 65536
Name: _Z11im2col_cudaIfEvPKfPT_lllllllllliiiiiiP11CUstream_st, address: 2108496
	->Name: _Z11im2col_cudaIfEvPKfPT_lllllllllliiiiiiP11CUstream_st, address: 2042960, vaddr: 65536
Name: _Z13im2col_kernelIfEvPKfPT_llllllllllliiiiii, address: 2110288
	->Name: _Z13im2col_kernelIfEvPKfPT_llllllllllliiiiii, address: 2044752, vaddr: 65536
Name: _Z11im2col_cudaI6__halfEvPKfPT_lllllllllliiiiiiP11CUstream_st, address: 2109392
	->Name: _Z11im2col_cudaI6__halfEvPKfPT_lllllllllliiiiiiP11CUstream_st, address: 2043856, vaddr: 65536
Name: _Z13im2col_kernelI6__halfEvPKfPT_llllllllllliiiiii, address: 2111008
	->Name: _Z13im2col_kernelI6__halfEvPKfPT_llllllllllliiiiii, address: 2045472, vaddr: 65536
Name: _ZL24__sti____cudaRegisterAllv, address: 213264
	->Name: _ZL24__sti____cudaRegisterAllv, address: 147728, vaddr: 65536
Name: _ZL26__cudaUnregisterBinaryUtilv, address: 2112384
	->Name: _ZL26__cudaUnregisterBinaryUtilv, address: 2046848, vaddr: 65536
Name: _Z12mul_mat_q4_0ILb1EEvPKvS1_Pfiiiii, address: 2112400
	->Name: _Z12mul_mat_q4_0ILb1EEvPKvS1_Pfiiiii, address: 2046864, vaddr: 65536
Name: _Z12mul_mat_q4_1ILb0EEvPKvS1_Pfiiiii, address: 2112752
	->Name: _Z12mul_mat_q4_1ILb0EEvPKvS1_Pfiiiii, address: 2047216, vaddr: 65536
Name: _Z12mul_mat_q4_1ILb1EEvPKvS1_Pfiiiii, address: 2113104
	->Name: _Z12mul_mat_q4_1ILb1EEvPKvS1_Pfiiiii, address: 2047568, vaddr: 65536
Name: _Z12mul_mat_q5_0ILb0EEvPKvS1_Pfiiiii, address: 2113456
	->Name: _Z12mul_mat_q5_0ILb0EEvPKvS1_Pfiiiii, address: 2047920, vaddr: 65536
Name: _Z12mul_mat_q5_0ILb1EEvPKvS1_Pfiiiii, address: 2113808
	->Name: _Z12mul_mat_q5_0ILb1EEvPKvS1_Pfiiiii, address: 2048272, vaddr: 65536
Name: _Z12mul_mat_q5_1ILb0EEvPKvS1_Pfiiiii, address: 2114160
	->Name: _Z12mul_mat_q5_1ILb0EEvPKvS1_Pfiiiii, address: 2048624, vaddr: 65536
Name: _Z12mul_mat_q5_1ILb1EEvPKvS1_Pfiiiii, address: 2114512
	->Name: _Z12mul_mat_q5_1ILb1EEvPKvS1_Pfiiiii, address: 2048976, vaddr: 65536
Name: _Z12mul_mat_q8_0ILb0EEvPKvS1_Pfiiiii, address: 2114864
	->Name: _Z12mul_mat_q8_0ILb0EEvPKvS1_Pfiiiii, address: 2049328, vaddr: 65536
Name: _Z12mul_mat_q8_0ILb1EEvPKvS1_Pfiiiii, address: 2115216
	->Name: _Z12mul_mat_q8_0ILb1EEvPKvS1_Pfiiiii, address: 2049680, vaddr: 65536
Name: _Z12mul_mat_q2_KILb0EEvPKvS1_Pfiiiii, address: 2115568
	->Name: _Z12mul_mat_q2_KILb0EEvPKvS1_Pfiiiii, address: 2050032, vaddr: 65536
Name: _Z12mul_mat_q2_KILb1EEvPKvS1_Pfiiiii, address: 2115920
	->Name: _Z12mul_mat_q2_KILb1EEvPKvS1_Pfiiiii, address: 2050384, vaddr: 65536
Name: _Z12mul_mat_q3_KILb0EEvPKvS1_Pfiiiii, address: 2116272
	->Name: _Z12mul_mat_q3_KILb0EEvPKvS1_Pfiiiii, address: 2050736, vaddr: 65536
Name: _Z12mul_mat_q4_0ILb0EEvPKvS1_Pfiiiii, address: 2116624
	->Name: _Z12mul_mat_q4_0ILb0EEvPKvS1_Pfiiiii, address: 2051088, vaddr: 65536
Name: _Z12mul_mat_q6_KILb1EEvPKvS1_Pfiiiii, address: 2116976
	->Name: _Z12mul_mat_q6_KILb1EEvPKvS1_Pfiiiii, address: 2051440, vaddr: 65536
Name: _Z12mul_mat_q5_KILb1EEvPKvS1_Pfiiiii, address: 2117328
	->Name: _Z12mul_mat_q5_KILb1EEvPKvS1_Pfiiiii, address: 2051792, vaddr: 65536
Name: _Z12mul_mat_q6_KILb0EEvPKvS1_Pfiiiii, address: 2117680
	->Name: _Z12mul_mat_q6_KILb0EEvPKvS1_Pfiiiii, address: 2052144, vaddr: 65536
Name: _Z12mul_mat_q3_KILb1EEvPKvS1_Pfiiiii, address: 2118032
	->Name: _Z12mul_mat_q3_KILb1EEvPKvS1_Pfiiiii, address: 2052496, vaddr: 65536
Name: _Z12mul_mat_q4_KILb0EEvPKvS1_Pfiiiii, address: 2118384
	->Name: _Z12mul_mat_q4_KILb0EEvPKvS1_Pfiiiii, address: 2052848, vaddr: 65536
Name: _Z12mul_mat_q4_KILb1EEvPKvS1_Pfiiiii, address: 2118736
	->Name: _Z12mul_mat_q4_KILb1EEvPKvS1_Pfiiiii, address: 2053200, vaddr: 65536
Name: _Z12mul_mat_q5_KILb0EEvPKvS1_Pfiiiii, address: 2119088
	->Name: _Z12mul_mat_q5_KILb0EEvPKvS1_Pfiiiii, address: 2053552, vaddr: 65536
Name: _ZL24__sti____cudaRegisterAllv, address: 213824
	->Name: _ZL24__sti____cudaRegisterAllv, address: 148288, vaddr: 65536
Name: _ZL165__device_stub__Z13mul_mat_vec_qILi1ELi256ELi32E10block_q5_KLi2EXadL_ZN37_INTERNAL_27df5045_7_mmvq_cu_c427077e17vec_dot_q5_K_q8_1EPKvPK10block_q8_1RKiEEEvS3_S3_PfiiiiPKvS0_Pfiiii, address: 2130128
	->Name: _ZL165__device_stub__Z13mul_mat_vec_qILi1ELi256ELi32E10block_q5_KLi2EXadL_ZN37_INTERNAL_27df5045_7_mmvq_cu_c427077e17vec_dot_q5_K_q8_1EPKvPK10block_q8_1RKiEEEvS3_S3_PfiiiiPKvS0_Pfiiii, address: 2064592, vaddr: 65536
Name: _Z13mul_mat_vec_qILi1ELi256ELi32E10block_q5_KLi2EXadL_ZL17vec_dot_q5_K_q8_1PKvPK10block_q8_1RKiEEEvS2_S2_Pfiiii, address: 2206432
	->Name: _Z13mul_mat_vec_qILi1ELi256ELi32E10block_q5_KLi2EXadL_ZL17vec_dot_q5_K_q8_1PKvPK10block_q8_1RKiEEEvS2_S2_Pfiiii, address: 2140896, vaddr: 65536
Name: _ZL165__device_stub__Z13mul_mat_vec_qILi2ELi256ELi32E10block_q5_KLi2EXadL_ZN37_INTERNAL_27df5045_7_mmvq_cu_c427077e17vec_dot_q5_K_q8_1EPKvPK10block_q8_1RKiEEEvS3_S3_PfiiiiPKvS0_Pfiiii, address: 2130448
	->Name: _ZL165__device_stub__Z13mul_mat_vec_qILi2ELi256ELi32E10block_q5_KLi2EXadL_ZN37_INTERNAL_27df5045_7_mmvq_cu_c427077e17vec_dot_q5_K_q8_1EPKvPK10block_q8_1RKiEEEvS3_S3_PfiiiiPKvS0_Pfiiii, address: 2064912, vaddr: 65536
Name: _Z13mul_mat_vec_qILi2ELi256ELi32E10block_q5_KLi2EXadL_ZL17vec_dot_q5_K_q8_1PKvPK10block_q8_1RKiEEEvS2_S2_Pfiiii, address: 2206752
	->Name: _Z13mul_mat_vec_qILi2ELi256ELi32E10block_q5_KLi2EXadL_ZL17vec_dot_q5_K_q8_1PKvPK10block_q8_1RKiEEEvS2_S2_Pfiiii, address: 2141216, vaddr: 65536
Name: _ZL165__device_stub__Z13mul_mat_vec_qILi3ELi256ELi32E10block_q5_KLi2EXadL_ZN37_INTERNAL_27df5045_7_mmvq_cu_c427077e17vec_dot_q5_K_q8_1EPKvPK10block_q8_1RKiEEEvS3_S3_PfiiiiPKvS0_Pfiiii, address: 2130768
	->Name: _ZL165__device_stub__Z13mul_mat_vec_qILi3ELi256ELi32E10block_q5_KLi2EXadL_ZN37_INTERNAL_27df5045_7_mmvq_cu_c427077e17vec_dot_q5_K_q8_1EPKvPK10block_q8_1RKiEEEvS3_S3_PfiiiiPKvS0_Pfiiii, address: 2065232, vaddr: 65536
Name: _Z13mul_mat_vec_qILi3ELi256ELi32E10block_q5_KLi2EXadL_ZL17vec_dot_q5_K_q8_1PKvPK10block_q8_1RKiEEEvS2_S2_Pfiiii, address: 2207072
	->Name: _Z13mul_mat_vec_qILi3ELi256ELi32E10block_q5_KLi2EXadL_ZL17vec_dot_q5_K_q8_1PKvPK10block_q8_1RKiEEEvS2_S2_Pfiiii, address: 2141536, vaddr: 65536
Name: _ZL165__device_stub__Z13mul_mat_vec_qILi4ELi256ELi32E10block_q5_KLi2EXadL_ZN37_INTERNAL_27df5045_7_mmvq_cu_c427077e17vec_dot_q5_K_q8_1EPKvPK10block_q8_1RKiEEEvS3_S3_PfiiiiPKvS0_Pfiiii, address: 2131088
	->Name: _ZL165__device_stub__Z13mul_mat_vec_qILi4ELi256ELi32E10block_q5_KLi2EXadL_ZN37_INTERNAL_27df5045_7_mmvq_cu_c427077e17vec_dot_q5_K_q8_1EPKvPK10block_q8_1RKiEEEvS3_S3_PfiiiiPKvS0_Pfiiii, address: 2065552, vaddr: 65536
Name: _Z13mul_mat_vec_qILi4ELi256ELi32E10block_q5_KLi2EXadL_ZL17vec_dot_q5_K_q8_1PKvPK10block_q8_1RKiEEEvS2_S2_Pfiiii, address: 2207392
	->Name: _Z13mul_mat_vec_qILi4ELi256ELi32E10block_q5_KLi2EXadL_ZL17vec_dot_q5_K_q8_1PKvPK10block_q8_1RKiEEEvS2_S2_Pfiiii, address: 2141856, vaddr: 65536
Name: _ZL165__device_stub__Z13mul_mat_vec_qILi5ELi256ELi32E10block_q5_KLi2EXadL_ZN37_INTERNAL_27df5045_7_mmvq_cu_c427077e17vec_dot_q5_K_q8_1EPKvPK10block_q8_1RKiEEEvS3_S3_PfiiiiPKvS0_Pfiiii, address: 2131408
	->Name: _ZL165__device_stub__Z13mul_mat_vec_qILi5ELi256ELi32E10block_q5_KLi2EXadL_ZN37_INTERNAL_27df5045_7_mmvq_cu_c427077e17vec_dot_q5_K_q8_1EPKvPK10block_q8_1RKiEEEvS3_S3_PfiiiiPKvS0_Pfiiii, address: 2065872, vaddr: 65536
Name: _Z13mul_mat_vec_qILi5ELi256ELi32E10block_q5_KLi2EXadL_ZL17vec_dot_q5_K_q8_1PKvPK10block_q8_1RKiEEEvS2_S2_Pfiiii, address: 2207712
	->Name: _Z13mul_mat_vec_qILi5ELi256ELi32E10block_q5_KLi2EXadL_ZL17vec_dot_q5_K_q8_1PKvPK10block_q8_1RKiEEEvS2_S2_Pfiiii, address: 2142176, vaddr: 65536
Name: _ZL165__device_stub__Z13mul_mat_vec_qILi6ELi256ELi32E10block_q5_KLi2EXadL_ZN37_INTERNAL_27df5045_7_mmvq_cu_c427077e17vec_dot_q5_K_q8_1EPKvPK10block_q8_1RKiEEEvS3_S3_PfiiiiPKvS0_Pfiiii, address: 2131728
	->Name: _ZL165__device_stub__Z13mul_mat_vec_qILi6ELi256ELi32E10block_q5_KLi2EXadL_ZN37_INTERNAL_27df5045_7_mmvq_cu_c427077e17vec_dot_q5_K_q8_1EPKvPK10block_q8_1RKiEEEvS3_S3_PfiiiiPKvS0_Pfiiii, address: 2066192, vaddr: 65536
Name: _Z13mul_mat_vec_qILi6ELi256ELi32E10block_q5_KLi2EXadL_ZL17vec_dot_q5_K_q8_1PKvPK10block_q8_1RKiEEEvS2_S2_Pfiiii, address: 2208032
	->Name: _Z13mul_mat_vec_qILi6ELi256ELi32E10block_q5_KLi2EXadL_ZL17vec_dot_q5_K_q8_1PKvPK10block_q8_1RKiEEEvS2_S2_Pfiiii, address: 2142496, vaddr: 65536
Name: _ZL165__device_stub__Z13mul_mat_vec_qILi7ELi256ELi32E10block_q5_KLi2EXadL_ZN37_INTERNAL_27df5045_7_mmvq_cu_c427077e17vec_dot_q5_K_q8_1EPKvPK10block_q8_1RKiEEEvS3_S3_PfiiiiPKvS0_Pfiiii, address: 2132048
	->Name: _ZL165__device_stub__Z13mul_mat_vec_qILi7ELi256ELi32E10block_q5_KLi2EXadL_ZN37_INTERNAL_27df5045_7_mmvq_cu_c427077e17vec_dot_q5_K_q8_1EPKvPK10block_q8_1RKiEEEvS3_S3_PfiiiiPKvS0_Pfiiii, address: 2066512, vaddr: 65536
Name: _Z13mul_mat_vec_qILi7ELi256ELi32E10block_q5_KLi2EXadL_ZL17vec_dot_q5_K_q8_1PKvPK10block_q8_1RKiEEEvS2_S2_Pfiiii, address: 2208352
	->Name: _Z13mul_mat_vec_qILi7ELi256ELi32E10block_q5_KLi2EXadL_ZL17vec_dot_q5_K_q8_1PKvPK10block_q8_1RKiEEEvS2_S2_Pfiiii, address: 2142816, vaddr: 65536
Name: _ZL165__device_stub__Z13mul_mat_vec_qILi8ELi256ELi32E10block_q5_KLi2EXadL_ZN37_INTERNAL_27df5045_7_mmvq_cu_c427077e17vec_dot_q5_K_q8_1EPKvPK10block_q8_1RKiEEEvS3_S3_PfiiiiPKvS0_Pfiiii, address: 2132368
	->Name: _ZL165__device_stub__Z13mul_mat_vec_qILi8ELi256ELi32E10block_q5_KLi2EXadL_ZN37_INTERNAL_27df5045_7_mmvq_cu_c427077e17vec_dot_q5_K_q8_1EPKvPK10block_q8_1RKiEEEvS3_S3_PfiiiiPKvS0_Pfiiii, address: 2066832, vaddr: 65536
Name: _Z13mul_mat_vec_qILi8ELi256ELi32E10block_q5_KLi2EXadL_ZL17vec_dot_q5_K_q8_1PKvPK10block_q8_1RKiEEEvS2_S2_Pfiiii, address: 2208672
	->Name: _Z13mul_mat_vec_qILi8ELi256ELi32E10block_q5_KLi2EXadL_ZL17vec_dot_q5_K_q8_1PKvPK10block_q8_1RKiEEEvS2_S2_Pfiiii, address: 2143136, vaddr: 65536
Name: _ZL165__device_stub__Z13mul_mat_vec_qILi1ELi256ELi32E10block_q6_KLi1EXadL_ZN37_INTERNAL_27df5045_7_mmvq_cu_c427077e17vec_dot_q6_K_q8_1EPKvPK10block_q8_1RKiEEEvS3_S3_PfiiiiPKvS0_Pfiiii, address: 2132688
	->Name: _ZL165__device_stub__Z13mul_mat_vec_qILi1ELi256ELi32E10block_q6_KLi1EXadL_ZN37_INTERNAL_27df5045_7_mmvq_cu_c427077e17vec_dot_q6_K_q8_1EPKvPK10block_q8_1RKiEEEvS3_S3_PfiiiiPKvS0_Pfiiii, address: 2067152, vaddr: 65536
Name: _Z13mul_mat_vec_qILi1ELi256ELi32E10block_q6_KLi1EXadL_ZL17vec_dot_q6_K_q8_1PKvPK10block_q8_1RKiEEEvS2_S2_Pfiiii, address: 2208992
	->Name: _Z13mul_mat_vec_qILi1ELi256ELi32E10block_q6_KLi1EXadL_ZL17vec_dot_q6_K_q8_1PKvPK10block_q8_1RKiEEEvS2_S2_Pfiiii, address: 2143456, vaddr: 65536
Name: _ZL165__device_stub__Z13mul_mat_vec_qILi2ELi256ELi32E10block_q6_KLi1EXadL_ZN37_INTERNAL_27df5045_7_mmvq_cu_c427077e17vec_dot_q6_K_q8_1EPKvPK10block_q8_1RKiEEEvS3_S3_PfiiiiPKvS0_Pfiiii, address: 2133008
	->Name: _ZL165__device_stub__Z13mul_mat_vec_qILi2ELi256ELi32E10block_q6_KLi1EXadL_ZN37_INTERNAL_27df5045_7_mmvq_cu_c427077e17vec_dot_q6_K_q8_1EPKvPK10block_q8_1RKiEEEvS3_S3_PfiiiiPKvS0_Pfiiii, address: 2067472, vaddr: 65536
Name: _Z13mul_mat_vec_qILi2ELi256ELi32E10block_q6_KLi1EXadL_ZL17vec_dot_q6_K_q8_1PKvPK10block_q8_1RKiEEEvS2_S2_Pfiiii, address: 2209312
	->Name: _Z13mul_mat_vec_qILi2ELi256ELi32E10block_q6_KLi1EXadL_ZL17vec_dot_q6_K_q8_1PKvPK10block_q8_1RKiEEEvS2_S2_Pfiiii, address: 2143776, vaddr: 65536
Name: _ZL165__device_stub__Z13mul_mat_vec_qILi3ELi256ELi32E10block_q6_KLi1EXadL_ZN37_INTERNAL_27df5045_7_mmvq_cu_c427077e17vec_dot_q6_K_q8_1EPKvPK10block_q8_1RKiEEEvS3_S3_PfiiiiPKvS0_Pfiiii, address: 2133328
	->Name: _ZL165__device_stub__Z13mul_mat_vec_qILi3ELi256ELi32E10block_q6_KLi1EXadL_ZN37_INTERNAL_27df5045_7_mmvq_cu_c427077e17vec_dot_q6_K_q8_1EPKvPK10block_q8_1RKiEEEvS3_S3_PfiiiiPKvS0_Pfiiii, address: 2067792, vaddr: 65536
Name: _Z13mul_mat_vec_qILi3ELi256ELi32E10block_q6_KLi1EXadL_ZL17vec_dot_q6_K_q8_1PKvPK10block_q8_1RKiEEEvS2_S2_Pfiiii, address: 2209632
	->Name: _Z13mul_mat_vec_qILi3ELi256ELi32E10block_q6_KLi1EXadL_ZL17vec_dot_q6_K_q8_1PKvPK10block_q8_1RKiEEEvS2_S2_Pfiiii, address: 2144096, vaddr: 65536
Name: _ZL165__device_stub__Z13mul_mat_vec_qILi4ELi256ELi32E10block_q6_KLi1EXadL_ZN37_INTERNAL_27df5045_7_mmvq_cu_c427077e17vec_dot_q6_K_q8_1EPKvPK10block_q8_1RKiEEEvS3_S3_PfiiiiPKvS0_Pfiiii, address: 2133648
	->Name: _ZL165__device_stub__Z13mul_mat_vec_qILi4ELi256ELi32E10block_q6_KLi1EXadL_ZN37_INTERNAL_27df5045_7_mmvq_cu_c427077e17vec_dot_q6_K_q8_1EPKvPK10block_q8_1RKiEEEvS3_S3_PfiiiiPKvS0_Pfiiii, address: 2068112, vaddr: 65536
Name: _Z13mul_mat_vec_qILi4ELi256ELi32E10block_q6_KLi1EXadL_ZL17vec_dot_q6_K_q8_1PKvPK10block_q8_1RKiEEEvS2_S2_Pfiiii, address: 2209952
	->Name: _Z13mul_mat_vec_qILi4ELi256ELi32E10block_q6_KLi1EXadL_ZL17vec_dot_q6_K_q8_1PKvPK10block_q8_1RKiEEEvS2_S2_Pfiiii, address: 2144416, vaddr: 65536
Name: _ZL165__device_stub__Z13mul_mat_vec_qILi5ELi256ELi32E10block_q6_KLi1EXadL_ZN37_INTERNAL_27df5045_7_mmvq_cu_c427077e17vec_dot_q6_K_q8_1EPKvPK10block_q8_1RKiEEEvS3_S3_PfiiiiPKvS0_Pfiiii, address: 2133968
	->Name: _ZL165__device_stub__Z13mul_mat_vec_qILi5ELi256ELi32E10block_q6_KLi1EXadL_ZN37_INTERNAL_27df5045_7_mmvq_cu_c427077e17vec_dot_q6_K_q8_1EPKvPK10block_q8_1RKiEEEvS3_S3_PfiiiiPKvS0_Pfiiii, address: 2068432, vaddr: 65536
Name: _Z13mul_mat_vec_qILi5ELi256ELi32E10block_q6_KLi1EXadL_ZL17vec_dot_q6_K_q8_1PKvPK10block_q8_1RKiEEEvS2_S2_Pfiiii, address: 2210272
	->Name: _Z13mul_mat_vec_qILi5ELi256ELi32E10block_q6_KLi1EXadL_ZL17vec_dot_q6_K_q8_1PKvPK10block_q8_1RKiEEEvS2_S2_Pfiiii, address: 2144736, vaddr: 65536
Name: _ZL165__device_stub__Z13mul_mat_vec_qILi6ELi256ELi32E10block_q6_KLi1EXadL_ZN37_INTERNAL_27df5045_7_mmvq_cu_c427077e17vec_dot_q6_K_q8_1EPKvPK10block_q8_1RKiEEEvS3_S3_PfiiiiPKvS0_Pfiiii, address: 2134288
	->Name: _ZL165__device_stub__Z13mul_mat_vec_qILi6ELi256ELi32E10block_q6_KLi1EXadL_ZN37_INTERNAL_27df5045_7_mmvq_cu_c427077e17vec_dot_q6_K_q8_1EPKvPK10block_q8_1RKiEEEvS3_S3_PfiiiiPKvS0_Pfiiii, address: 2068752, vaddr: 65536
Name: _Z13mul_mat_vec_qILi6ELi256ELi32E10block_q6_KLi1EXadL_ZL17vec_dot_q6_K_q8_1PKvPK10block_q8_1RKiEEEvS2_S2_Pfiiii, address: 2210592
	->Name: _Z13mul_mat_vec_qILi6ELi256ELi32E10block_q6_KLi1EXadL_ZL17vec_dot_q6_K_q8_1PKvPK10block_q8_1RKiEEEvS2_S2_Pfiiii, address: 2145056, vaddr: 65536
Name: _ZL165__device_stub__Z13mul_mat_vec_qILi7ELi256ELi32E10block_q6_KLi1EXadL_ZN37_INTERNAL_27df5045_7_mmvq_cu_c427077e17vec_dot_q6_K_q8_1EPKvPK10block_q8_1RKiEEEvS3_S3_PfiiiiPKvS0_Pfiiii, address: 2134608
	->Name: _ZL165__device_stub__Z13mul_mat_vec_qILi7ELi256ELi32E10block_q6_KLi1EXadL_ZN37_INTERNAL_27df5045_7_mmvq_cu_c427077e17vec_dot_q6_K_q8_1EPKvPK10block_q8_1RKiEEEvS3_S3_PfiiiiPKvS0_Pfiiii, address: 2069072, vaddr: 65536
Name: _Z13mul_mat_vec_qILi7ELi256ELi32E10block_q6_KLi1EXadL_ZL17vec_dot_q6_K_q8_1PKvPK10block_q8_1RKiEEEvS2_S2_Pfiiii, address: 2210912
	->Name: _Z13mul_mat_vec_qILi7ELi256ELi32E10block_q6_KLi1EXadL_ZL17vec_dot_q6_K_q8_1PKvPK10block_q8_1RKiEEEvS2_S2_Pfiiii, address: 2145376, vaddr: 65536
Name: _ZL165__device_stub__Z13mul_mat_vec_qILi8ELi256ELi32E10block_q6_KLi1EXadL_ZN37_INTERNAL_27df5045_7_mmvq_cu_c427077e17vec_dot_q6_K_q8_1EPKvPK10block_q8_1RKiEEEvS3_S3_PfiiiiPKvS0_Pfiiii, address: 2134928
	->Name: _ZL165__device_stub__Z13mul_mat_vec_qILi8ELi256ELi32E10block_q6_KLi1EXadL_ZN37_INTERNAL_27df5045_7_mmvq_cu_c427077e17vec_dot_q6_K_q8_1EPKvPK10block_q8_1RKiEEEvS3_S3_PfiiiiPKvS0_Pfiiii, address: 2069392, vaddr: 65536
Name: _Z13mul_mat_vec_qILi8ELi256ELi32E10block_q6_KLi1EXadL_ZL17vec_dot_q6_K_q8_1PKvPK10block_q8_1RKiEEEvS2_S2_Pfiiii, address: 2211232
	->Name: _Z13mul_mat_vec_qILi8ELi256ELi32E10block_q6_KLi1EXadL_ZL17vec_dot_q6_K_q8_1PKvPK10block_q8_1RKiEEEvS2_S2_Pfiiii, address: 2145696, vaddr: 65536
Name: _ZL170__device_stub__Z13mul_mat_vec_qILi1ELi256ELi8E13block_iq2_xxsLi1EXadL_ZN37_INTERNAL_27df5045_7_mmvq_cu_c427077e20vec_dot_iq2_xxs_q8_1EPKvPK10block_q8_1RKiEEEvS3_S3_PfiiiiPKvS0_Pfiiii, address: 2135248
	->Name: _ZL170__device_stub__Z13mul_mat_vec_qILi1ELi256ELi8E13block_iq2_xxsLi1EXadL_ZN37_INTERNAL_27df5045_7_mmvq_cu_c427077e20vec_dot_iq2_xxs_q8_1EPKvPK10block_q8_1RKiEEEvS3_S3_PfiiiiPKvS0_Pfiiii, address: 2069712, vaddr: 65536
Name: _Z13mul_mat_vec_qILi1ELi256ELi8E13block_iq2_xxsLi1EXadL_ZL20vec_dot_iq2_xxs_q8_1PKvPK10block_q8_1RKiEEEvS2_S2_Pfiiii, address: 2211552
	->Name: _Z13mul_mat_vec_qILi1ELi256ELi8E13block_iq2_xxsLi1EXadL_ZL20vec_dot_iq2_xxs_q8_1PKvPK10block_q8_1RKiEEEvS2_S2_Pfiiii, address: 2146016, vaddr: 65536
Name: _ZL170__device_stub__Z13mul_mat_vec_qILi2ELi256ELi8E13block_iq2_xxsLi1EXadL_ZN37_INTERNAL_27df5045_7_mmvq_cu_c427077e20vec_dot_iq2_xxs_q8_1EPKvPK10block_q8_1RKiEEEvS3_S3_PfiiiiPKvS0_Pfiiii, address: 2135568
	->Name: _ZL170__device_stub__Z13mul_mat_vec_qILi2ELi256ELi8E13block_iq2_xxsLi1EXadL_ZN37_INTERNAL_27df5045_7_mmvq_cu_c427077e20vec_dot_iq2_xxs_q8_1EPKvPK10block_q8_1RKiEEEvS3_S3_PfiiiiPKvS0_Pfiiii, address: 2070032, vaddr: 65536
Name: _Z13mul_mat_vec_qILi2ELi256ELi8E13block_iq2_xxsLi1EXadL_ZL20vec_dot_iq2_xxs_q8_1PKvPK10block_q8_1RKiEEEvS2_S2_Pfiiii, address: 2211872
	->Name: _Z13mul_mat_vec_qILi2ELi256ELi8E13block_iq2_xxsLi1EXadL_ZL20vec_dot_iq2_xxs_q8_1PKvPK10block_q8_1RKiEEEvS2_S2_Pfiiii, address: 2146336, vaddr: 65536
Name: _ZL170__device_stub__Z13mul_mat_vec_qILi3ELi256ELi8E13block_iq2_xxsLi1EXadL_ZN37_INTERNAL_27df5045_7_mmvq_cu_c427077e20vec_dot_iq2_xxs_q8_1EPKvPK10block_q8_1RKiEEEvS3_S3_PfiiiiPKvS0_Pfiiii, address: 2135888
	->Name: _ZL170__device_stub__Z13mul_mat_vec_qILi3ELi256ELi8E13block_iq2_xxsLi1EXadL_ZN37_INTERNAL_27df5045_7_mmvq_cu_c427077e20vec_dot_iq2_xxs_q8_1EPKvPK10block_q8_1RKiEEEvS3_S3_PfiiiiPKvS0_Pfiiii, address: 2070352, vaddr: 65536
Name: _Z13mul_mat_vec_qILi3ELi256ELi8E13block_iq2_xxsLi1EXadL_ZL20vec_dot_iq2_xxs_q8_1PKvPK10block_q8_1RKiEEEvS2_S2_Pfiiii, address: 2212192
	->Name: _Z13mul_mat_vec_qILi3ELi256ELi8E13block_iq2_xxsLi1EXadL_ZL20vec_dot_iq2_xxs_q8_1PKvPK10block_q8_1RKiEEEvS2_S2_Pfiiii, address: 2146656, vaddr: 65536
Name: _ZL170__device_stub__Z13mul_mat_vec_qILi4ELi256ELi8E13block_iq2_xxsLi1EXadL_ZN37_INTERNAL_27df5045_7_mmvq_cu_c427077e20vec_dot_iq2_xxs_q8_1EPKvPK10block_q8_1RKiEEEvS3_S3_PfiiiiPKvS0_Pfiiii, address: 2136208
	->Name: _ZL170__device_stub__Z13mul_mat_vec_qILi4ELi256ELi8E13block_iq2_xxsLi1EXadL_ZN37_INTERNAL_27df5045_7_mmvq_cu_c427077e20vec_dot_iq2_xxs_q8_1EPKvPK10block_q8_1RKiEEEvS3_S3_PfiiiiPKvS0_Pfiiii, address: 2070672, vaddr: 65536
Name: _Z13mul_mat_vec_qILi4ELi256ELi8E13block_iq2_xxsLi1EXadL_ZL20vec_dot_iq2_xxs_q8_1PKvPK10block_q8_1RKiEEEvS2_S2_Pfiiii, address: 2212512
	->Name: _Z13mul_mat_vec_qILi4ELi256ELi8E13block_iq2_xxsLi1EXadL_ZL20vec_dot_iq2_xxs_q8_1PKvPK10block_q8_1RKiEEEvS2_S2_Pfiiii, address: 2146976, vaddr: 65536
Name: _ZL170__device_stub__Z13mul_mat_vec_qILi5ELi256ELi8E13block_iq2_xxsLi1EXadL_ZN37_INTERNAL_27df5045_7_mmvq_cu_c427077e20vec_dot_iq2_xxs_q8_1EPKvPK10block_q8_1RKiEEEvS3_S3_PfiiiiPKvS0_Pfiiii, address: 2136528
	->Name: _ZL170__device_stub__Z13mul_mat_vec_qILi5ELi256ELi8E13block_iq2_xxsLi1EXadL_ZN37_INTERNAL_27df5045_7_mmvq_cu_c427077e20vec_dot_iq2_xxs_q8_1EPKvPK10block_q8_1RKiEEEvS3_S3_PfiiiiPKvS0_Pfiiii, address: 2070992, vaddr: 65536
Name: _Z13mul_mat_vec_qILi5ELi256ELi8E13block_iq2_xxsLi1EXadL_ZL20vec_dot_iq2_xxs_q8_1PKvPK10block_q8_1RKiEEEvS2_S2_Pfiiii, address: 2212832
	->Name: _Z13mul_mat_vec_qILi5ELi256ELi8E13block_iq2_xxsLi1EXadL_ZL20vec_dot_iq2_xxs_q8_1PKvPK10block_q8_1RKiEEEvS2_S2_Pfiiii, address: 2147296, vaddr: 65536
Name: _ZL170__device_stub__Z13mul_mat_vec_qILi6ELi256ELi8E13block_iq2_xxsLi1EXadL_ZN37_INTERNAL_27df5045_7_mmvq_cu_c427077e20vec_dot_iq2_xxs_q8_1EPKvPK10block_q8_1RKiEEEvS3_S3_PfiiiiPKvS0_Pfiiii, address: 2136848
	->Name: _ZL170__device_stub__Z13mul_mat_vec_qILi6ELi256ELi8E13block_iq2_xxsLi1EXadL_ZN37_INTERNAL_27df5045_7_mmvq_cu_c427077e20vec_dot_iq2_xxs_q8_1EPKvPK10block_q8_1RKiEEEvS3_S3_PfiiiiPKvS0_Pfiiii, address: 2071312, vaddr: 65536
Name: _Z13mul_mat_vec_qILi6ELi256ELi8E13block_iq2_xxsLi1EXadL_ZL20vec_dot_iq2_xxs_q8_1PKvPK10block_q8_1RKiEEEvS2_S2_Pfiiii, address: 2213152
	->Name: _Z13mul_mat_vec_qILi6ELi256ELi8E13block_iq2_xxsLi1EXadL_ZL20vec_dot_iq2_xxs_q8_1PKvPK10block_q8_1RKiEEEvS2_S2_Pfiiii, address: 2147616, vaddr: 65536
Name: _ZL170__device_stub__Z13mul_mat_vec_qILi7ELi256ELi8E13block_iq2_xxsLi1EXadL_ZN37_INTERNAL_27df5045_7_mmvq_cu_c427077e20vec_dot_iq2_xxs_q8_1EPKvPK10block_q8_1RKiEEEvS3_S3_PfiiiiPKvS0_Pfiiii, address: 2137168
	->Name: _ZL170__device_stub__Z13mul_mat_vec_qILi7ELi256ELi8E13block_iq2_xxsLi1EXadL_ZN37_INTERNAL_27df5045_7_mmvq_cu_c427077e20vec_dot_iq2_xxs_q8_1EPKvPK10block_q8_1RKiEEEvS3_S3_PfiiiiPKvS0_Pfiiii, address: 2071632, vaddr: 65536
Name: _Z13mul_mat_vec_qILi7ELi256ELi8E13block_iq2_xxsLi1EXadL_ZL20vec_dot_iq2_xxs_q8_1PKvPK10block_q8_1RKiEEEvS2_S2_Pfiiii, address: 2213472
	->Name: _Z13mul_mat_vec_qILi7ELi256ELi8E13block_iq2_xxsLi1EXadL_ZL20vec_dot_iq2_xxs_q8_1PKvPK10block_q8_1RKiEEEvS2_S2_Pfiiii, address: 2147936, vaddr: 65536
Name: _ZL170__device_stub__Z13mul_mat_vec_qILi8ELi256ELi8E13block_iq2_xxsLi1EXadL_ZN37_INTERNAL_27df5045_7_mmvq_cu_c427077e20vec_dot_iq2_xxs_q8_1EPKvPK10block_q8_1RKiEEEvS3_S3_PfiiiiPKvS0_Pfiiii, address: 2137488
	->Name: _ZL170__device_stub__Z13mul_mat_vec_qILi8ELi256ELi8E13block_iq2_xxsLi1EXadL_ZN37_INTERNAL_27df5045_7_mmvq_cu_c427077e20vec_dot_iq2_xxs_q8_1EPKvPK10block_q8_1RKiEEEvS3_S3_PfiiiiPKvS0_Pfiiii, address: 2071952, vaddr: 65536
Name: _Z13mul_mat_vec_qILi8ELi256ELi8E13block_iq2_xxsLi1EXadL_ZL20vec_dot_iq2_xxs_q8_1PKvPK10block_q8_1RKiEEEvS2_S2_Pfiiii, address: 2213792
	->Name: _Z13mul_mat_vec_qILi8ELi256ELi8E13block_iq2_xxsLi1EXadL_ZL20vec_dot_iq2_xxs_q8_1PKvPK10block_q8_1RKiEEEvS2_S2_Pfiiii, address: 2148256, vaddr: 65536
Name: _ZL168__device_stub__Z13mul_mat_vec_qILi1ELi256ELi8E12block_iq2_xsLi1EXadL_ZN37_INTERNAL_27df5045_7_mmvq_cu_c427077e19vec_dot_iq2_xs_q8_1EPKvPK10block_q8_1RKiEEEvS3_S3_PfiiiiPKvS0_Pfiiii, address: 2137808
	->Name: _ZL168__device_stub__Z13mul_mat_vec_qILi1ELi256ELi8E12block_iq2_xsLi1EXadL_ZN37_INTERNAL_27df5045_7_mmvq_cu_c427077e19vec_dot_iq2_xs_q8_1EPKvPK10block_q8_1RKiEEEvS3_S3_PfiiiiPKvS0_Pfiiii, address: 2072272, vaddr: 65536
Name: _Z13mul_mat_vec_qILi1ELi256ELi8E12block_iq2_xsLi1EXadL_ZL19vec_dot_iq2_xs_q8_1PKvPK10block_q8_1RKiEEEvS2_S2_Pfiiii, address: 2214112
	->Name: _Z13mul_mat_vec_qILi1ELi256ELi8E12block_iq2_xsLi1EXadL_ZL19vec_dot_iq2_xs_q8_1PKvPK10block_q8_1RKiEEEvS2_S2_Pfiiii, address: 2148576, vaddr: 65536
Name: _ZL168__device_stub__Z13mul_mat_vec_qILi2ELi256ELi8E12block_iq2_xsLi1EXadL_ZN37_INTERNAL_27df5045_7_mmvq_cu_c427077e19vec_dot_iq2_xs_q8_1EPKvPK10block_q8_1RKiEEEvS3_S3_PfiiiiPKvS0_Pfiiii, address: 2138128
	->Name: _ZL168__device_stub__Z13mul_mat_vec_qILi2ELi256ELi8E12block_iq2_xsLi1EXadL_ZN37_INTERNAL_27df5045_7_mmvq_cu_c427077e19vec_dot_iq2_xs_q8_1EPKvPK10block_q8_1RKiEEEvS3_S3_PfiiiiPKvS0_Pfiiii, address: 2072592, vaddr: 65536
Name: _Z13mul_mat_vec_qILi2ELi256ELi8E12block_iq2_xsLi1EXadL_ZL19vec_dot_iq2_xs_q8_1PKvPK10block_q8_1RKiEEEvS2_S2_Pfiiii, address: 2214432
	->Name: _Z13mul_mat_vec_qILi2ELi256ELi8E12block_iq2_xsLi1EXadL_ZL19vec_dot_iq2_xs_q8_1PKvPK10block_q8_1RKiEEEvS2_S2_Pfiiii, address: 2148896, vaddr: 65536
Name: _ZL168__device_stub__Z13mul_mat_vec_qILi3ELi256ELi8E12block_iq2_xsLi1EXadL_ZN37_INTERNAL_27df5045_7_mmvq_cu_c427077e19vec_dot_iq2_xs_q8_1EPKvPK10block_q8_1RKiEEEvS3_S3_PfiiiiPKvS0_Pfiiii, address: 2138448
	->Name: _ZL168__device_stub__Z13mul_mat_vec_qILi3ELi256ELi8E12block_iq2_xsLi1EXadL_ZN37_INTERNAL_27df5045_7_mmvq_cu_c427077e19vec_dot_iq2_xs_q8_1EPKvPK10block_q8_1RKiEEEvS3_S3_PfiiiiPKvS0_Pfiiii, address: 2072912, vaddr: 65536
Name: _Z13mul_mat_vec_qILi3ELi256ELi8E12block_iq2_xsLi1EXadL_ZL19vec_dot_iq2_xs_q8_1PKvPK10block_q8_1RKiEEEvS2_S2_Pfiiii, address: 2214752
	->Name: _Z13mul_mat_vec_qILi3ELi256ELi8E12block_iq2_xsLi1EXadL_ZL19vec_dot_iq2_xs_q8_1PKvPK10block_q8_1RKiEEEvS2_S2_Pfiiii, address: 2149216, vaddr: 65536
Name: _ZL168__device_stub__Z13mul_mat_vec_qILi4ELi256ELi8E12block_iq2_xsLi1EXadL_ZN37_INTERNAL_27df5045_7_mmvq_cu_c427077e19vec_dot_iq2_xs_q8_1EPKvPK10block_q8_1RKiEEEvS3_S3_PfiiiiPKvS0_Pfiiii, address: 2138768
	->Name: _ZL168__device_stub__Z13mul_mat_vec_qILi4ELi256ELi8E12block_iq2_xsLi1EXadL_ZN37_INTERNAL_27df5045_7_mmvq_cu_c427077e19vec_dot_iq2_xs_q8_1EPKvPK10block_q8_1RKiEEEvS3_S3_PfiiiiPKvS0_Pfiiii, address: 2073232, vaddr: 65536
Name: _Z13mul_mat_vec_qILi4ELi256ELi8E12block_iq2_xsLi1EXadL_ZL19vec_dot_iq2_xs_q8_1PKvPK10block_q8_1RKiEEEvS2_S2_Pfiiii, address: 2215072
	->Name: _Z13mul_mat_vec_qILi4ELi256ELi8E12block_iq2_xsLi1EXadL_ZL19vec_dot_iq2_xs_q8_1PKvPK10block_q8_1RKiEEEvS2_S2_Pfiiii, address: 2149536, vaddr: 65536
Name: _ZL168__device_stub__Z13mul_mat_vec_qILi5ELi256ELi8E12block_iq2_xsLi1EXadL_ZN37_INTERNAL_27df5045_7_mmvq_cu_c427077e19vec_dot_iq2_xs_q8_1EPKvPK10block_q8_1RKiEEEvS3_S3_PfiiiiPKvS0_Pfiiii, address: 2139088
	->Name: _ZL168__device_stub__Z13mul_mat_vec_qILi5ELi256ELi8E12block_iq2_xsLi1EXadL_ZN37_INTERNAL_27df5045_7_mmvq_cu_c427077e19vec_dot_iq2_xs_q8_1EPKvPK10block_q8_1RKiEEEvS3_S3_PfiiiiPKvS0_Pfiiii, address: 2073552, vaddr: 65536
Name: _Z13mul_mat_vec_qILi5ELi256ELi8E12block_iq2_xsLi1EXadL_ZL19vec_dot_iq2_xs_q8_1PKvPK10block_q8_1RKiEEEvS2_S2_Pfiiii, address: 2215392
	->Name: _Z13mul_mat_vec_qILi5ELi256ELi8E12block_iq2_xsLi1EXadL_ZL19vec_dot_iq2_xs_q8_1PKvPK10block_q8_1RKiEEEvS2_S2_Pfiiii, address: 2149856, vaddr: 65536
Name: _ZL168__device_stub__Z13mul_mat_vec_qILi6ELi256ELi8E12block_iq2_xsLi1EXadL_ZN37_INTERNAL_27df5045_7_mmvq_cu_c427077e19vec_dot_iq2_xs_q8_1EPKvPK10block_q8_1RKiEEEvS3_S3_PfiiiiPKvS0_Pfiiii, address: 2139408
	->Name: _ZL168__device_stub__Z13mul_mat_vec_qILi6ELi256ELi8E12block_iq2_xsLi1EXadL_ZN37_INTERNAL_27df5045_7_mmvq_cu_c427077e19vec_dot_iq2_xs_q8_1EPKvPK10block_q8_1RKiEEEvS3_S3_PfiiiiPKvS0_Pfiiii, address: 2073872, vaddr: 65536
Name: _Z13mul_mat_vec_qILi6ELi256ELi8E12block_iq2_xsLi1EXadL_ZL19vec_dot_iq2_xs_q8_1PKvPK10block_q8_1RKiEEEvS2_S2_Pfiiii, address: 2215712
	->Name: _Z13mul_mat_vec_qILi6ELi256ELi8E12block_iq2_xsLi1EXadL_ZL19vec_dot_iq2_xs_q8_1PKvPK10block_q8_1RKiEEEvS2_S2_Pfiiii, address: 2150176, vaddr: 65536
Name: _ZL168__device_stub__Z13mul_mat_vec_qILi7ELi256ELi8E12block_iq2_xsLi1EXadL_ZN37_INTERNAL_27df5045_7_mmvq_cu_c427077e19vec_dot_iq2_xs_q8_1EPKvPK10block_q8_1RKiEEEvS3_S3_PfiiiiPKvS0_Pfiiii, address: 2139728
	->Name: _ZL168__device_stub__Z13mul_mat_vec_qILi7ELi256ELi8E12block_iq2_xsLi1EXadL_ZN37_INTERNAL_27df5045_7_mmvq_cu_c427077e19vec_dot_iq2_xs_q8_1EPKvPK10block_q8_1RKiEEEvS3_S3_PfiiiiPKvS0_Pfiiii, address: 2074192, vaddr: 65536
Name: _Z13mul_mat_vec_qILi7ELi256ELi8E12block_iq2_xsLi1EXadL_ZL19vec_dot_iq2_xs_q8_1PKvPK10block_q8_1RKiEEEvS2_S2_Pfiiii, address: 2216032
	->Name: _Z13mul_mat_vec_qILi7ELi256ELi8E12block_iq2_xsLi1EXadL_ZL19vec_dot_iq2_xs_q8_1PKvPK10block_q8_1RKiEEEvS2_S2_Pfiiii, address: 2150496, vaddr: 65536
Name: _ZL168__device_stub__Z13mul_mat_vec_qILi8ELi256ELi8E12block_iq2_xsLi1EXadL_ZN37_INTERNAL_27df5045_7_mmvq_cu_c427077e19vec_dot_iq2_xs_q8_1EPKvPK10block_q8_1RKiEEEvS3_S3_PfiiiiPKvS0_Pfiiii, address: 2140048
	->Name: _ZL168__device_stub__Z13mul_mat_vec_qILi8ELi256ELi8E12block_iq2_xsLi1EXadL_ZN37_INTERNAL_27df5045_7_mmvq_cu_c427077e19vec_dot_iq2_xs_q8_1EPKvPK10block_q8_1RKiEEEvS3_S3_PfiiiiPKvS0_Pfiiii, address: 2074512, vaddr: 65536
Name: _Z13mul_mat_vec_qILi8ELi256ELi8E12block_iq2_xsLi1EXadL_ZL19vec_dot_iq2_xs_q8_1PKvPK10block_q8_1RKiEEEvS2_S2_Pfiiii, address: 2216352
	->Name: _Z13mul_mat_vec_qILi8ELi256ELi8E12block_iq2_xsLi1EXadL_ZL19vec_dot_iq2_xs_q8_1PKvPK10block_q8_1RKiEEEvS2_S2_Pfiiii, address: 2150816, vaddr: 65536
Name: _ZL166__device_stub__Z13mul_mat_vec_qILi1ELi256ELi8E11block_iq2_sLi1EXadL_ZN37_INTERNAL_27df5045_7_mmvq_cu_c427077e18vec_dot_iq2_s_q8_1EPKvPK10block_q8_1RKiEEEvS3_S3_PfiiiiPKvS0_Pfiiii, address: 2140368
	->Name: _ZL166__device_stub__Z13mul_mat_vec_qILi1ELi256ELi8E11block_iq2_sLi1EXadL_ZN37_INTERNAL_27df5045_7_mmvq_cu_c427077e18vec_dot_iq2_s_q8_1EPKvPK10block_q8_1RKiEEEvS3_S3_PfiiiiPKvS0_Pfiiii, address: 2074832, vaddr: 65536
Name: _Z13mul_mat_vec_qILi1ELi256ELi8E11block_iq2_sLi1EXadL_ZL18vec_dot_iq2_s_q8_1PKvPK10block_q8_1RKiEEEvS2_S2_Pfiiii, address: 2216672
	->Name: _Z13mul_mat_vec_qILi1ELi256ELi8E11block_iq2_sLi1EXadL_ZL18vec_dot_iq2_s_q8_1PKvPK10block_q8_1RKiEEEvS2_S2_Pfiiii, address: 2151136, vaddr: 65536
Name: _ZL166__device_stub__Z13mul_mat_vec_qILi2ELi256ELi8E11block_iq2_sLi1EXadL_ZN37_INTERNAL_27df5045_7_mmvq_cu_c427077e18vec_dot_iq2_s_q8_1EPKvPK10block_q8_1RKiEEEvS3_S3_PfiiiiPKvS0_Pfiiii, address: 2140688
	->Name: _ZL166__device_stub__Z13mul_mat_vec_qILi2ELi256ELi8E11block_iq2_sLi1EXadL_ZN37_INTERNAL_27df5045_7_mmvq_cu_c427077e18vec_dot_iq2_s_q8_1EPKvPK10block_q8_1RKiEEEvS3_S3_PfiiiiPKvS0_Pfiiii, address: 2075152, vaddr: 65536
Name: _Z13mul_mat_vec_qILi2ELi256ELi8E11block_iq2_sLi1EXadL_ZL18vec_dot_iq2_s_q8_1PKvPK10block_q8_1RKiEEEvS2_S2_Pfiiii, address: 2216992
	->Name: _Z13mul_mat_vec_qILi2ELi256ELi8E11block_iq2_sLi1EXadL_ZL18vec_dot_iq2_s_q8_1PKvPK10block_q8_1RKiEEEvS2_S2_Pfiiii, address: 2151456, vaddr: 65536
Name: _ZL166__device_stub__Z13mul_mat_vec_qILi3ELi256ELi8E11block_iq2_sLi1EXadL_ZN37_INTERNAL_27df5045_7_mmvq_cu_c427077e18vec_dot_iq2_s_q8_1EPKvPK10block_q8_1RKiEEEvS3_S3_PfiiiiPKvS0_Pfiiii, address: 2141008
	->Name: _ZL166__device_stub__Z13mul_mat_vec_qILi3ELi256ELi8E11block_iq2_sLi1EXadL_ZN37_INTERNAL_27df5045_7_mmvq_cu_c427077e18vec_dot_iq2_s_q8_1EPKvPK10block_q8_1RKiEEEvS3_S3_PfiiiiPKvS0_Pfiiii, address: 2075472, vaddr: 65536
Name: _Z13mul_mat_vec_qILi3ELi256ELi8E11block_iq2_sLi1EXadL_ZL18vec_dot_iq2_s_q8_1PKvPK10block_q8_1RKiEEEvS2_S2_Pfiiii, address: 2217312
	->Name: _Z13mul_mat_vec_qILi3ELi256ELi8E11block_iq2_sLi1EXadL_ZL18vec_dot_iq2_s_q8_1PKvPK10block_q8_1RKiEEEvS2_S2_Pfiiii, address: 2151776, vaddr: 65536
Name: _ZL166__device_stub__Z13mul_mat_vec_qILi4ELi256ELi8E11block_iq2_sLi1EXadL_ZN37_INTERNAL_27df5045_7_mmvq_cu_c427077e18vec_dot_iq2_s_q8_1EPKvPK10block_q8_1RKiEEEvS3_S3_PfiiiiPKvS0_Pfiiii, address: 2141328
	->Name: _ZL166__device_stub__Z13mul_mat_vec_qILi4ELi256ELi8E11block_iq2_sLi1EXadL_ZN37_INTERNAL_27df5045_7_mmvq_cu_c427077e18vec_dot_iq2_s_q8_1EPKvPK10block_q8_1RKiEEEvS3_S3_PfiiiiPKvS0_Pfiiii, address: 2075792, vaddr: 65536
Name: _Z13mul_mat_vec_qILi4ELi256ELi8E11block_iq2_sLi1EXadL_ZL18vec_dot_iq2_s_q8_1PKvPK10block_q8_1RKiEEEvS2_S2_Pfiiii, address: 2217632
	->Name: _Z13mul_mat_vec_qILi4ELi256ELi8E11block_iq2_sLi1EXadL_ZL18vec_dot_iq2_s_q8_1PKvPK10block_q8_1RKiEEEvS2_S2_Pfiiii, address: 2152096, vaddr: 65536
Name: _ZL166__device_stub__Z13mul_mat_vec_qILi5ELi256ELi8E11block_iq2_sLi1EXadL_ZN37_INTERNAL_27df5045_7_mmvq_cu_c427077e18vec_dot_iq2_s_q8_1EPKvPK10block_q8_1RKiEEEvS3_S3_PfiiiiPKvS0_Pfiiii, address: 2141648
	->Name: _ZL166__device_stub__Z13mul_mat_vec_qILi5ELi256ELi8E11block_iq2_sLi1EXadL_ZN37_INTERNAL_27df5045_7_mmvq_cu_c427077e18vec_dot_iq2_s_q8_1EPKvPK10block_q8_1RKiEEEvS3_S3_PfiiiiPKvS0_Pfiiii, address: 2076112, vaddr: 65536
Name: _Z13mul_mat_vec_qILi5ELi256ELi8E11block_iq2_sLi1EXadL_ZL18vec_dot_iq2_s_q8_1PKvPK10block_q8_1RKiEEEvS2_S2_Pfiiii, address: 2217952
	->Name: _Z13mul_mat_vec_qILi5ELi256ELi8E11block_iq2_sLi1EXadL_ZL18vec_dot_iq2_s_q8_1PKvPK10block_q8_1RKiEEEvS2_S2_Pfiiii, address: 2152416, vaddr: 65536
Name: _ZL166__device_stub__Z13mul_mat_vec_qILi6ELi256ELi8E11block_iq2_sLi1EXadL_ZN37_INTERNAL_27df5045_7_mmvq_cu_c427077e18vec_dot_iq2_s_q8_1EPKvPK10block_q8_1RKiEEEvS3_S3_PfiiiiPKvS0_Pfiiii, address: 2141968
	->Name: _ZL166__device_stub__Z13mul_mat_vec_qILi6ELi256ELi8E11block_iq2_sLi1EXadL_ZN37_INTERNAL_27df5045_7_mmvq_cu_c427077e18vec_dot_iq2_s_q8_1EPKvPK10block_q8_1RKiEEEvS3_S3_PfiiiiPKvS0_Pfiiii, address: 2076432, vaddr: 65536
Name: _Z13mul_mat_vec_qILi6ELi256ELi8E11block_iq2_sLi1EXadL_ZL18vec_dot_iq2_s_q8_1PKvPK10block_q8_1RKiEEEvS2_S2_Pfiiii, address: 2218272
	->Name: _Z13mul_mat_vec_qILi6ELi256ELi8E11block_iq2_sLi1EXadL_ZL18vec_dot_iq2_s_q8_1PKvPK10block_q8_1RKiEEEvS2_S2_Pfiiii, address: 2152736, vaddr: 65536
Name: _ZL166__device_stub__Z13mul_mat_vec_qILi7ELi256ELi8E11block_iq2_sLi1EXadL_ZN37_INTERNAL_27df5045_7_mmvq_cu_c427077e18vec_dot_iq2_s_q8_1EPKvPK10block_q8_1RKiEEEvS3_S3_PfiiiiPKvS0_Pfiiii, address: 2142288
	->Name: _ZL166__device_stub__Z13mul_mat_vec_qILi7ELi256ELi8E11block_iq2_sLi1EXadL_ZN37_INTERNAL_27df5045_7_mmvq_cu_c427077e18vec_dot_iq2_s_q8_1EPKvPK10block_q8_1RKiEEEvS3_S3_PfiiiiPKvS0_Pfiiii, address: 2076752, vaddr: 65536
Name: _Z13mul_mat_vec_qILi7ELi256ELi8E11block_iq2_sLi1EXadL_ZL18vec_dot_iq2_s_q8_1PKvPK10block_q8_1RKiEEEvS2_S2_Pfiiii, address: 2218592
	->Name: _Z13mul_mat_vec_qILi7ELi256ELi8E11block_iq2_sLi1EXadL_ZL18vec_dot_iq2_s_q8_1PKvPK10block_q8_1RKiEEEvS2_S2_Pfiiii, address: 2153056, vaddr: 65536
Name: _ZL166__device_stub__Z13mul_mat_vec_qILi8ELi256ELi8E11block_iq2_sLi1EXadL_ZN37_INTERNAL_27df5045_7_mmvq_cu_c427077e18vec_dot_iq2_s_q8_1EPKvPK10block_q8_1RKiEEEvS3_S3_PfiiiiPKvS0_Pfiiii, address: 2142608
	->Name: _ZL166__device_stub__Z13mul_mat_vec_qILi8ELi256ELi8E11block_iq2_sLi1EXadL_ZN37_INTERNAL_27df5045_7_mmvq_cu_c427077e18vec_dot_iq2_s_q8_1EPKvPK10block_q8_1RKiEEEvS3_S3_PfiiiiPKvS0_Pfiiii, address: 2077072, vaddr: 65536
Name: _Z13mul_mat_vec_qILi8ELi256ELi8E11block_iq2_sLi1EXadL_ZL18vec_dot_iq2_s_q8_1PKvPK10block_q8_1RKiEEEvS2_S2_Pfiiii, address: 2218912
	->Name: _Z13mul_mat_vec_qILi8ELi256ELi8E11block_iq2_sLi1EXadL_ZL18vec_dot_iq2_s_q8_1PKvPK10block_q8_1RKiEEEvS2_S2_Pfiiii, address: 2153376, vaddr: 65536
Name: _ZL170__device_stub__Z13mul_mat_vec_qILi1ELi256ELi8E13block_iq3_xxsLi1EXadL_ZN37_INTERNAL_27df5045_7_mmvq_cu_c427077e20vec_dot_iq3_xxs_q8_1EPKvPK10block_q8_1RKiEEEvS3_S3_PfiiiiPKvS0_Pfiiii, address: 2142928
	->Name: _ZL170__device_stub__Z13mul_mat_vec_qILi1ELi256ELi8E13block_iq3_xxsLi1EXadL_ZN37_INTERNAL_27df5045_7_mmvq_cu_c427077e20vec_dot_iq3_xxs_q8_1EPKvPK10block_q8_1RKiEEEvS3_S3_PfiiiiPKvS0_Pfiiii, address: 2077392, vaddr: 65536
Name: _Z13mul_mat_vec_qILi1ELi256ELi8E13block_iq3_xxsLi1EXadL_ZL20vec_dot_iq3_xxs_q8_1PKvPK10block_q8_1RKiEEEvS2_S2_Pfiiii, address: 2219232
	->Name: _Z13mul_mat_vec_qILi1ELi256ELi8E13block_iq3_xxsLi1EXadL_ZL20vec_dot_iq3_xxs_q8_1PKvPK10block_q8_1RKiEEEvS2_S2_Pfiiii, address: 2153696, vaddr: 65536
Name: _ZL170__device_stub__Z13mul_mat_vec_qILi2ELi256ELi8E13block_iq3_xxsLi1EXadL_ZN37_INTERNAL_27df5045_7_mmvq_cu_c427077e20vec_dot_iq3_xxs_q8_1EPKvPK10block_q8_1RKiEEEvS3_S3_PfiiiiPKvS0_Pfiiii, address: 2143248
	->Name: _ZL170__device_stub__Z13mul_mat_vec_qILi2ELi256ELi8E13block_iq3_xxsLi1EXadL_ZN37_INTERNAL_27df5045_7_mmvq_cu_c427077e20vec_dot_iq3_xxs_q8_1EPKvPK10block_q8_1RKiEEEvS3_S3_PfiiiiPKvS0_Pfiiii, address: 2077712, vaddr: 65536
Name: _Z13mul_mat_vec_qILi2ELi256ELi8E13block_iq3_xxsLi1EXadL_ZL20vec_dot_iq3_xxs_q8_1PKvPK10block_q8_1RKiEEEvS2_S2_Pfiiii, address: 2219552
	->Name: _Z13mul_mat_vec_qILi2ELi256ELi8E13block_iq3_xxsLi1EXadL_ZL20vec_dot_iq3_xxs_q8_1PKvPK10block_q8_1RKiEEEvS2_S2_Pfiiii, address: 2154016, vaddr: 65536
Name: _ZL170__device_stub__Z13mul_mat_vec_qILi3ELi256ELi8E13block_iq3_xxsLi1EXadL_ZN37_INTERNAL_27df5045_7_mmvq_cu_c427077e20vec_dot_iq3_xxs_q8_1EPKvPK10block_q8_1RKiEEEvS3_S3_PfiiiiPKvS0_Pfiiii, address: 2143568
	->Name: _ZL170__device_stub__Z13mul_mat_vec_qILi3ELi256ELi8E13block_iq3_xxsLi1EXadL_ZN37_INTERNAL_27df5045_7_mmvq_cu_c427077e20vec_dot_iq3_xxs_q8_1EPKvPK10block_q8_1RKiEEEvS3_S3_PfiiiiPKvS0_Pfiiii, address: 2078032, vaddr: 65536
Name: _Z13mul_mat_vec_qILi3ELi256ELi8E13block_iq3_xxsLi1EXadL_ZL20vec_dot_iq3_xxs_q8_1PKvPK10block_q8_1RKiEEEvS2_S2_Pfiiii, address: 2219872
	->Name: _Z13mul_mat_vec_qILi3ELi256ELi8E13block_iq3_xxsLi1EXadL_ZL20vec_dot_iq3_xxs_q8_1PKvPK10block_q8_1RKiEEEvS2_S2_Pfiiii, address: 2154336, vaddr: 65536
Name: _ZL170__device_stub__Z13mul_mat_vec_qILi4ELi256ELi8E13block_iq3_xxsLi1EXadL_ZN37_INTERNAL_27df5045_7_mmvq_cu_c427077e20vec_dot_iq3_xxs_q8_1EPKvPK10block_q8_1RKiEEEvS3_S3_PfiiiiPKvS0_Pfiiii, address: 2143888
	->Name: _ZL170__device_stub__Z13mul_mat_vec_qILi4ELi256ELi8E13block_iq3_xxsLi1EXadL_ZN37_INTERNAL_27df5045_7_mmvq_cu_c427077e20vec_dot_iq3_xxs_q8_1EPKvPK10block_q8_1RKiEEEvS3_S3_PfiiiiPKvS0_Pfiiii, address: 2078352, vaddr: 65536
Name: _Z13mul_mat_vec_qILi4ELi256ELi8E13block_iq3_xxsLi1EXadL_ZL20vec_dot_iq3_xxs_q8_1PKvPK10block_q8_1RKiEEEvS2_S2_Pfiiii, address: 2220192
	->Name: _Z13mul_mat_vec_qILi4ELi256ELi8E13block_iq3_xxsLi1EXadL_ZL20vec_dot_iq3_xxs_q8_1PKvPK10block_q8_1RKiEEEvS2_S2_Pfiiii, address: 2154656, vaddr: 65536
Name: _ZL170__device_stub__Z13mul_mat_vec_qILi5ELi256ELi8E13block_iq3_xxsLi1EXadL_ZN37_INTERNAL_27df5045_7_mmvq_cu_c427077e20vec_dot_iq3_xxs_q8_1EPKvPK10block_q8_1RKiEEEvS3_S3_PfiiiiPKvS0_Pfiiii, address: 2144208
	->Name: _ZL170__device_stub__Z13mul_mat_vec_qILi5ELi256ELi8E13block_iq3_xxsLi1EXadL_ZN37_INTERNAL_27df5045_7_mmvq_cu_c427077e20vec_dot_iq3_xxs_q8_1EPKvPK10block_q8_1RKiEEEvS3_S3_PfiiiiPKvS0_Pfiiii, address: 2078672, vaddr: 65536
Name: _Z13mul_mat_vec_qILi5ELi256ELi8E13block_iq3_xxsLi1EXadL_ZL20vec_dot_iq3_xxs_q8_1PKvPK10block_q8_1RKiEEEvS2_S2_Pfiiii, address: 2220512
	->Name: _Z13mul_mat_vec_qILi5ELi256ELi8E13block_iq3_xxsLi1EXadL_ZL20vec_dot_iq3_xxs_q8_1PKvPK10block_q8_1RKiEEEvS2_S2_Pfiiii, address: 2154976, vaddr: 65536
Name: _ZL170__device_stub__Z13mul_mat_vec_qILi6ELi256ELi8E13block_iq3_xxsLi1EXadL_ZN37_INTERNAL_27df5045_7_mmvq_cu_c427077e20vec_dot_iq3_xxs_q8_1EPKvPK10block_q8_1RKiEEEvS3_S3_PfiiiiPKvS0_Pfiiii, address: 2144528
	->Name: _ZL170__device_stub__Z13mul_mat_vec_qILi6ELi256ELi8E13block_iq3_xxsLi1EXadL_ZN37_INTERNAL_27df5045_7_mmvq_cu_c427077e20vec_dot_iq3_xxs_q8_1EPKvPK10block_q8_1RKiEEEvS3_S3_PfiiiiPKvS0_Pfiiii, address: 2078992, vaddr: 65536
Name: _Z13mul_mat_vec_qILi6ELi256ELi8E13block_iq3_xxsLi1EXadL_ZL20vec_dot_iq3_xxs_q8_1PKvPK10block_q8_1RKiEEEvS2_S2_Pfiiii, address: 2220832
	->Name: _Z13mul_mat_vec_qILi6ELi256ELi8E13block_iq3_xxsLi1EXadL_ZL20vec_dot_iq3_xxs_q8_1PKvPK10block_q8_1RKiEEEvS2_S2_Pfiiii, address: 2155296, vaddr: 65536
Name: _ZL170__device_stub__Z13mul_mat_vec_qILi7ELi256ELi8E13block_iq3_xxsLi1EXadL_ZN37_INTERNAL_27df5045_7_mmvq_cu_c427077e20vec_dot_iq3_xxs_q8_1EPKvPK10block_q8_1RKiEEEvS3_S3_PfiiiiPKvS0_Pfiiii, address: 2144848
	->Name: _ZL170__device_stub__Z13mul_mat_vec_qILi7ELi256ELi8E13block_iq3_xxsLi1EXadL_ZN37_INTERNAL_27df5045_7_mmvq_cu_c427077e20vec_dot_iq3_xxs_q8_1EPKvPK10block_q8_1RKiEEEvS3_S3_PfiiiiPKvS0_Pfiiii, address: 2079312, vaddr: 65536
Name: _Z13mul_mat_vec_qILi7ELi256ELi8E13block_iq3_xxsLi1EXadL_ZL20vec_dot_iq3_xxs_q8_1PKvPK10block_q8_1RKiEEEvS2_S2_Pfiiii, address: 2221152
	->Name: _Z13mul_mat_vec_qILi7ELi256ELi8E13block_iq3_xxsLi1EXadL_ZL20vec_dot_iq3_xxs_q8_1PKvPK10block_q8_1RKiEEEvS2_S2_Pfiiii, address: 2155616, vaddr: 65536
Name: _ZL170__device_stub__Z13mul_mat_vec_qILi8ELi256ELi8E13block_iq3_xxsLi1EXadL_ZN37_INTERNAL_27df5045_7_mmvq_cu_c427077e20vec_dot_iq3_xxs_q8_1EPKvPK10block_q8_1RKiEEEvS3_S3_PfiiiiPKvS0_Pfiiii, address: 2145168
	->Name: _ZL170__device_stub__Z13mul_mat_vec_qILi8ELi256ELi8E13block_iq3_xxsLi1EXadL_ZN37_INTERNAL_27df5045_7_mmvq_cu_c427077e20vec_dot_iq3_xxs_q8_1EPKvPK10block_q8_1RKiEEEvS3_S3_PfiiiiPKvS0_Pfiiii, address: 2079632, vaddr: 65536
Name: _Z13mul_mat_vec_qILi8ELi256ELi8E13block_iq3_xxsLi1EXadL_ZL20vec_dot_iq3_xxs_q8_1PKvPK10block_q8_1RKiEEEvS2_S2_Pfiiii, address: 2221472
	->Name: _Z13mul_mat_vec_qILi8ELi256ELi8E13block_iq3_xxsLi1EXadL_ZL20vec_dot_iq3_xxs_q8_1PKvPK10block_q8_1RKiEEEvS2_S2_Pfiiii, address: 2155936, vaddr: 65536
Name: _ZL166__device_stub__Z13mul_mat_vec_qILi1ELi256ELi8E11block_iq1_sLi1EXadL_ZN37_INTERNAL_27df5045_7_mmvq_cu_c427077e18vec_dot_iq1_s_q8_1EPKvPK10block_q8_1RKiEEEvS3_S3_PfiiiiPKvS0_Pfiiii, address: 2145488
	->Name: _ZL166__device_stub__Z13mul_mat_vec_qILi1ELi256ELi8E11block_iq1_sLi1EXadL_ZN37_INTERNAL_27df5045_7_mmvq_cu_c427077e18vec_dot_iq1_s_q8_1EPKvPK10block_q8_1RKiEEEvS3_S3_PfiiiiPKvS0_Pfiiii, address: 2079952, vaddr: 65536
Name: _Z13mul_mat_vec_qILi1ELi256ELi8E11block_iq1_sLi1EXadL_ZL18vec_dot_iq1_s_q8_1PKvPK10block_q8_1RKiEEEvS2_S2_Pfiiii, address: 2221792
	->Name: _Z13mul_mat_vec_qILi1ELi256ELi8E11block_iq1_sLi1EXadL_ZL18vec_dot_iq1_s_q8_1PKvPK10block_q8_1RKiEEEvS2_S2_Pfiiii, address: 2156256, vaddr: 65536
Name: _ZL166__device_stub__Z13mul_mat_vec_qILi2ELi256ELi8E11block_iq1_sLi1EXadL_ZN37_INTERNAL_27df5045_7_mmvq_cu_c427077e18vec_dot_iq1_s_q8_1EPKvPK10block_q8_1RKiEEEvS3_S3_PfiiiiPKvS0_Pfiiii, address: 2145808
	->Name: _ZL166__device_stub__Z13mul_mat_vec_qILi2ELi256ELi8E11block_iq1_sLi1EXadL_ZN37_INTERNAL_27df5045_7_mmvq_cu_c427077e18vec_dot_iq1_s_q8_1EPKvPK10block_q8_1RKiEEEvS3_S3_PfiiiiPKvS0_Pfiiii, address: 2080272, vaddr: 65536
Name: _Z13mul_mat_vec_qILi2ELi256ELi8E11block_iq1_sLi1EXadL_ZL18vec_dot_iq1_s_q8_1PKvPK10block_q8_1RKiEEEvS2_S2_Pfiiii, address: 2222112
	->Name: _Z13mul_mat_vec_qILi2ELi256ELi8E11block_iq1_sLi1EXadL_ZL18vec_dot_iq1_s_q8_1PKvPK10block_q8_1RKiEEEvS2_S2_Pfiiii, address: 2156576, vaddr: 65536
Name: _ZL166__device_stub__Z13mul_mat_vec_qILi3ELi256ELi8E11block_iq1_sLi1EXadL_ZN37_INTERNAL_27df5045_7_mmvq_cu_c427077e18vec_dot_iq1_s_q8_1EPKvPK10block_q8_1RKiEEEvS3_S3_PfiiiiPKvS0_Pfiiii, address: 2146128
	->Name: _ZL166__device_stub__Z13mul_mat_vec_qILi3ELi256ELi8E11block_iq1_sLi1EXadL_ZN37_INTERNAL_27df5045_7_mmvq_cu_c427077e18vec_dot_iq1_s_q8_1EPKvPK10block_q8_1RKiEEEvS3_S3_PfiiiiPKvS0_Pfiiii, address: 2080592, vaddr: 65536
Name: _Z13mul_mat_vec_qILi3ELi256ELi8E11block_iq1_sLi1EXadL_ZL18vec_dot_iq1_s_q8_1PKvPK10block_q8_1RKiEEEvS2_S2_Pfiiii, address: 2222432
	->Name: _Z13mul_mat_vec_qILi3ELi256ELi8E11block_iq1_sLi1EXadL_ZL18vec_dot_iq1_s_q8_1PKvPK10block_q8_1RKiEEEvS2_S2_Pfiiii, address: 2156896, vaddr: 65536
Name: _ZL166__device_stub__Z13mul_mat_vec_qILi4ELi256ELi8E11block_iq1_sLi1EXadL_ZN37_INTERNAL_27df5045_7_mmvq_cu_c427077e18vec_dot_iq1_s_q8_1EPKvPK10block_q8_1RKiEEEvS3_S3_PfiiiiPKvS0_Pfiiii, address: 2146448
	->Name: _ZL166__device_stub__Z13mul_mat_vec_qILi4ELi256ELi8E11block_iq1_sLi1EXadL_ZN37_INTERNAL_27df5045_7_mmvq_cu_c427077e18vec_dot_iq1_s_q8_1EPKvPK10block_q8_1RKiEEEvS3_S3_PfiiiiPKvS0_Pfiiii, address: 2080912, vaddr: 65536
Name: _Z13mul_mat_vec_qILi4ELi256ELi8E11block_iq1_sLi1EXadL_ZL18vec_dot_iq1_s_q8_1PKvPK10block_q8_1RKiEEEvS2_S2_Pfiiii, address: 2222752
	->Name: _Z13mul_mat_vec_qILi4ELi256ELi8E11block_iq1_sLi1EXadL_ZL18vec_dot_iq1_s_q8_1PKvPK10block_q8_1RKiEEEvS2_S2_Pfiiii, address: 2157216, vaddr: 65536
Name: _ZL166__device_stub__Z13mul_mat_vec_qILi5ELi256ELi8E11block_iq1_sLi1EXadL_ZN37_INTERNAL_27df5045_7_mmvq_cu_c427077e18vec_dot_iq1_s_q8_1EPKvPK10block_q8_1RKiEEEvS3_S3_PfiiiiPKvS0_Pfiiii, address: 2146768
	->Name: _ZL166__device_stub__Z13mul_mat_vec_qILi5ELi256ELi8E11block_iq1_sLi1EXadL_ZN37_INTERNAL_27df5045_7_mmvq_cu_c427077e18vec_dot_iq1_s_q8_1EPKvPK10block_q8_1RKiEEEvS3_S3_PfiiiiPKvS0_Pfiiii, address: 2081232, vaddr: 65536
Name: _Z13mul_mat_vec_qILi5ELi256ELi8E11block_iq1_sLi1EXadL_ZL18vec_dot_iq1_s_q8_1PKvPK10block_q8_1RKiEEEvS2_S2_Pfiiii, address: 2223072
	->Name: _Z13mul_mat_vec_qILi5ELi256ELi8E11block_iq1_sLi1EXadL_ZL18vec_dot_iq1_s_q8_1PKvPK10block_q8_1RKiEEEvS2_S2_Pfiiii, address: 2157536, vaddr: 65536
Name: _ZL166__device_stub__Z13mul_mat_vec_qILi6ELi256ELi8E11block_iq1_sLi1EXadL_ZN37_INTERNAL_27df5045_7_mmvq_cu_c427077e18vec_dot_iq1_s_q8_1EPKvPK10block_q8_1RKiEEEvS3_S3_PfiiiiPKvS0_Pfiiii, address: 2147088
	->Name: _ZL166__device_stub__Z13mul_mat_vec_qILi6ELi256ELi8E11block_iq1_sLi1EXadL_ZN37_INTERNAL_27df5045_7_mmvq_cu_c427077e18vec_dot_iq1_s_q8_1EPKvPK10block_q8_1RKiEEEvS3_S3_PfiiiiPKvS0_Pfiiii, address: 2081552, vaddr: 65536
Name: _Z13mul_mat_vec_qILi6ELi256ELi8E11block_iq1_sLi1EXadL_ZL18vec_dot_iq1_s_q8_1PKvPK10block_q8_1RKiEEEvS2_S2_Pfiiii, address: 2223392
	->Name: _Z13mul_mat_vec_qILi6ELi256ELi8E11block_iq1_sLi1EXadL_ZL18vec_dot_iq1_s_q8_1PKvPK10block_q8_1RKiEEEvS2_S2_Pfiiii, address: 2157856, vaddr: 65536
Name: _ZL166__device_stub__Z13mul_mat_vec_qILi7ELi256ELi8E11block_iq1_sLi1EXadL_ZN37_INTERNAL_27df5045_7_mmvq_cu_c427077e18vec_dot_iq1_s_q8_1EPKvPK10block_q8_1RKiEEEvS3_S3_PfiiiiPKvS0_Pfiiii, address: 2147408
	->Name: _ZL166__device_stub__Z13mul_mat_vec_qILi7ELi256ELi8E11block_iq1_sLi1EXadL_ZN37_INTERNAL_27df5045_7_mmvq_cu_c427077e18vec_dot_iq1_s_q8_1EPKvPK10block_q8_1RKiEEEvS3_S3_PfiiiiPKvS0_Pfiiii, address: 2081872, vaddr: 65536
Name: _Z13mul_mat_vec_qILi7ELi256ELi8E11block_iq1_sLi1EXadL_ZL18vec_dot_iq1_s_q8_1PKvPK10block_q8_1RKiEEEvS2_S2_Pfiiii, address: 2223712
	->Name: _Z13mul_mat_vec_qILi7ELi256ELi8E11block_iq1_sLi1EXadL_ZL18vec_dot_iq1_s_q8_1PKvPK10block_q8_1RKiEEEvS2_S2_Pfiiii, address: 2158176, vaddr: 65536
Name: _ZL166__device_stub__Z13mul_mat_vec_qILi8ELi256ELi8E11block_iq1_sLi1EXadL_ZN37_INTERNAL_27df5045_7_mmvq_cu_c427077e18vec_dot_iq1_s_q8_1EPKvPK10block_q8_1RKiEEEvS3_S3_PfiiiiPKvS0_Pfiiii, address: 2147728
	->Name: _ZL166__device_stub__Z13mul_mat_vec_qILi8ELi256ELi8E11block_iq1_sLi1EXadL_ZN37_INTERNAL_27df5045_7_mmvq_cu_c427077e18vec_dot_iq1_s_q8_1EPKvPK10block_q8_1RKiEEEvS3_S3_PfiiiiPKvS0_Pfiiii, address: 2082192, vaddr: 65536
Name: _Z13mul_mat_vec_qILi8ELi256ELi8E11block_iq1_sLi1EXadL_ZL18vec_dot_iq1_s_q8_1PKvPK10block_q8_1RKiEEEvS2_S2_Pfiiii, address: 2224032
	->Name: _Z13mul_mat_vec_qILi8ELi256ELi8E11block_iq1_sLi1EXadL_ZL18vec_dot_iq1_s_q8_1PKvPK10block_q8_1RKiEEEvS2_S2_Pfiiii, address: 2158496, vaddr: 65536
Name: _ZL166__device_stub__Z13mul_mat_vec_qILi1ELi256ELi8E11block_iq1_mLi1EXadL_ZN37_INTERNAL_27df5045_7_mmvq_cu_c427077e18vec_dot_iq1_m_q8_1EPKvPK10block_q8_1RKiEEEvS3_S3_PfiiiiPKvS0_Pfiiii, address: 2148048
	->Name: _ZL166__device_stub__Z13mul_mat_vec_qILi1ELi256ELi8E11block_iq1_mLi1EXadL_ZN37_INTERNAL_27df5045_7_mmvq_cu_c427077e18vec_dot_iq1_m_q8_1EPKvPK10block_q8_1RKiEEEvS3_S3_PfiiiiPKvS0_Pfiiii, address: 2082512, vaddr: 65536
Name: _Z13mul_mat_vec_qILi1ELi256ELi8E11block_iq1_mLi1EXadL_ZL18vec_dot_iq1_m_q8_1PKvPK10block_q8_1RKiEEEvS2_S2_Pfiiii, address: 2224352
	->Name: _Z13mul_mat_vec_qILi1ELi256ELi8E11block_iq1_mLi1EXadL_ZL18vec_dot_iq1_m_q8_1PKvPK10block_q8_1RKiEEEvS2_S2_Pfiiii, address: 2158816, vaddr: 65536
Name: _ZL166__device_stub__Z13mul_mat_vec_qILi2ELi256ELi8E11block_iq1_mLi1EXadL_ZN37_INTERNAL_27df5045_7_mmvq_cu_c427077e18vec_dot_iq1_m_q8_1EPKvPK10block_q8_1RKiEEEvS3_S3_PfiiiiPKvS0_Pfiiii, address: 2148368
	->Name: _ZL166__device_stub__Z13mul_mat_vec_qILi2ELi256ELi8E11block_iq1_mLi1EXadL_ZN37_INTERNAL_27df5045_7_mmvq_cu_c427077e18vec_dot_iq1_m_q8_1EPKvPK10block_q8_1RKiEEEvS3_S3_PfiiiiPKvS0_Pfiiii, address: 2082832, vaddr: 65536
Name: _Z13mul_mat_vec_qILi2ELi256ELi8E11block_iq1_mLi1EXadL_ZL18vec_dot_iq1_m_q8_1PKvPK10block_q8_1RKiEEEvS2_S2_Pfiiii, address: 2224672
	->Name: _Z13mul_mat_vec_qILi2ELi256ELi8E11block_iq1_mLi1EXadL_ZL18vec_dot_iq1_m_q8_1PKvPK10block_q8_1RKiEEEvS2_S2_Pfiiii, address: 2159136, vaddr: 65536
Name: _ZL166__device_stub__Z13mul_mat_vec_qILi3ELi256ELi8E11block_iq1_mLi1EXadL_ZN37_INTERNAL_27df5045_7_mmvq_cu_c427077e18vec_dot_iq1_m_q8_1EPKvPK10block_q8_1RKiEEEvS3_S3_PfiiiiPKvS0_Pfiiii, address: 2148688
	->Name: _ZL166__device_stub__Z13mul_mat_vec_qILi3ELi256ELi8E11block_iq1_mLi1EXadL_ZN37_INTERNAL_27df5045_7_mmvq_cu_c427077e18vec_dot_iq1_m_q8_1EPKvPK10block_q8_1RKiEEEvS3_S3_PfiiiiPKvS0_Pfiiii, address: 2083152, vaddr: 65536
Name: _Z13mul_mat_vec_qILi3ELi256ELi8E11block_iq1_mLi1EXadL_ZL18vec_dot_iq1_m_q8_1PKvPK10block_q8_1RKiEEEvS2_S2_Pfiiii, address: 2224992
	->Name: _Z13mul_mat_vec_qILi3ELi256ELi8E11block_iq1_mLi1EXadL_ZL18vec_dot_iq1_m_q8_1PKvPK10block_q8_1RKiEEEvS2_S2_Pfiiii, address: 2159456, vaddr: 65536
Name: _ZL166__device_stub__Z13mul_mat_vec_qILi4ELi256ELi8E11block_iq1_mLi1EXadL_ZN37_INTERNAL_27df5045_7_mmvq_cu_c427077e18vec_dot_iq1_m_q8_1EPKvPK10block_q8_1RKiEEEvS3_S3_PfiiiiPKvS0_Pfiiii, address: 2149008
	->Name: _ZL166__device_stub__Z13mul_mat_vec_qILi4ELi256ELi8E11block_iq1_mLi1EXadL_ZN37_INTERNAL_27df5045_7_mmvq_cu_c427077e18vec_dot_iq1_m_q8_1EPKvPK10block_q8_1RKiEEEvS3_S3_PfiiiiPKvS0_Pfiiii, address: 2083472, vaddr: 65536
Name: _Z13mul_mat_vec_qILi4ELi256ELi8E11block_iq1_mLi1EXadL_ZL18vec_dot_iq1_m_q8_1PKvPK10block_q8_1RKiEEEvS2_S2_Pfiiii, address: 2225312
	->Name: _Z13mul_mat_vec_qILi4ELi256ELi8E11block_iq1_mLi1EXadL_ZL18vec_dot_iq1_m_q8_1PKvPK10block_q8_1RKiEEEvS2_S2_Pfiiii, address: 2159776, vaddr: 65536
Name: _ZL166__device_stub__Z13mul_mat_vec_qILi5ELi256ELi8E11block_iq1_mLi1EXadL_ZN37_INTERNAL_27df5045_7_mmvq_cu_c427077e18vec_dot_iq1_m_q8_1EPKvPK10block_q8_1RKiEEEvS3_S3_PfiiiiPKvS0_Pfiiii, address: 2149328
	->Name: _ZL166__device_stub__Z13mul_mat_vec_qILi5ELi256ELi8E11block_iq1_mLi1EXadL_ZN37_INTERNAL_27df5045_7_mmvq_cu_c427077e18vec_dot_iq1_m_q8_1EPKvPK10block_q8_1RKiEEEvS3_S3_PfiiiiPKvS0_Pfiiii, address: 2083792, vaddr: 65536
Name: _Z13mul_mat_vec_qILi5ELi256ELi8E11block_iq1_mLi1EXadL_ZL18vec_dot_iq1_m_q8_1PKvPK10block_q8_1RKiEEEvS2_S2_Pfiiii, address: 2225632
	->Name: _Z13mul_mat_vec_qILi5ELi256ELi8E11block_iq1_mLi1EXadL_ZL18vec_dot_iq1_m_q8_1PKvPK10block_q8_1RKiEEEvS2_S2_Pfiiii, address: 2160096, vaddr: 65536
Name: _ZL166__device_stub__Z13mul_mat_vec_qILi6ELi256ELi8E11block_iq1_mLi1EXadL_ZN37_INTERNAL_27df5045_7_mmvq_cu_c427077e18vec_dot_iq1_m_q8_1EPKvPK10block_q8_1RKiEEEvS3_S3_PfiiiiPKvS0_Pfiiii, address: 2149648
	->Name: _ZL166__device_stub__Z13mul_mat_vec_qILi6ELi256ELi8E11block_iq1_mLi1EXadL_ZN37_INTERNAL_27df5045_7_mmvq_cu_c427077e18vec_dot_iq1_m_q8_1EPKvPK10block_q8_1RKiEEEvS3_S3_PfiiiiPKvS0_Pfiiii, address: 2084112, vaddr: 65536
Name: _Z13mul_mat_vec_qILi6ELi256ELi8E11block_iq1_mLi1EXadL_ZL18vec_dot_iq1_m_q8_1PKvPK10block_q8_1RKiEEEvS2_S2_Pfiiii, address: 2225952
	->Name: _Z13mul_mat_vec_qILi6ELi256ELi8E11block_iq1_mLi1EXadL_ZL18vec_dot_iq1_m_q8_1PKvPK10block_q8_1RKiEEEvS2_S2_Pfiiii, address: 2160416, vaddr: 65536
Name: _ZL166__device_stub__Z13mul_mat_vec_qILi7ELi256ELi8E11block_iq1_mLi1EXadL_ZN37_INTERNAL_27df5045_7_mmvq_cu_c427077e18vec_dot_iq1_m_q8_1EPKvPK10block_q8_1RKiEEEvS3_S3_PfiiiiPKvS0_Pfiiii, address: 2149968
	->Name: _ZL166__device_stub__Z13mul_mat_vec_qILi7ELi256ELi8E11block_iq1_mLi1EXadL_ZN37_INTERNAL_27df5045_7_mmvq_cu_c427077e18vec_dot_iq1_m_q8_1EPKvPK10block_q8_1RKiEEEvS3_S3_PfiiiiPKvS0_Pfiiii, address: 2084432, vaddr: 65536
Name: _Z13mul_mat_vec_qILi7ELi256ELi8E11block_iq1_mLi1EXadL_ZL18vec_dot_iq1_m_q8_1PKvPK10block_q8_1RKiEEEvS2_S2_Pfiiii, address: 2226272
	->Name: _Z13mul_mat_vec_qILi7ELi256ELi8E11block_iq1_mLi1EXadL_ZL18vec_dot_iq1_m_q8_1PKvPK10block_q8_1RKiEEEvS2_S2_Pfiiii, address: 2160736, vaddr: 65536
Name: _ZL166__device_stub__Z13mul_mat_vec_qILi8ELi256ELi8E11block_iq1_mLi1EXadL_ZN37_INTERNAL_27df5045_7_mmvq_cu_c427077e18vec_dot_iq1_m_q8_1EPKvPK10block_q8_1RKiEEEvS3_S3_PfiiiiPKvS0_Pfiiii, address: 2150288
	->Name: _ZL166__device_stub__Z13mul_mat_vec_qILi8ELi256ELi8E11block_iq1_mLi1EXadL_ZN37_INTERNAL_27df5045_7_mmvq_cu_c427077e18vec_dot_iq1_m_q8_1EPKvPK10block_q8_1RKiEEEvS3_S3_PfiiiiPKvS0_Pfiiii, address: 2084752, vaddr: 65536
Name: _Z13mul_mat_vec_qILi8ELi256ELi8E11block_iq1_mLi1EXadL_ZL18vec_dot_iq1_m_q8_1PKvPK10block_q8_1RKiEEEvS2_S2_Pfiiii, address: 2226592
	->Name: _Z13mul_mat_vec_qILi8ELi256ELi8E11block_iq1_mLi1EXadL_ZL18vec_dot_iq1_m_q8_1PKvPK10block_q8_1RKiEEEvS2_S2_Pfiiii, address: 2161056, vaddr: 65536
Name: _ZL167__device_stub__Z13mul_mat_vec_qILi1ELi32ELi4E12block_iq4_nlLi2EXadL_ZN37_INTERNAL_27df5045_7_mmvq_cu_c427077e19vec_dot_iq4_nl_q8_1EPKvPK10block_q8_1RKiEEEvS3_S3_PfiiiiPKvS0_Pfiiii, address: 2150608
	->Name: _ZL167__device_stub__Z13mul_mat_vec_qILi1ELi32ELi4E12block_iq4_nlLi2EXadL_ZN37_INTERNAL_27df5045_7_mmvq_cu_c427077e19vec_dot_iq4_nl_q8_1EPKvPK10block_q8_1RKiEEEvS3_S3_PfiiiiPKvS0_Pfiiii, address: 2085072, vaddr: 65536
Name: _Z13mul_mat_vec_qILi1ELi32ELi4E12block_iq4_nlLi2EXadL_ZL19vec_dot_iq4_nl_q8_1PKvPK10block_q8_1RKiEEEvS2_S2_Pfiiii, address: 2226912
	->Name: _Z13mul_mat_vec_qILi1ELi32ELi4E12block_iq4_nlLi2EXadL_ZL19vec_dot_iq4_nl_q8_1PKvPK10block_q8_1RKiEEEvS2_S2_Pfiiii, address: 2161376, vaddr: 65536
Name: _ZL167__device_stub__Z13mul_mat_vec_qILi2ELi32ELi4E12block_iq4_nlLi2EXadL_ZN37_INTERNAL_27df5045_7_mmvq_cu_c427077e19vec_dot_iq4_nl_q8_1EPKvPK10block_q8_1RKiEEEvS3_S3_PfiiiiPKvS0_Pfiiii, address: 2150928
	->Name: _ZL167__device_stub__Z13mul_mat_vec_qILi2ELi32ELi4E12block_iq4_nlLi2EXadL_ZN37_INTERNAL_27df5045_7_mmvq_cu_c427077e19vec_dot_iq4_nl_q8_1EPKvPK10block_q8_1RKiEEEvS3_S3_PfiiiiPKvS0_Pfiiii, address: 2085392, vaddr: 65536
Name: _Z13mul_mat_vec_qILi2ELi32ELi4E12block_iq4_nlLi2EXadL_ZL19vec_dot_iq4_nl_q8_1PKvPK10block_q8_1RKiEEEvS2_S2_Pfiiii, address: 2227232
	->Name: _Z13mul_mat_vec_qILi2ELi32ELi4E12block_iq4_nlLi2EXadL_ZL19vec_dot_iq4_nl_q8_1PKvPK10block_q8_1RKiEEEvS2_S2_Pfiiii, address: 2161696, vaddr: 65536
Name: _ZL167__device_stub__Z13mul_mat_vec_qILi3ELi32ELi4E12block_iq4_nlLi2EXadL_ZN37_INTERNAL_27df5045_7_mmvq_cu_c427077e19vec_dot_iq4_nl_q8_1EPKvPK10block_q8_1RKiEEEvS3_S3_PfiiiiPKvS0_Pfiiii, address: 2151248
	->Name: _ZL167__device_stub__Z13mul_mat_vec_qILi3ELi32ELi4E12block_iq4_nlLi2EXadL_ZN37_INTERNAL_27df5045_7_mmvq_cu_c427077e19vec_dot_iq4_nl_q8_1EPKvPK10block_q8_1RKiEEEvS3_S3_PfiiiiPKvS0_Pfiiii, address: 2085712, vaddr: 65536
Name: _Z13mul_mat_vec_qILi3ELi32ELi4E12block_iq4_nlLi2EXadL_ZL19vec_dot_iq4_nl_q8_1PKvPK10block_q8_1RKiEEEvS2_S2_Pfiiii, address: 2227552
	->Name: _Z13mul_mat_vec_qILi3ELi32ELi4E12block_iq4_nlLi2EXadL_ZL19vec_dot_iq4_nl_q8_1PKvPK10block_q8_1RKiEEEvS2_S2_Pfiiii, address: 2162016, vaddr: 65536
Name: _ZL167__device_stub__Z13mul_mat_vec_qILi4ELi32ELi4E12block_iq4_nlLi2EXadL_ZN37_INTERNAL_27df5045_7_mmvq_cu_c427077e19vec_dot_iq4_nl_q8_1EPKvPK10block_q8_1RKiEEEvS3_S3_PfiiiiPKvS0_Pfiiii, address: 2151568
	->Name: _ZL167__device_stub__Z13mul_mat_vec_qILi4ELi32ELi4E12block_iq4_nlLi2EXadL_ZN37_INTERNAL_27df5045_7_mmvq_cu_c427077e19vec_dot_iq4_nl_q8_1EPKvPK10block_q8_1RKiEEEvS3_S3_PfiiiiPKvS0_Pfiiii, address: 2086032, vaddr: 65536
Name: _Z13mul_mat_vec_qILi4ELi32ELi4E12block_iq4_nlLi2EXadL_ZL19vec_dot_iq4_nl_q8_1PKvPK10block_q8_1RKiEEEvS2_S2_Pfiiii, address: 2227872
	->Name: _Z13mul_mat_vec_qILi4ELi32ELi4E12block_iq4_nlLi2EXadL_ZL19vec_dot_iq4_nl_q8_1PKvPK10block_q8_1RKiEEEvS2_S2_Pfiiii, address: 2162336, vaddr: 65536
Name: _ZL167__device_stub__Z13mul_mat_vec_qILi5ELi32ELi4E12block_iq4_nlLi2EXadL_ZN37_INTERNAL_27df5045_7_mmvq_cu_c427077e19vec_dot_iq4_nl_q8_1EPKvPK10block_q8_1RKiEEEvS3_S3_PfiiiiPKvS0_Pfiiii, address: 2151888
	->Name: _ZL167__device_stub__Z13mul_mat_vec_qILi5ELi32ELi4E12block_iq4_nlLi2EXadL_ZN37_INTERNAL_27df5045_7_mmvq_cu_c427077e19vec_dot_iq4_nl_q8_1EPKvPK10block_q8_1RKiEEEvS3_S3_PfiiiiPKvS0_Pfiiii, address: 2086352, vaddr: 65536
Name: _Z13mul_mat_vec_qILi5ELi32ELi4E12block_iq4_nlLi2EXadL_ZL19vec_dot_iq4_nl_q8_1PKvPK10block_q8_1RKiEEEvS2_S2_Pfiiii, address: 2228192
	->Name: _Z13mul_mat_vec_qILi5ELi32ELi4E12block_iq4_nlLi2EXadL_ZL19vec_dot_iq4_nl_q8_1PKvPK10block_q8_1RKiEEEvS2_S2_Pfiiii, address: 2162656, vaddr: 65536
Name: _ZL167__device_stub__Z13mul_mat_vec_qILi6ELi32ELi4E12block_iq4_nlLi2EXadL_ZN37_INTERNAL_27df5045_7_mmvq_cu_c427077e19vec_dot_iq4_nl_q8_1EPKvPK10block_q8_1RKiEEEvS3_S3_PfiiiiPKvS0_Pfiiii, address: 2152208
	->Name: _ZL167__device_stub__Z13mul_mat_vec_qILi6ELi32ELi4E12block_iq4_nlLi2EXadL_ZN37_INTERNAL_27df5045_7_mmvq_cu_c427077e19vec_dot_iq4_nl_q8_1EPKvPK10block_q8_1RKiEEEvS3_S3_PfiiiiPKvS0_Pfiiii, address: 2086672, vaddr: 65536
Name: _Z13mul_mat_vec_qILi6ELi32ELi4E12block_iq4_nlLi2EXadL_ZL19vec_dot_iq4_nl_q8_1PKvPK10block_q8_1RKiEEEvS2_S2_Pfiiii, address: 2228512
	->Name: _Z13mul_mat_vec_qILi6ELi32ELi4E12block_iq4_nlLi2EXadL_ZL19vec_dot_iq4_nl_q8_1PKvPK10block_q8_1RKiEEEvS2_S2_Pfiiii, address: 2162976, vaddr: 65536
Name: _ZL167__device_stub__Z13mul_mat_vec_qILi7ELi32ELi4E12block_iq4_nlLi2EXadL_ZN37_INTERNAL_27df5045_7_mmvq_cu_c427077e19vec_dot_iq4_nl_q8_1EPKvPK10block_q8_1RKiEEEvS3_S3_PfiiiiPKvS0_Pfiiii, address: 2152528
	->Name: _ZL167__device_stub__Z13mul_mat_vec_qILi7ELi32ELi4E12block_iq4_nlLi2EXadL_ZN37_INTERNAL_27df5045_7_mmvq_cu_c427077e19vec_dot_iq4_nl_q8_1EPKvPK10block_q8_1RKiEEEvS3_S3_PfiiiiPKvS0_Pfiiii, address: 2086992, vaddr: 65536
Name: _Z13mul_mat_vec_qILi7ELi32ELi4E12block_iq4_nlLi2EXadL_ZL19vec_dot_iq4_nl_q8_1PKvPK10block_q8_1RKiEEEvS2_S2_Pfiiii, address: 2228832
	->Name: _Z13mul_mat_vec_qILi7ELi32ELi4E12block_iq4_nlLi2EXadL_ZL19vec_dot_iq4_nl_q8_1PKvPK10block_q8_1RKiEEEvS2_S2_Pfiiii, address: 2163296, vaddr: 65536
Name: _ZL167__device_stub__Z13mul_mat_vec_qILi8ELi32ELi4E12block_iq4_nlLi2EXadL_ZN37_INTERNAL_27df5045_7_mmvq_cu_c427077e19vec_dot_iq4_nl_q8_1EPKvPK10block_q8_1RKiEEEvS3_S3_PfiiiiPKvS0_Pfiiii, address: 2152848
	->Name: _ZL167__device_stub__Z13mul_mat_vec_qILi8ELi32ELi4E12block_iq4_nlLi2EXadL_ZN37_INTERNAL_27df5045_7_mmvq_cu_c427077e19vec_dot_iq4_nl_q8_1EPKvPK10block_q8_1RKiEEEvS3_S3_PfiiiiPKvS0_Pfiiii, address: 2087312, vaddr: 65536
Name: _Z13mul_mat_vec_qILi8ELi32ELi4E12block_iq4_nlLi2EXadL_ZL19vec_dot_iq4_nl_q8_1PKvPK10block_q8_1RKiEEEvS2_S2_Pfiiii, address: 2229152
	->Name: _Z13mul_mat_vec_qILi8ELi32ELi4E12block_iq4_nlLi2EXadL_ZL19vec_dot_iq4_nl_q8_1PKvPK10block_q8_1RKiEEEvS2_S2_Pfiiii, address: 2163616, vaddr: 65536
Name: _ZL168__device_stub__Z13mul_mat_vec_qILi1ELi256ELi8E12block_iq4_xsLi1EXadL_ZN37_INTERNAL_27df5045_7_mmvq_cu_c427077e19vec_dot_iq4_xs_q8_1EPKvPK10block_q8_1RKiEEEvS3_S3_PfiiiiPKvS0_Pfiiii, address: 2153168
	->Name: _ZL168__device_stub__Z13mul_mat_vec_qILi1ELi256ELi8E12block_iq4_xsLi1EXadL_ZN37_INTERNAL_27df5045_7_mmvq_cu_c427077e19vec_dot_iq4_xs_q8_1EPKvPK10block_q8_1RKiEEEvS3_S3_PfiiiiPKvS0_Pfiiii, address: 2087632, vaddr: 65536
Name: _Z13mul_mat_vec_qILi1ELi256ELi8E12block_iq4_xsLi1EXadL_ZL19vec_dot_iq4_xs_q8_1PKvPK10block_q8_1RKiEEEvS2_S2_Pfiiii, address: 2229472
	->Name: _Z13mul_mat_vec_qILi1ELi256ELi8E12block_iq4_xsLi1EXadL_ZL19vec_dot_iq4_xs_q8_1PKvPK10block_q8_1RKiEEEvS2_S2_Pfiiii, address: 2163936, vaddr: 65536
Name: _ZL168__device_stub__Z13mul_mat_vec_qILi2ELi256ELi8E12block_iq4_xsLi1EXadL_ZN37_INTERNAL_27df5045_7_mmvq_cu_c427077e19vec_dot_iq4_xs_q8_1EPKvPK10block_q8_1RKiEEEvS3_S3_PfiiiiPKvS0_Pfiiii, address: 2153488
	->Name: _ZL168__device_stub__Z13mul_mat_vec_qILi2ELi256ELi8E12block_iq4_xsLi1EXadL_ZN37_INTERNAL_27df5045_7_mmvq_cu_c427077e19vec_dot_iq4_xs_q8_1EPKvPK10block_q8_1RKiEEEvS3_S3_PfiiiiPKvS0_Pfiiii, address: 2087952, vaddr: 65536
Name: _Z13mul_mat_vec_qILi2ELi256ELi8E12block_iq4_xsLi1EXadL_ZL19vec_dot_iq4_xs_q8_1PKvPK10block_q8_1RKiEEEvS2_S2_Pfiiii, address: 2229792
	->Name: _Z13mul_mat_vec_qILi2ELi256ELi8E12block_iq4_xsLi1EXadL_ZL19vec_dot_iq4_xs_q8_1PKvPK10block_q8_1RKiEEEvS2_S2_Pfiiii, address: 2164256, vaddr: 65536
Name: _ZL168__device_stub__Z13mul_mat_vec_qILi3ELi256ELi8E12block_iq4_xsLi1EXadL_ZN37_INTERNAL_27df5045_7_mmvq_cu_c427077e19vec_dot_iq4_xs_q8_1EPKvPK10block_q8_1RKiEEEvS3_S3_PfiiiiPKvS0_Pfiiii, address: 2153808
	->Name: _ZL168__device_stub__Z13mul_mat_vec_qILi3ELi256ELi8E12block_iq4_xsLi1EXadL_ZN37_INTERNAL_27df5045_7_mmvq_cu_c427077e19vec_dot_iq4_xs_q8_1EPKvPK10block_q8_1RKiEEEvS3_S3_PfiiiiPKvS0_Pfiiii, address: 2088272, vaddr: 65536
Name: _Z13mul_mat_vec_qILi3ELi256ELi8E12block_iq4_xsLi1EXadL_ZL19vec_dot_iq4_xs_q8_1PKvPK10block_q8_1RKiEEEvS2_S2_Pfiiii, address: 2230112
	->Name: _Z13mul_mat_vec_qILi3ELi256ELi8E12block_iq4_xsLi1EXadL_ZL19vec_dot_iq4_xs_q8_1PKvPK10block_q8_1RKiEEEvS2_S2_Pfiiii, address: 2164576, vaddr: 65536
Name: _ZL168__device_stub__Z13mul_mat_vec_qILi4ELi256ELi8E12block_iq4_xsLi1EXadL_ZN37_INTERNAL_27df5045_7_mmvq_cu_c427077e19vec_dot_iq4_xs_q8_1EPKvPK10block_q8_1RKiEEEvS3_S3_PfiiiiPKvS0_Pfiiii, address: 2154128
	->Name: _ZL168__device_stub__Z13mul_mat_vec_qILi4ELi256ELi8E12block_iq4_xsLi1EXadL_ZN37_INTERNAL_27df5045_7_mmvq_cu_c427077e19vec_dot_iq4_xs_q8_1EPKvPK10block_q8_1RKiEEEvS3_S3_PfiiiiPKvS0_Pfiiii, address: 2088592, vaddr: 65536
Name: _Z13mul_mat_vec_qILi4ELi256ELi8E12block_iq4_xsLi1EXadL_ZL19vec_dot_iq4_xs_q8_1PKvPK10block_q8_1RKiEEEvS2_S2_Pfiiii, address: 2230432
	->Name: _Z13mul_mat_vec_qILi4ELi256ELi8E12block_iq4_xsLi1EXadL_ZL19vec_dot_iq4_xs_q8_1PKvPK10block_q8_1RKiEEEvS2_S2_Pfiiii, address: 2164896, vaddr: 65536
Name: _ZL168__device_stub__Z13mul_mat_vec_qILi5ELi256ELi8E12block_iq4_xsLi1EXadL_ZN37_INTERNAL_27df5045_7_mmvq_cu_c427077e19vec_dot_iq4_xs_q8_1EPKvPK10block_q8_1RKiEEEvS3_S3_PfiiiiPKvS0_Pfiiii, address: 2154448
	->Name: _ZL168__device_stub__Z13mul_mat_vec_qILi5ELi256ELi8E12block_iq4_xsLi1EXadL_ZN37_INTERNAL_27df5045_7_mmvq_cu_c427077e19vec_dot_iq4_xs_q8_1EPKvPK10block_q8_1RKiEEEvS3_S3_PfiiiiPKvS0_Pfiiii, address: 2088912, vaddr: 65536
Name: _Z13mul_mat_vec_qILi5ELi256ELi8E12block_iq4_xsLi1EXadL_ZL19vec_dot_iq4_xs_q8_1PKvPK10block_q8_1RKiEEEvS2_S2_Pfiiii, address: 2230752
	->Name: _Z13mul_mat_vec_qILi5ELi256ELi8E12block_iq4_xsLi1EXadL_ZL19vec_dot_iq4_xs_q8_1PKvPK10block_q8_1RKiEEEvS2_S2_Pfiiii, address: 2165216, vaddr: 65536
Name: _ZL168__device_stub__Z13mul_mat_vec_qILi6ELi256ELi8E12block_iq4_xsLi1EXadL_ZN37_INTERNAL_27df5045_7_mmvq_cu_c427077e19vec_dot_iq4_xs_q8_1EPKvPK10block_q8_1RKiEEEvS3_S3_PfiiiiPKvS0_Pfiiii, address: 2154768
	->Name: _ZL168__device_stub__Z13mul_mat_vec_qILi6ELi256ELi8E12block_iq4_xsLi1EXadL_ZN37_INTERNAL_27df5045_7_mmvq_cu_c427077e19vec_dot_iq4_xs_q8_1EPKvPK10block_q8_1RKiEEEvS3_S3_PfiiiiPKvS0_Pfiiii, address: 2089232, vaddr: 65536
Name: _Z13mul_mat_vec_qILi6ELi256ELi8E12block_iq4_xsLi1EXadL_ZL19vec_dot_iq4_xs_q8_1PKvPK10block_q8_1RKiEEEvS2_S2_Pfiiii, address: 2231072
	->Name: _Z13mul_mat_vec_qILi6ELi256ELi8E12block_iq4_xsLi1EXadL_ZL19vec_dot_iq4_xs_q8_1PKvPK10block_q8_1RKiEEEvS2_S2_Pfiiii, address: 2165536, vaddr: 65536
Name: _ZL168__device_stub__Z13mul_mat_vec_qILi7ELi256ELi8E12block_iq4_xsLi1EXadL_ZN37_INTERNAL_27df5045_7_mmvq_cu_c427077e19vec_dot_iq4_xs_q8_1EPKvPK10block_q8_1RKiEEEvS3_S3_PfiiiiPKvS0_Pfiiii, address: 2155088
	->Name: _ZL168__device_stub__Z13mul_mat_vec_qILi7ELi256ELi8E12block_iq4_xsLi1EXadL_ZN37_INTERNAL_27df5045_7_mmvq_cu_c427077e19vec_dot_iq4_xs_q8_1EPKvPK10block_q8_1RKiEEEvS3_S3_PfiiiiPKvS0_Pfiiii, address: 2089552, vaddr: 65536
Name: _Z13mul_mat_vec_qILi7ELi256ELi8E12block_iq4_xsLi1EXadL_ZL19vec_dot_iq4_xs_q8_1PKvPK10block_q8_1RKiEEEvS2_S2_Pfiiii, address: 2231392
	->Name: _Z13mul_mat_vec_qILi7ELi256ELi8E12block_iq4_xsLi1EXadL_ZL19vec_dot_iq4_xs_q8_1PKvPK10block_q8_1RKiEEEvS2_S2_Pfiiii, address: 2165856, vaddr: 65536
Name: _ZL168__device_stub__Z13mul_mat_vec_qILi8ELi256ELi8E12block_iq4_xsLi1EXadL_ZN37_INTERNAL_27df5045_7_mmvq_cu_c427077e19vec_dot_iq4_xs_q8_1EPKvPK10block_q8_1RKiEEEvS3_S3_PfiiiiPKvS0_Pfiiii, address: 2155408
	->Name: _ZL168__device_stub__Z13mul_mat_vec_qILi8ELi256ELi8E12block_iq4_xsLi1EXadL_ZN37_INTERNAL_27df5045_7_mmvq_cu_c427077e19vec_dot_iq4_xs_q8_1EPKvPK10block_q8_1RKiEEEvS3_S3_PfiiiiPKvS0_Pfiiii, address: 2089872, vaddr: 65536
Name: _Z13mul_mat_vec_qILi8ELi256ELi8E12block_iq4_xsLi1EXadL_ZL19vec_dot_iq4_xs_q8_1PKvPK10block_q8_1RKiEEEvS2_S2_Pfiiii, address: 2231712
	->Name: _Z13mul_mat_vec_qILi8ELi256ELi8E12block_iq4_xsLi1EXadL_ZL19vec_dot_iq4_xs_q8_1PKvPK10block_q8_1RKiEEEvS2_S2_Pfiiii, address: 2166176, vaddr: 65536
Name: _ZL166__device_stub__Z13mul_mat_vec_qILi1ELi256ELi8E11block_iq3_sLi1EXadL_ZN37_INTERNAL_27df5045_7_mmvq_cu_c427077e18vec_dot_iq3_s_q8_1EPKvPK10block_q8_1RKiEEEvS3_S3_PfiiiiPKvS0_Pfiiii, address: 2155728
	->Name: _ZL166__device_stub__Z13mul_mat_vec_qILi1ELi256ELi8E11block_iq3_sLi1EXadL_ZN37_INTERNAL_27df5045_7_mmvq_cu_c427077e18vec_dot_iq3_s_q8_1EPKvPK10block_q8_1RKiEEEvS3_S3_PfiiiiPKvS0_Pfiiii, address: 2090192, vaddr: 65536
Name: _Z13mul_mat_vec_qILi1ELi256ELi8E11block_iq3_sLi1EXadL_ZL18vec_dot_iq3_s_q8_1PKvPK10block_q8_1RKiEEEvS2_S2_Pfiiii, address: 2232032
	->Name: _Z13mul_mat_vec_qILi1ELi256ELi8E11block_iq3_sLi1EXadL_ZL18vec_dot_iq3_s_q8_1PKvPK10block_q8_1RKiEEEvS2_S2_Pfiiii, address: 2166496, vaddr: 65536
Name: _ZL166__device_stub__Z13mul_mat_vec_qILi2ELi256ELi8E11block_iq3_sLi1EXadL_ZN37_INTERNAL_27df5045_7_mmvq_cu_c427077e18vec_dot_iq3_s_q8_1EPKvPK10block_q8_1RKiEEEvS3_S3_PfiiiiPKvS0_Pfiiii, address: 2156048
	->Name: _ZL166__device_stub__Z13mul_mat_vec_qILi2ELi256ELi8E11block_iq3_sLi1EXadL_ZN37_INTERNAL_27df5045_7_mmvq_cu_c427077e18vec_dot_iq3_s_q8_1EPKvPK10block_q8_1RKiEEEvS3_S3_PfiiiiPKvS0_Pfiiii, address: 2090512, vaddr: 65536
Name: _Z13mul_mat_vec_qILi2ELi256ELi8E11block_iq3_sLi1EXadL_ZL18vec_dot_iq3_s_q8_1PKvPK10block_q8_1RKiEEEvS2_S2_Pfiiii, address: 2232352
	->Name: _Z13mul_mat_vec_qILi2ELi256ELi8E11block_iq3_sLi1EXadL_ZL18vec_dot_iq3_s_q8_1PKvPK10block_q8_1RKiEEEvS2_S2_Pfiiii, address: 2166816, vaddr: 65536
Name: _ZL166__device_stub__Z13mul_mat_vec_qILi3ELi256ELi8E11block_iq3_sLi1EXadL_ZN37_INTERNAL_27df5045_7_mmvq_cu_c427077e18vec_dot_iq3_s_q8_1EPKvPK10block_q8_1RKiEEEvS3_S3_PfiiiiPKvS0_Pfiiii, address: 2156368
	->Name: _ZL166__device_stub__Z13mul_mat_vec_qILi3ELi256ELi8E11block_iq3_sLi1EXadL_ZN37_INTERNAL_27df5045_7_mmvq_cu_c427077e18vec_dot_iq3_s_q8_1EPKvPK10block_q8_1RKiEEEvS3_S3_PfiiiiPKvS0_Pfiiii, address: 2090832, vaddr: 65536
Name: _Z13mul_mat_vec_qILi3ELi256ELi8E11block_iq3_sLi1EXadL_ZL18vec_dot_iq3_s_q8_1PKvPK10block_q8_1RKiEEEvS2_S2_Pfiiii, address: 2232672
	->Name: _Z13mul_mat_vec_qILi3ELi256ELi8E11block_iq3_sLi1EXadL_ZL18vec_dot_iq3_s_q8_1PKvPK10block_q8_1RKiEEEvS2_S2_Pfiiii, address: 2167136, vaddr: 65536
Name: _ZL166__device_stub__Z13mul_mat_vec_qILi4ELi256ELi8E11block_iq3_sLi1EXadL_ZN37_INTERNAL_27df5045_7_mmvq_cu_c427077e18vec_dot_iq3_s_q8_1EPKvPK10block_q8_1RKiEEEvS3_S3_PfiiiiPKvS0_Pfiiii, address: 2156688
	->Name: _ZL166__device_stub__Z13mul_mat_vec_qILi4ELi256ELi8E11block_iq3_sLi1EXadL_ZN37_INTERNAL_27df5045_7_mmvq_cu_c427077e18vec_dot_iq3_s_q8_1EPKvPK10block_q8_1RKiEEEvS3_S3_PfiiiiPKvS0_Pfiiii, address: 2091152, vaddr: 65536
Name: _Z13mul_mat_vec_qILi4ELi256ELi8E11block_iq3_sLi1EXadL_ZL18vec_dot_iq3_s_q8_1PKvPK10block_q8_1RKiEEEvS2_S2_Pfiiii, address: 2232992
	->Name: _Z13mul_mat_vec_qILi4ELi256ELi8E11block_iq3_sLi1EXadL_ZL18vec_dot_iq3_s_q8_1PKvPK10block_q8_1RKiEEEvS2_S2_Pfiiii, address: 2167456, vaddr: 65536
Name: _ZL166__device_stub__Z13mul_mat_vec_qILi5ELi256ELi8E11block_iq3_sLi1EXadL_ZN37_INTERNAL_27df5045_7_mmvq_cu_c427077e18vec_dot_iq3_s_q8_1EPKvPK10block_q8_1RKiEEEvS3_S3_PfiiiiPKvS0_Pfiiii, address: 2157008
	->Name: _ZL166__device_stub__Z13mul_mat_vec_qILi5ELi256ELi8E11block_iq3_sLi1EXadL_ZN37_INTERNAL_27df5045_7_mmvq_cu_c427077e18vec_dot_iq3_s_q8_1EPKvPK10block_q8_1RKiEEEvS3_S3_PfiiiiPKvS0_Pfiiii, address: 2091472, vaddr: 65536
Name: _Z13mul_mat_vec_qILi5ELi256ELi8E11block_iq3_sLi1EXadL_ZL18vec_dot_iq3_s_q8_1PKvPK10block_q8_1RKiEEEvS2_S2_Pfiiii, address: 2233312
	->Name: _Z13mul_mat_vec_qILi5ELi256ELi8E11block_iq3_sLi1EXadL_ZL18vec_dot_iq3_s_q8_1PKvPK10block_q8_1RKiEEEvS2_S2_Pfiiii, address: 2167776, vaddr: 65536
Name: _ZL166__device_stub__Z13mul_mat_vec_qILi6ELi256ELi8E11block_iq3_sLi1EXadL_ZN37_INTERNAL_27df5045_7_mmvq_cu_c427077e18vec_dot_iq3_s_q8_1EPKvPK10block_q8_1RKiEEEvS3_S3_PfiiiiPKvS0_Pfiiii, address: 2157328
	->Name: _ZL166__device_stub__Z13mul_mat_vec_qILi6ELi256ELi8E11block_iq3_sLi1EXadL_ZN37_INTERNAL_27df5045_7_mmvq_cu_c427077e18vec_dot_iq3_s_q8_1EPKvPK10block_q8_1RKiEEEvS3_S3_PfiiiiPKvS0_Pfiiii, address: 2091792, vaddr: 65536
Name: _Z13mul_mat_vec_qILi6ELi256ELi8E11block_iq3_sLi1EXadL_ZL18vec_dot_iq3_s_q8_1PKvPK10block_q8_1RKiEEEvS2_S2_Pfiiii, address: 2233632
	->Name: _Z13mul_mat_vec_qILi6ELi256ELi8E11block_iq3_sLi1EXadL_ZL18vec_dot_iq3_s_q8_1PKvPK10block_q8_1RKiEEEvS2_S2_Pfiiii, address: 2168096, vaddr: 65536
Name: _ZL166__device_stub__Z13mul_mat_vec_qILi7ELi256ELi8E11block_iq3_sLi1EXadL_ZN37_INTERNAL_27df5045_7_mmvq_cu_c427077e18vec_dot_iq3_s_q8_1EPKvPK10block_q8_1RKiEEEvS3_S3_PfiiiiPKvS0_Pfiiii, address: 2157648
	->Name: _ZL166__device_stub__Z13mul_mat_vec_qILi7ELi256ELi8E11block_iq3_sLi1EXadL_ZN37_INTERNAL_27df5045_7_mmvq_cu_c427077e18vec_dot_iq3_s_q8_1EPKvPK10block_q8_1RKiEEEvS3_S3_PfiiiiPKvS0_Pfiiii, address: 2092112, vaddr: 65536
Name: _Z13mul_mat_vec_qILi7ELi256ELi8E11block_iq3_sLi1EXadL_ZL18vec_dot_iq3_s_q8_1PKvPK10block_q8_1RKiEEEvS2_S2_Pfiiii, address: 2233952
	->Name: _Z13mul_mat_vec_qILi7ELi256ELi8E11block_iq3_sLi1EXadL_ZL18vec_dot_iq3_s_q8_1PKvPK10block_q8_1RKiEEEvS2_S2_Pfiiii, address: 2168416, vaddr: 65536
Name: _Z18mul_mat_vec_q_cudaILi32ELi4E10block_q4_0Li2EXadL_ZL17vec_dot_q4_0_q8_1PKvPK10block_q8_1RKiEEEvS2_S2_PfiiiiiP11CUstream_st, address: 2157968
	->Name: _Z18mul_mat_vec_q_cudaILi32ELi4E10block_q4_0Li2EXadL_ZL17vec_dot_q4_0_q8_1PKvPK10block_q8_1RKiEEEvS2_S2_PfiiiiiP11CUstream_st, address: 2092432, vaddr: 65536
Name: _Z13mul_mat_vec_qILi7ELi32ELi4E10block_q4_0Li2EXadL_ZL17vec_dot_q4_0_q8_1PKvPK10block_q8_1RKiEEEvS2_S2_Pfiiii, address: 2187872
	->Name: _Z13mul_mat_vec_qILi7ELi32ELi4E10block_q4_0Li2EXadL_ZL17vec_dot_q4_0_q8_1PKvPK10block_q8_1RKiEEEvS2_S2_Pfiiii, address: 2122336, vaddr: 65536
Name: _Z13mul_mat_vec_qILi6ELi32ELi4E10block_q4_0Li2EXadL_ZL17vec_dot_q4_0_q8_1PKvPK10block_q8_1RKiEEEvS2_S2_Pfiiii, address: 2187552
	->Name: _Z13mul_mat_vec_qILi6ELi32ELi4E10block_q4_0Li2EXadL_ZL17vec_dot_q4_0_q8_1PKvPK10block_q8_1RKiEEEvS2_S2_Pfiiii, address: 2122016, vaddr: 65536
Name: _Z13mul_mat_vec_qILi5ELi32ELi4E10block_q4_0Li2EXadL_ZL17vec_dot_q4_0_q8_1PKvPK10block_q8_1RKiEEEvS2_S2_Pfiiii, address: 2187232
	->Name: _Z13mul_mat_vec_qILi5ELi32ELi4E10block_q4_0Li2EXadL_ZL17vec_dot_q4_0_q8_1PKvPK10block_q8_1RKiEEEvS2_S2_Pfiiii, address: 2121696, vaddr: 65536
Name: _Z13mul_mat_vec_qILi4ELi32ELi4E10block_q4_0Li2EXadL_ZL17vec_dot_q4_0_q8_1PKvPK10block_q8_1RKiEEEvS2_S2_Pfiiii, address: 2186912
	->Name: _Z13mul_mat_vec_qILi4ELi32ELi4E10block_q4_0Li2EXadL_ZL17vec_dot_q4_0_q8_1PKvPK10block_q8_1RKiEEEvS2_S2_Pfiiii, address: 2121376, vaddr: 65536
Name: _Z13mul_mat_vec_qILi3ELi32ELi4E10block_q4_0Li2EXadL_ZL17vec_dot_q4_0_q8_1PKvPK10block_q8_1RKiEEEvS2_S2_Pfiiii, address: 2186592
	->Name: _Z13mul_mat_vec_qILi3ELi32ELi4E10block_q4_0Li2EXadL_ZL17vec_dot_q4_0_q8_1PKvPK10block_q8_1RKiEEEvS2_S2_Pfiiii, address: 2121056, vaddr: 65536
Name: _Z13mul_mat_vec_qILi2ELi32ELi4E10block_q4_0Li2EXadL_ZL17vec_dot_q4_0_q8_1PKvPK10block_q8_1RKiEEEvS2_S2_Pfiiii, address: 2186272
	->Name: _Z13mul_mat_vec_qILi2ELi32ELi4E10block_q4_0Li2EXadL_ZL17vec_dot_q4_0_q8_1PKvPK10block_q8_1RKiEEEvS2_S2_Pfiiii, address: 2120736, vaddr: 65536
Name: _Z13mul_mat_vec_qILi1ELi32ELi4E10block_q4_0Li2EXadL_ZL17vec_dot_q4_0_q8_1PKvPK10block_q8_1RKiEEEvS2_S2_Pfiiii, address: 2185952
	->Name: _Z13mul_mat_vec_qILi1ELi32ELi4E10block_q4_0Li2EXadL_ZL17vec_dot_q4_0_q8_1PKvPK10block_q8_1RKiEEEvS2_S2_Pfiiii, address: 2120416, vaddr: 65536
Name: _Z13mul_mat_vec_qILi8ELi32ELi4E10block_q4_0Li2EXadL_ZL17vec_dot_q4_0_q8_1PKvPK10block_q8_1RKiEEEvS2_S2_Pfiiii, address: 2188192
	->Name: _Z13mul_mat_vec_qILi8ELi32ELi4E10block_q4_0Li2EXadL_ZL17vec_dot_q4_0_q8_1PKvPK10block_q8_1RKiEEEvS2_S2_Pfiiii, address: 2122656, vaddr: 65536
Name: _Z18mul_mat_vec_q_cudaILi32ELi4E10block_q4_1Li2EXadL_ZL17vec_dot_q4_1_q8_1PKvPK10block_q8_1RKiEEEvS2_S2_PfiiiiiP11CUstream_st, address: 2161424
	->Name: _Z18mul_mat_vec_q_cudaILi32ELi4E10block_q4_1Li2EXadL_ZL17vec_dot_q4_1_q8_1PKvPK10block_q8_1RKiEEEvS2_S2_PfiiiiiP11CUstream_st, address: 2095888, vaddr: 65536
Name: _Z13mul_mat_vec_qILi7ELi32ELi4E10block_q4_1Li2EXadL_ZL17vec_dot_q4_1_q8_1PKvPK10block_q8_1RKiEEEvS2_S2_Pfiiii, address: 2190432
	->Name: _Z13mul_mat_vec_qILi7ELi32ELi4E10block_q4_1Li2EXadL_ZL17vec_dot_q4_1_q8_1PKvPK10block_q8_1RKiEEEvS2_S2_Pfiiii, address: 2124896, vaddr: 65536
Name: _Z13mul_mat_vec_qILi6ELi32ELi4E10block_q4_1Li2EXadL_ZL17vec_dot_q4_1_q8_1PKvPK10block_q8_1RKiEEEvS2_S2_Pfiiii, address: 2190112
	->Name: _Z13mul_mat_vec_qILi6ELi32ELi4E10block_q4_1Li2EXadL_ZL17vec_dot_q4_1_q8_1PKvPK10block_q8_1RKiEEEvS2_S2_Pfiiii, address: 2124576, vaddr: 65536
Name: _Z13mul_mat_vec_qILi5ELi32ELi4E10block_q4_1Li2EXadL_ZL17vec_dot_q4_1_q8_1PKvPK10block_q8_1RKiEEEvS2_S2_Pfiiii, address: 2189792
	->Name: _Z13mul_mat_vec_qILi5ELi32ELi4E10block_q4_1Li2EXadL_ZL17vec_dot_q4_1_q8_1PKvPK10block_q8_1RKiEEEvS2_S2_Pfiiii, address: 2124256, vaddr: 65536
Name: _Z13mul_mat_vec_qILi4ELi32ELi4E10block_q4_1Li2EXadL_ZL17vec_dot_q4_1_q8_1PKvPK10block_q8_1RKiEEEvS2_S2_Pfiiii, address: 2189472
	->Name: _Z13mul_mat_vec_qILi4ELi32ELi4E10block_q4_1Li2EXadL_ZL17vec_dot_q4_1_q8_1PKvPK10block_q8_1RKiEEEvS2_S2_Pfiiii, address: 2123936, vaddr: 65536
Name: _Z13mul_mat_vec_qILi3ELi32ELi4E10block_q4_1Li2EXadL_ZL17vec_dot_q4_1_q8_1PKvPK10block_q8_1RKiEEEvS2_S2_Pfiiii, address: 2189152
	->Name: _Z13mul_mat_vec_qILi3ELi32ELi4E10block_q4_1Li2EXadL_ZL17vec_dot_q4_1_q8_1PKvPK10block_q8_1RKiEEEvS2_S2_Pfiiii, address: 2123616, vaddr: 65536
Name: _Z13mul_mat_vec_qILi2ELi32ELi4E10block_q4_1Li2EXadL_ZL17vec_dot_q4_1_q8_1PKvPK10block_q8_1RKiEEEvS2_S2_Pfiiii, address: 2188832
	->Name: _Z13mul_mat_vec_qILi2ELi32ELi4E10block_q4_1Li2EXadL_ZL17vec_dot_q4_1_q8_1PKvPK10block_q8_1RKiEEEvS2_S2_Pfiiii, address: 2123296, vaddr: 65536
Name: _Z13mul_mat_vec_qILi1ELi32ELi4E10block_q4_1Li2EXadL_ZL17vec_dot_q4_1_q8_1PKvPK10block_q8_1RKiEEEvS2_S2_Pfiiii, address: 2188512
	->Name: _Z13mul_mat_vec_qILi1ELi32ELi4E10block_q4_1Li2EXadL_ZL17vec_dot_q4_1_q8_1PKvPK10block_q8_1RKiEEEvS2_S2_Pfiiii, address: 2122976, vaddr: 65536
Name: _Z13mul_mat_vec_qILi8ELi32ELi4E10block_q4_1Li2EXadL_ZL17vec_dot_q4_1_q8_1PKvPK10block_q8_1RKiEEEvS2_S2_Pfiiii, address: 2190752
	->Name: _Z13mul_mat_vec_qILi8ELi32ELi4E10block_q4_1Li2EXadL_ZL17vec_dot_q4_1_q8_1PKvPK10block_q8_1RKiEEEvS2_S2_Pfiiii, address: 2125216, vaddr: 65536
Name: _Z18mul_mat_vec_q_cudaILi32ELi4E10block_q5_0Li2EXadL_ZL17vec_dot_q5_0_q8_1PKvPK10block_q8_1RKiEEEvS2_S2_PfiiiiiP11CUstream_st, address: 2164880
	->Name: _Z18mul_mat_vec_q_cudaILi32ELi4E10block_q5_0Li2EXadL_ZL17vec_dot_q5_0_q8_1PKvPK10block_q8_1RKiEEEvS2_S2_PfiiiiiP11CUstream_st, address: 2099344, vaddr: 65536
Name: _Z13mul_mat_vec_qILi7ELi32ELi4E10block_q5_0Li2EXadL_ZL17vec_dot_q5_0_q8_1PKvPK10block_q8_1RKiEEEvS2_S2_Pfiiii, address: 2192992
	->Name: _Z13mul_mat_vec_qILi7ELi32ELi4E10block_q5_0Li2EXadL_ZL17vec_dot_q5_0_q8_1PKvPK10block_q8_1RKiEEEvS2_S2_Pfiiii, address: 2127456, vaddr: 65536
Name: _Z13mul_mat_vec_qILi6ELi32ELi4E10block_q5_0Li2EXadL_ZL17vec_dot_q5_0_q8_1PKvPK10block_q8_1RKiEEEvS2_S2_Pfiiii, address: 2192672
	->Name: _Z13mul_mat_vec_qILi6ELi32ELi4E10block_q5_0Li2EXadL_ZL17vec_dot_q5_0_q8_1PKvPK10block_q8_1RKiEEEvS2_S2_Pfiiii, address: 2127136, vaddr: 65536
Name: _Z13mul_mat_vec_qILi5ELi32ELi4E10block_q5_0Li2EXadL_ZL17vec_dot_q5_0_q8_1PKvPK10block_q8_1RKiEEEvS2_S2_Pfiiii, address: 2192352
	->Name: _Z13mul_mat_vec_qILi5ELi32ELi4E10block_q5_0Li2EXadL_ZL17vec_dot_q5_0_q8_1PKvPK10block_q8_1RKiEEEvS2_S2_Pfiiii, address: 2126816, vaddr: 65536
Name: _Z13mul_mat_vec_qILi4ELi32ELi4E10block_q5_0Li2EXadL_ZL17vec_dot_q5_0_q8_1PKvPK10block_q8_1RKiEEEvS2_S2_Pfiiii, address: 2192032
	->Name: _Z13mul_mat_vec_qILi4ELi32ELi4E10block_q5_0Li2EXadL_ZL17vec_dot_q5_0_q8_1PKvPK10block_q8_1RKiEEEvS2_S2_Pfiiii, address: 2126496, vaddr: 65536
Name: _Z13mul_mat_vec_qILi3ELi32ELi4E10block_q5_0Li2EXadL_ZL17vec_dot_q5_0_q8_1PKvPK10block_q8_1RKiEEEvS2_S2_Pfiiii, address: 2191712
	->Name: _Z13mul_mat_vec_qILi3ELi32ELi4E10block_q5_0Li2EXadL_ZL17vec_dot_q5_0_q8_1PKvPK10block_q8_1RKiEEEvS2_S2_Pfiiii, address: 2126176, vaddr: 65536
Name: _Z13mul_mat_vec_qILi2ELi32ELi4E10block_q5_0Li2EXadL_ZL17vec_dot_q5_0_q8_1PKvPK10block_q8_1RKiEEEvS2_S2_Pfiiii, address: 2191392
	->Name: _Z13mul_mat_vec_qILi2ELi32ELi4E10block_q5_0Li2EXadL_ZL17vec_dot_q5_0_q8_1PKvPK10block_q8_1RKiEEEvS2_S2_Pfiiii, address: 2125856, vaddr: 65536
Name: _Z13mul_mat_vec_qILi1ELi32ELi4E10block_q5_0Li2EXadL_ZL17vec_dot_q5_0_q8_1PKvPK10block_q8_1RKiEEEvS2_S2_Pfiiii, address: 2191072
	->Name: _Z13mul_mat_vec_qILi1ELi32ELi4E10block_q5_0Li2EXadL_ZL17vec_dot_q5_0_q8_1PKvPK10block_q8_1RKiEEEvS2_S2_Pfiiii, address: 2125536, vaddr: 65536
Name: _Z13mul_mat_vec_qILi8ELi32ELi4E10block_q5_0Li2EXadL_ZL17vec_dot_q5_0_q8_1PKvPK10block_q8_1RKiEEEvS2_S2_Pfiiii, address: 2193312
	->Name: _Z13mul_mat_vec_qILi8ELi32ELi4E10block_q5_0Li2EXadL_ZL17vec_dot_q5_0_q8_1PKvPK10block_q8_1RKiEEEvS2_S2_Pfiiii, address: 2127776, vaddr: 65536
Name: _Z18mul_mat_vec_q_cudaILi32ELi4E10block_q5_1Li2EXadL_ZL17vec_dot_q5_1_q8_1PKvPK10block_q8_1RKiEEEvS2_S2_PfiiiiiP11CUstream_st, address: 2168336
	->Name: _Z18mul_mat_vec_q_cudaILi32ELi4E10block_q5_1Li2EXadL_ZL17vec_dot_q5_1_q8_1PKvPK10block_q8_1RKiEEEvS2_S2_PfiiiiiP11CUstream_st, address: 2102800, vaddr: 65536
Name: _Z13mul_mat_vec_qILi7ELi32ELi4E10block_q5_1Li2EXadL_ZL17vec_dot_q5_1_q8_1PKvPK10block_q8_1RKiEEEvS2_S2_Pfiiii, address: 2195552
	->Name: _Z13mul_mat_vec_qILi7ELi32ELi4E10block_q5_1Li2EXadL_ZL17vec_dot_q5_1_q8_1PKvPK10block_q8_1RKiEEEvS2_S2_Pfiiii, address: 2130016, vaddr: 65536
Name: _Z13mul_mat_vec_qILi6ELi32ELi4E10block_q5_1Li2EXadL_ZL17vec_dot_q5_1_q8_1PKvPK10block_q8_1RKiEEEvS2_S2_Pfiiii, address: 2195232
	->Name: _Z13mul_mat_vec_qILi6ELi32ELi4E10block_q5_1Li2EXadL_ZL17vec_dot_q5_1_q8_1PKvPK10block_q8_1RKiEEEvS2_S2_Pfiiii, address: 2129696, vaddr: 65536
Name: _Z13mul_mat_vec_qILi5ELi32ELi4E10block_q5_1Li2EXadL_ZL17vec_dot_q5_1_q8_1PKvPK10block_q8_1RKiEEEvS2_S2_Pfiiii, address: 2194912
	->Name: _Z13mul_mat_vec_qILi5ELi32ELi4E10block_q5_1Li2EXadL_ZL17vec_dot_q5_1_q8_1PKvPK10block_q8_1RKiEEEvS2_S2_Pfiiii, address: 2129376, vaddr: 65536
Name: _Z13mul_mat_vec_qILi4ELi32ELi4E10block_q5_1Li2EXadL_ZL17vec_dot_q5_1_q8_1PKvPK10block_q8_1RKiEEEvS2_S2_Pfiiii, address: 2194592
	->Name: _Z13mul_mat_vec_qILi4ELi32ELi4E10block_q5_1Li2EXadL_ZL17vec_dot_q5_1_q8_1PKvPK10block_q8_1RKiEEEvS2_S2_Pfiiii, address: 2129056, vaddr: 65536
Name: _Z13mul_mat_vec_qILi3ELi32ELi4E10block_q5_1Li2EXadL_ZL17vec_dot_q5_1_q8_1PKvPK10block_q8_1RKiEEEvS2_S2_Pfiiii, address: 2194272
	->Name: _Z13mul_mat_vec_qILi3ELi32ELi4E10block_q5_1Li2EXadL_ZL17vec_dot_q5_1_q8_1PKvPK10block_q8_1RKiEEEvS2_S2_Pfiiii, address: 2128736, vaddr: 65536
Name: _Z13mul_mat_vec_qILi2ELi32ELi4E10block_q5_1Li2EXadL_ZL17vec_dot_q5_1_q8_1PKvPK10block_q8_1RKiEEEvS2_S2_Pfiiii, address: 2193952
	->Name: _Z13mul_mat_vec_qILi2ELi32ELi4E10block_q5_1Li2EXadL_ZL17vec_dot_q5_1_q8_1PKvPK10block_q8_1RKiEEEvS2_S2_Pfiiii, address: 2128416, vaddr: 65536
Name: _Z13mul_mat_vec_qILi1ELi32ELi4E10block_q5_1Li2EXadL_ZL17vec_dot_q5_1_q8_1PKvPK10block_q8_1RKiEEEvS2_S2_Pfiiii, address: 2193632
	->Name: _Z13mul_mat_vec_qILi1ELi32ELi4E10block_q5_1Li2EXadL_ZL17vec_dot_q5_1_q8_1PKvPK10block_q8_1RKiEEEvS2_S2_Pfiiii, address: 2128096, vaddr: 65536
Name: _Z13mul_mat_vec_qILi8ELi32ELi4E10block_q5_1Li2EXadL_ZL17vec_dot_q5_1_q8_1PKvPK10block_q8_1RKiEEEvS2_S2_Pfiiii, address: 2195872
	->Name: _Z13mul_mat_vec_qILi8ELi32ELi4E10block_q5_1Li2EXadL_ZL17vec_dot_q5_1_q8_1PKvPK10block_q8_1RKiEEEvS2_S2_Pfiiii, address: 2130336, vaddr: 65536
Name: _Z18mul_mat_vec_q_cudaILi32ELi8E10block_q8_0Li2EXadL_ZL17vec_dot_q8_0_q8_1PKvPK10block_q8_1RKiEEEvS2_S2_PfiiiiiP11CUstream_st, address: 2171792
	->Name: _Z18mul_mat_vec_q_cudaILi32ELi8E10block_q8_0Li2EXadL_ZL17vec_dot_q8_0_q8_1PKvPK10block_q8_1RKiEEEvS2_S2_PfiiiiiP11CUstream_st, address: 2106256, vaddr: 65536
Name: _Z13mul_mat_vec_qILi7ELi32ELi8E10block_q8_0Li2EXadL_ZL17vec_dot_q8_0_q8_1PKvPK10block_q8_1RKiEEEvS2_S2_Pfiiii, address: 2198112
	->Name: _Z13mul_mat_vec_qILi7ELi32ELi8E10block_q8_0Li2EXadL_ZL17vec_dot_q8_0_q8_1PKvPK10block_q8_1RKiEEEvS2_S2_Pfiiii, address: 2132576, vaddr: 65536
Name: _Z13mul_mat_vec_qILi6ELi32ELi8E10block_q8_0Li2EXadL_ZL17vec_dot_q8_0_q8_1PKvPK10block_q8_1RKiEEEvS2_S2_Pfiiii, address: 2197792
	->Name: _Z13mul_mat_vec_qILi6ELi32ELi8E10block_q8_0Li2EXadL_ZL17vec_dot_q8_0_q8_1PKvPK10block_q8_1RKiEEEvS2_S2_Pfiiii, address: 2132256, vaddr: 65536
Name: _Z13mul_mat_vec_qILi5ELi32ELi8E10block_q8_0Li2EXadL_ZL17vec_dot_q8_0_q8_1PKvPK10block_q8_1RKiEEEvS2_S2_Pfiiii, address: 2197472
	->Name: _Z13mul_mat_vec_qILi5ELi32ELi8E10block_q8_0Li2EXadL_ZL17vec_dot_q8_0_q8_1PKvPK10block_q8_1RKiEEEvS2_S2_Pfiiii, address: 2131936, vaddr: 65536
Name: _Z13mul_mat_vec_qILi4ELi32ELi8E10block_q8_0Li2EXadL_ZL17vec_dot_q8_0_q8_1PKvPK10block_q8_1RKiEEEvS2_S2_Pfiiii, address: 2197152
	->Name: _Z13mul_mat_vec_qILi4ELi32ELi8E10block_q8_0Li2EXadL_ZL17vec_dot_q8_0_q8_1PKvPK10block_q8_1RKiEEEvS2_S2_Pfiiii, address: 2131616, vaddr: 65536
Name: _Z13mul_mat_vec_qILi3ELi32ELi8E10block_q8_0Li2EXadL_ZL17vec_dot_q8_0_q8_1PKvPK10block_q8_1RKiEEEvS2_S2_Pfiiii, address: 2196832
	->Name: _Z13mul_mat_vec_qILi3ELi32ELi8E10block_q8_0Li2EXadL_ZL17vec_dot_q8_0_q8_1PKvPK10block_q8_1RKiEEEvS2_S2_Pfiiii, address: 2131296, vaddr: 65536
Name: _Z13mul_mat_vec_qILi2ELi32ELi8E10block_q8_0Li2EXadL_ZL17vec_dot_q8_0_q8_1PKvPK10block_q8_1RKiEEEvS2_S2_Pfiiii, address: 2196512
	->Name: _Z13mul_mat_vec_qILi2ELi32ELi8E10block_q8_0Li2EXadL_ZL17vec_dot_q8_0_q8_1PKvPK10block_q8_1RKiEEEvS2_S2_Pfiiii, address: 2130976, vaddr: 65536
Name: _Z13mul_mat_vec_qILi1ELi32ELi8E10block_q8_0Li2EXadL_ZL17vec_dot_q8_0_q8_1PKvPK10block_q8_1RKiEEEvS2_S2_Pfiiii, address: 2196192
	->Name: _Z13mul_mat_vec_qILi1ELi32ELi8E10block_q8_0Li2EXadL_ZL17vec_dot_q8_0_q8_1PKvPK10block_q8_1RKiEEEvS2_S2_Pfiiii, address: 2130656, vaddr: 65536
Name: _Z13mul_mat_vec_qILi8ELi32ELi8E10block_q8_0Li2EXadL_ZL17vec_dot_q8_0_q8_1PKvPK10block_q8_1RKiEEEvS2_S2_Pfiiii, address: 2198432
	->Name: _Z13mul_mat_vec_qILi8ELi32ELi8E10block_q8_0Li2EXadL_ZL17vec_dot_q8_0_q8_1PKvPK10block_q8_1RKiEEEvS2_S2_Pfiiii, address: 2132896, vaddr: 65536
Name: _Z18mul_mat_vec_q_cudaILi256ELi16E10block_q2_KLi1EXadL_ZL17vec_dot_q2_K_q8_1PKvPK10block_q8_1RKiEEEvS2_S2_PfiiiiiP11CUstream_st, address: 2175248
	->Name: _Z18mul_mat_vec_q_cudaILi256ELi16E10block_q2_KLi1EXadL_ZL17vec_dot_q2_K_q8_1PKvPK10block_q8_1RKiEEEvS2_S2_PfiiiiiP11CUstream_st, address: 2109712, vaddr: 65536
Name: _Z13mul_mat_vec_qILi7ELi256ELi16E10block_q2_KLi1EXadL_ZL17vec_dot_q2_K_q8_1PKvPK10block_q8_1RKiEEEvS2_S2_Pfiiii, address: 2200672
	->Name: _Z13mul_mat_vec_qILi7ELi256ELi16E10block_q2_KLi1EXadL_ZL17vec_dot_q2_K_q8_1PKvPK10block_q8_1RKiEEEvS2_S2_Pfiiii, address: 2135136, vaddr: 65536
Name: _Z13mul_mat_vec_qILi6ELi256ELi16E10block_q2_KLi1EXadL_ZL17vec_dot_q2_K_q8_1PKvPK10block_q8_1RKiEEEvS2_S2_Pfiiii, address: 2200352
	->Name: _Z13mul_mat_vec_qILi6ELi256ELi16E10block_q2_KLi1EXadL_ZL17vec_dot_q2_K_q8_1PKvPK10block_q8_1RKiEEEvS2_S2_Pfiiii, address: 2134816, vaddr: 65536
Name: _Z13mul_mat_vec_qILi5ELi256ELi16E10block_q2_KLi1EXadL_ZL17vec_dot_q2_K_q8_1PKvPK10block_q8_1RKiEEEvS2_S2_Pfiiii, address: 2200032
	->Name: _Z13mul_mat_vec_qILi5ELi256ELi16E10block_q2_KLi1EXadL_ZL17vec_dot_q2_K_q8_1PKvPK10block_q8_1RKiEEEvS2_S2_Pfiiii, address: 2134496, vaddr: 65536
Name: _Z13mul_mat_vec_qILi4ELi256ELi16E10block_q2_KLi1EXadL_ZL17vec_dot_q2_K_q8_1PKvPK10block_q8_1RKiEEEvS2_S2_Pfiiii, address: 2199712
	->Name: _Z13mul_mat_vec_qILi4ELi256ELi16E10block_q2_KLi1EXadL_ZL17vec_dot_q2_K_q8_1PKvPK10block_q8_1RKiEEEvS2_S2_Pfiiii, address: 2134176, vaddr: 65536
Name: _Z13mul_mat_vec_qILi3ELi256ELi16E10block_q2_KLi1EXadL_ZL17vec_dot_q2_K_q8_1PKvPK10block_q8_1RKiEEEvS2_S2_Pfiiii, address: 2199392
	->Name: _Z13mul_mat_vec_qILi3ELi256ELi16E10block_q2_KLi1EXadL_ZL17vec_dot_q2_K_q8_1PKvPK10block_q8_1RKiEEEvS2_S2_Pfiiii, address: 2133856, vaddr: 65536
Name: _Z13mul_mat_vec_qILi2ELi256ELi16E10block_q2_KLi1EXadL_ZL17vec_dot_q2_K_q8_1PKvPK10block_q8_1RKiEEEvS2_S2_Pfiiii, address: 2199072
	->Name: _Z13mul_mat_vec_qILi2ELi256ELi16E10block_q2_KLi1EXadL_ZL17vec_dot_q2_K_q8_1PKvPK10block_q8_1RKiEEEvS2_S2_Pfiiii, address: 2133536, vaddr: 65536
Name: _Z13mul_mat_vec_qILi1ELi256ELi16E10block_q2_KLi1EXadL_ZL17vec_dot_q2_K_q8_1PKvPK10block_q8_1RKiEEEvS2_S2_Pfiiii, address: 2198752
	->Name: _Z13mul_mat_vec_qILi1ELi256ELi16E10block_q2_KLi1EXadL_ZL17vec_dot_q2_K_q8_1PKvPK10block_q8_1RKiEEEvS2_S2_Pfiiii, address: 2133216, vaddr: 65536
Name: _Z13mul_mat_vec_qILi8ELi256ELi16E10block_q2_KLi1EXadL_ZL17vec_dot_q2_K_q8_1PKvPK10block_q8_1RKiEEEvS2_S2_Pfiiii, address: 2200992
	->Name: _Z13mul_mat_vec_qILi8ELi256ELi16E10block_q2_KLi1EXadL_ZL17vec_dot_q2_K_q8_1PKvPK10block_q8_1RKiEEEvS2_S2_Pfiiii, address: 2135456, vaddr: 65536
Name: _Z18mul_mat_vec_q_cudaILi256ELi16E10block_q3_KLi1EXadL_ZL17vec_dot_q3_K_q8_1PKvPK10block_q8_1RKiEEEvS2_S2_PfiiiiiP11CUstream_st, address: 2178704
	->Name: _Z18mul_mat_vec_q_cudaILi256ELi16E10block_q3_KLi1EXadL_ZL17vec_dot_q3_K_q8_1PKvPK10block_q8_1RKiEEEvS2_S2_PfiiiiiP11CUstream_st, address: 2113168, vaddr: 65536
Name: _Z13mul_mat_vec_qILi7ELi256ELi16E10block_q3_KLi1EXadL_ZL17vec_dot_q3_K_q8_1PKvPK10block_q8_1RKiEEEvS2_S2_Pfiiii, address: 2203232
	->Name: _Z13mul_mat_vec_qILi7ELi256ELi16E10block_q3_KLi1EXadL_ZL17vec_dot_q3_K_q8_1PKvPK10block_q8_1RKiEEEvS2_S2_Pfiiii, address: 2137696, vaddr: 65536
Name: _Z13mul_mat_vec_qILi6ELi256ELi16E10block_q3_KLi1EXadL_ZL17vec_dot_q3_K_q8_1PKvPK10block_q8_1RKiEEEvS2_S2_Pfiiii, address: 2202912
	->Name: _Z13mul_mat_vec_qILi6ELi256ELi16E10block_q3_KLi1EXadL_ZL17vec_dot_q3_K_q8_1PKvPK10block_q8_1RKiEEEvS2_S2_Pfiiii, address: 2137376, vaddr: 65536
Name: _Z13mul_mat_vec_qILi5ELi256ELi16E10block_q3_KLi1EXadL_ZL17vec_dot_q3_K_q8_1PKvPK10block_q8_1RKiEEEvS2_S2_Pfiiii, address: 2202592
	->Name: _Z13mul_mat_vec_qILi5ELi256ELi16E10block_q3_KLi1EXadL_ZL17vec_dot_q3_K_q8_1PKvPK10block_q8_1RKiEEEvS2_S2_Pfiiii, address: 2137056, vaddr: 65536
Name: _Z13mul_mat_vec_qILi4ELi256ELi16E10block_q3_KLi1EXadL_ZL17vec_dot_q3_K_q8_1PKvPK10block_q8_1RKiEEEvS2_S2_Pfiiii, address: 2202272
	->Name: _Z13mul_mat_vec_qILi4ELi256ELi16E10block_q3_KLi1EXadL_ZL17vec_dot_q3_K_q8_1PKvPK10block_q8_1RKiEEEvS2_S2_Pfiiii, address: 2136736, vaddr: 65536
Name: _Z13mul_mat_vec_qILi3ELi256ELi16E10block_q3_KLi1EXadL_ZL17vec_dot_q3_K_q8_1PKvPK10block_q8_1RKiEEEvS2_S2_Pfiiii, address: 2201952
	->Name: _Z13mul_mat_vec_qILi3ELi256ELi16E10block_q3_KLi1EXadL_ZL17vec_dot_q3_K_q8_1PKvPK10block_q8_1RKiEEEvS2_S2_Pfiiii, address: 2136416, vaddr: 65536
Name: _Z13mul_mat_vec_qILi2ELi256ELi16E10block_q3_KLi1EXadL_ZL17vec_dot_q3_K_q8_1PKvPK10block_q8_1RKiEEEvS2_S2_Pfiiii, address: 2201632
	->Name: _Z13mul_mat_vec_qILi2ELi256ELi16E10block_q3_KLi1EXadL_ZL17vec_dot_q3_K_q8_1PKvPK10block_q8_1RKiEEEvS2_S2_Pfiiii, address: 2136096, vaddr: 65536
Name: _Z13mul_mat_vec_qILi1ELi256ELi16E10block_q3_KLi1EXadL_ZL17vec_dot_q3_K_q8_1PKvPK10block_q8_1RKiEEEvS2_S2_Pfiiii, address: 2201312
	->Name: _Z13mul_mat_vec_qILi1ELi256ELi16E10block_q3_KLi1EXadL_ZL17vec_dot_q3_K_q8_1PKvPK10block_q8_1RKiEEEvS2_S2_Pfiiii, address: 2135776, vaddr: 65536
Name: _Z13mul_mat_vec_qILi8ELi256ELi16E10block_q3_KLi1EXadL_ZL17vec_dot_q3_K_q8_1PKvPK10block_q8_1RKiEEEvS2_S2_Pfiiii, address: 2203552
	->Name: _Z13mul_mat_vec_qILi8ELi256ELi16E10block_q3_KLi1EXadL_ZL17vec_dot_q3_K_q8_1PKvPK10block_q8_1RKiEEEvS2_S2_Pfiiii, address: 2138016, vaddr: 65536
Name: _Z18mul_mat_vec_q_cudaILi256ELi32E10block_q4_KLi2EXadL_ZL17vec_dot_q4_K_q8_1PKvPK10block_q8_1RKiEEEvS2_S2_PfiiiiiP11CUstream_st, address: 2182160
	->Name: _Z18mul_mat_vec_q_cudaILi256ELi32E10block_q4_KLi2EXadL_ZL17vec_dot_q4_K_q8_1PKvPK10block_q8_1RKiEEEvS2_S2_PfiiiiiP11CUstream_st, address: 2116624, vaddr: 65536
Name: _Z13mul_mat_vec_qILi7ELi256ELi32E10block_q4_KLi2EXadL_ZL17vec_dot_q4_K_q8_1PKvPK10block_q8_1RKiEEEvS2_S2_Pfiiii, address: 2205792
	->Name: _Z13mul_mat_vec_qILi7ELi256ELi32E10block_q4_KLi2EXadL_ZL17vec_dot_q4_K_q8_1PKvPK10block_q8_1RKiEEEvS2_S2_Pfiiii, address: 2140256, vaddr: 65536
Name: _Z13mul_mat_vec_qILi6ELi256ELi32E10block_q4_KLi2EXadL_ZL17vec_dot_q4_K_q8_1PKvPK10block_q8_1RKiEEEvS2_S2_Pfiiii, address: 2205472
	->Name: _Z13mul_mat_vec_qILi6ELi256ELi32E10block_q4_KLi2EXadL_ZL17vec_dot_q4_K_q8_1PKvPK10block_q8_1RKiEEEvS2_S2_Pfiiii, address: 2139936, vaddr: 65536
Name: _Z13mul_mat_vec_qILi5ELi256ELi32E10block_q4_KLi2EXadL_ZL17vec_dot_q4_K_q8_1PKvPK10block_q8_1RKiEEEvS2_S2_Pfiiii, address: 2205152
	->Name: _Z13mul_mat_vec_qILi5ELi256ELi32E10block_q4_KLi2EXadL_ZL17vec_dot_q4_K_q8_1PKvPK10block_q8_1RKiEEEvS2_S2_Pfiiii, address: 2139616, vaddr: 65536
Name: _Z13mul_mat_vec_qILi4ELi256ELi32E10block_q4_KLi2EXadL_ZL17vec_dot_q4_K_q8_1PKvPK10block_q8_1RKiEEEvS2_S2_Pfiiii, address: 2204832
	->Name: _Z13mul_mat_vec_qILi4ELi256ELi32E10block_q4_KLi2EXadL_ZL17vec_dot_q4_K_q8_1PKvPK10block_q8_1RKiEEEvS2_S2_Pfiiii, address: 2139296, vaddr: 65536
Name: _Z13mul_mat_vec_qILi3ELi256ELi32E10block_q4_KLi2EXadL_ZL17vec_dot_q4_K_q8_1PKvPK10block_q8_1RKiEEEvS2_S2_Pfiiii, address: 2204512
	->Name: _Z13mul_mat_vec_qILi3ELi256ELi32E10block_q4_KLi2EXadL_ZL17vec_dot_q4_K_q8_1PKvPK10block_q8_1RKiEEEvS2_S2_Pfiiii, address: 2138976, vaddr: 65536
Name: _Z13mul_mat_vec_qILi2ELi256ELi32E10block_q4_KLi2EXadL_ZL17vec_dot_q4_K_q8_1PKvPK10block_q8_1RKiEEEvS2_S2_Pfiiii, address: 2204192
	->Name: _Z13mul_mat_vec_qILi2ELi256ELi32E10block_q4_KLi2EXadL_ZL17vec_dot_q4_K_q8_1PKvPK10block_q8_1RKiEEEvS2_S2_Pfiiii, address: 2138656, vaddr: 65536
Name: _Z13mul_mat_vec_qILi1ELi256ELi32E10block_q4_KLi2EXadL_ZL17vec_dot_q4_K_q8_1PKvPK10block_q8_1RKiEEEvS2_S2_Pfiiii, address: 2203872
	->Name: _Z13mul_mat_vec_qILi1ELi256ELi32E10block_q4_KLi2EXadL_ZL17vec_dot_q4_K_q8_1PKvPK10block_q8_1RKiEEEvS2_S2_Pfiiii, address: 2138336, vaddr: 65536
Name: _Z13mul_mat_vec_qILi8ELi256ELi32E10block_q4_KLi2EXadL_ZL17vec_dot_q4_K_q8_1PKvPK10block_q8_1RKiEEEvS2_S2_Pfiiii, address: 2206112
	->Name: _Z13mul_mat_vec_qILi8ELi256ELi32E10block_q4_KLi2EXadL_ZL17vec_dot_q4_K_q8_1PKvPK10block_q8_1RKiEEEvS2_S2_Pfiiii, address: 2140576, vaddr: 65536
Name: _ZL26__cudaUnregisterBinaryUtilv, address: 2185616
	->Name: _ZL26__cudaUnregisterBinaryUtilv, address: 2120080, vaddr: 65536
Name: _Z13mul_mat_vec_qILi8ELi256ELi8E11block_iq3_sLi1EXadL_ZL18vec_dot_iq3_s_q8_1PKvPK10block_q8_1RKiEEEvS2_S2_Pfiiii, address: 2185632
	->Name: _Z13mul_mat_vec_qILi8ELi256ELi8E11block_iq3_sLi1EXadL_ZL18vec_dot_iq3_s_q8_1PKvPK10block_q8_1RKiEEEvS2_S2_Pfiiii, address: 2120096, vaddr: 65536
Name: _ZL24__sti____cudaRegisterAllv, address: 215216
	->Name: _ZL24__sti____cudaRegisterAllv, address: 149680, vaddr: 65536
Name: _ZL26__cudaUnregisterBinaryUtilv, address: 2251568
	->Name: _ZL26__cudaUnregisterBinaryUtilv, address: 2186032, vaddr: 65536
Name: _Z14group_norm_f32ILi1024EEvPKfPfiif, address: 2251584
	->Name: _Z14group_norm_f32ILi1024EEvPKfPfiif, address: 2186048, vaddr: 65536
Name: _Z14group_norm_f32ILi32EEvPKfPfiif, address: 2251856
	->Name: _Z14group_norm_f32ILi32EEvPKfPfiif, address: 2186320, vaddr: 65536
Name: _Z12rms_norm_f32ILi1024EEvPKfPfif, address: 2252128
	->Name: _Z12rms_norm_f32ILi1024EEvPKfPfif, address: 2186592, vaddr: 65536
Name: _Z12rms_norm_f32ILi32EEvPKfPfif, address: 2252384
	->Name: _Z12rms_norm_f32ILi32EEvPKfPfif, address: 2186848, vaddr: 65536
Name: _Z8norm_f32ILi1024EEvPKfPfif, address: 2252640
	->Name: _Z8norm_f32ILi1024EEvPKfPfif, address: 2187104, vaddr: 65536
Name: _Z8norm_f32ILi32EEvPKfPfif, address: 2252896
	->Name: _Z8norm_f32ILi32EEvPKfPfif, address: 2187360, vaddr: 65536
Name: _ZL24__sti____cudaRegisterAllv, address: 222672
	->Name: _ZL24__sti____cudaRegisterAllv, address: 157136, vaddr: 65536
Name: _ZL26__cudaUnregisterBinaryUtilv, address: 2256400
	->Name: _ZL26__cudaUnregisterBinaryUtilv, address: 2190864, vaddr: 65536
Name: _ZL7pad_f32PKfPfiiiii, address: 2256416
	->Name: _ZL7pad_f32PKfPfiiiii, address: 2190880, vaddr: 65536
Name: _ZL24__sti____cudaRegisterAllv, address: 223408
	->Name: _ZL24__sti____cudaRegisterAllv, address: 157872, vaddr: 65536
Name: _ZL26__cudaUnregisterBinaryUtilv, address: 2257520
	->Name: _ZL26__cudaUnregisterBinaryUtilv, address: 2191984, vaddr: 65536
Name: _Z18pool2d_nchw_kernelIffEviiiiiiiiiiiPKT_PT0_12ggml_op_pool, address: 2257536
	->Name: _Z18pool2d_nchw_kernelIffEviiiiiiiiiiiPKT_PT0_12ggml_op_pool, address: 2192000, vaddr: 65536
Name: _ZL24__sti____cudaRegisterAllv, address: 223920
	->Name: _ZL24__sti____cudaRegisterAllv, address: 158384, vaddr: 65536
Name: _ZL26__cudaUnregisterBinaryUtilv, address: 2259072
	->Name: _ZL26__cudaUnregisterBinaryUtilv, address: 2193536, vaddr: 65536
Name: _ZL13quantize_q8_1PKfPvll, address: 2259088
	->Name: _ZL13quantize_q8_1PKfPvll, address: 2193552, vaddr: 65536
Name: _ZL24__sti____cudaRegisterAllv, address: 224432
	->Name: _ZL24__sti____cudaRegisterAllv, address: 158896, vaddr: 65536
Name: _ZL12rope_glm_f32PKfPfiPKififi, address: 2259712
	->Name: _ZL12rope_glm_f32PKfPfiPKififi, address: 2194176, vaddr: 65536
Name: _ZL26__cudaUnregisterBinaryUtilv, address: 2260064
	->Name: _ZL26__cudaUnregisterBinaryUtilv, address: 2194528, vaddr: 65536
Name: _Z9rope_neoxI6__halfLb0EEvPKT_PS1_iiPKififf14rope_corr_dimsff, address: 2260080
	->Name: _Z9rope_neoxI6__halfLb0EEvPKT_PS1_iiPKififf14rope_corr_dimsff, address: 2194544, vaddr: 65536
Name: _Z9rope_neoxI6__halfLb1EEvPKT_PS1_iiPKififf14rope_corr_dimsff, address: 2260528
	->Name: _Z9rope_neoxI6__halfLb1EEvPKT_PS1_iiPKififf14rope_corr_dimsff, address: 2194992, vaddr: 65536
Name: _Z9rope_neoxIfLb0EEvPKT_PS0_iiPKififf14rope_corr_dimsff, address: 2260976
	->Name: _Z9rope_neoxIfLb0EEvPKT_PS0_iiPKififf14rope_corr_dimsff, address: 2195440, vaddr: 65536
Name: _Z9rope_neoxIfLb1EEvPKT_PS0_iiPKififf14rope_corr_dimsff, address: 2261424
	->Name: _Z9rope_neoxIfLb1EEvPKT_PS0_iiPKififf14rope_corr_dimsff, address: 2195888, vaddr: 65536
Name: _Z4ropeI6__halfLb0EEvPKT_PS1_iPKififff14rope_corr_dims, address: 2261872
	->Name: _Z4ropeI6__halfLb0EEvPKT_PS1_iPKififff14rope_corr_dims, address: 2196336, vaddr: 65536
Name: _Z4ropeI6__halfLb1EEvPKT_PS1_iPKififff14rope_corr_dims, address: 2262272
	->Name: _Z4ropeI6__halfLb1EEvPKT_PS1_iPKififff14rope_corr_dims, address: 2196736, vaddr: 65536
Name: _Z4ropeIfLb0EEvPKT_PS0_iPKififff14rope_corr_dims, address: 2262672
	->Name: _Z4ropeIfLb0EEvPKT_PS0_iPKififff14rope_corr_dims, address: 2197136, vaddr: 65536
Name: _Z4ropeIfLb1EEvPKT_PS0_iPKififff14rope_corr_dims, address: 2263072
	->Name: _Z4ropeIfLb1EEvPKT_PS0_iPKififff14rope_corr_dims, address: 2197536, vaddr: 65536
Name: _ZL24__sti____cudaRegisterAllv, address: 224944
	->Name: _ZL24__sti____cudaRegisterAllv, address: 159408, vaddr: 65536
Name: _ZL26__cudaUnregisterBinaryUtilv, address: 2269040
	->Name: _ZL26__cudaUnregisterBinaryUtilv, address: 2203504, vaddr: 65536
Name: _ZL9scale_f32PKfPffi, address: 2269056
	->Name: _ZL9scale_f32PKfPffi, address: 2203520, vaddr: 65536
Name: _ZL24__sti____cudaRegisterAllv, address: 225824
	->Name: _ZL24__sti____cudaRegisterAllv, address: 160288, vaddr: 65536
Name: _ZL26__cudaUnregisterBinaryUtilv, address: 2269984
	->Name: _ZL26__cudaUnregisterBinaryUtilv, address: 2204448, vaddr: 65536
Name: _Z12soft_max_f32ILb1ELi32ELi32E6__halfEvPKfPKT2_Pfiiffffj, address: 2270000
	->Name: _Z12soft_max_f32ILb1ELi32ELi32E6__halfEvPKfPKT2_Pfiiffffj, address: 2204464, vaddr: 65536
Name: _Z12soft_max_f32ILb1ELi64ELi64E6__halfEvPKfPKT2_Pfiiffffj, address: 2270400
	->Name: _Z12soft_max_f32ILb1ELi64ELi64E6__halfEvPKfPKT2_Pfiiffffj, address: 2204864, vaddr: 65536
Name: _Z12soft_max_f32ILb1ELi128ELi128E6__halfEvPKfPKT2_Pfiiffffj, address: 2270800
	->Name: _Z12soft_max_f32ILb1ELi128ELi128E6__halfEvPKfPKT2_Pfiiffffj, address: 2205264, vaddr: 65536
Name: _Z12soft_max_f32ILb1ELi256ELi256E6__halfEvPKfPKT2_Pfiiffffj, address: 2271200
	->Name: _Z12soft_max_f32ILb1ELi256ELi256E6__halfEvPKfPKT2_Pfiiffffj, address: 2205664, vaddr: 65536
Name: _Z12soft_max_f32ILb1ELi512ELi512E6__halfEvPKfPKT2_Pfiiffffj, address: 2271600
	->Name: _Z12soft_max_f32ILb1ELi512ELi512E6__halfEvPKfPKT2_Pfiiffffj, address: 2206064, vaddr: 65536
Name: _Z12soft_max_f32ILb1ELi1024ELi1024E6__halfEvPKfPKT2_Pfiiffffj, address: 2272000
	->Name: _Z12soft_max_f32ILb1ELi1024ELi1024E6__halfEvPKfPKT2_Pfiiffffj, address: 2206464, vaddr: 65536
Name: _Z12soft_max_f32ILb1ELi2048ELi1024E6__halfEvPKfPKT2_Pfiiffffj, address: 2272400
	->Name: _Z12soft_max_f32ILb1ELi2048ELi1024E6__halfEvPKfPKT2_Pfiiffffj, address: 2206864, vaddr: 65536
Name: _Z12soft_max_f32ILb1ELi4096ELi1024E6__halfEvPKfPKT2_Pfiiffffj, address: 2272800
	->Name: _Z12soft_max_f32ILb1ELi4096ELi1024E6__halfEvPKfPKT2_Pfiiffffj, address: 2207264, vaddr: 65536
Name: _Z12soft_max_f32ILb1ELi0ELi0E6__halfEvPKfPKT2_Pfiiffffj, address: 2273200
	->Name: _Z12soft_max_f32ILb1ELi0ELi0E6__halfEvPKfPKT2_Pfiiffffj, address: 2207664, vaddr: 65536
Name: _Z12soft_max_f32ILb0ELi0ELi0E6__halfEvPKfPKT2_Pfiiffffj, address: 2273600
	->Name: _Z12soft_max_f32ILb0ELi0ELi0E6__halfEvPKfPKT2_Pfiiffffj, address: 2208064, vaddr: 65536
Name: _Z12soft_max_f32ILb1ELi32ELi32EfEvPKfPKT2_Pfiiffffj, address: 2274000
	->Name: _Z12soft_max_f32ILb1ELi32ELi32EfEvPKfPKT2_Pfiiffffj, address: 2208464, vaddr: 65536
Name: _Z12soft_max_f32ILb1ELi64ELi64EfEvPKfPKT2_Pfiiffffj, address: 2274400
	->Name: _Z12soft_max_f32ILb1ELi64ELi64EfEvPKfPKT2_Pfiiffffj, address: 2208864, vaddr: 65536
Name: _Z12soft_max_f32ILb1ELi128ELi128EfEvPKfPKT2_Pfiiffffj, address: 2274800
	->Name: _Z12soft_max_f32ILb1ELi128ELi128EfEvPKfPKT2_Pfiiffffj, address: 2209264, vaddr: 65536
Name: _Z12soft_max_f32ILb1ELi256ELi256EfEvPKfPKT2_Pfiiffffj, address: 2275200
	->Name: _Z12soft_max_f32ILb1ELi256ELi256EfEvPKfPKT2_Pfiiffffj, address: 2209664, vaddr: 65536
Name: _Z12soft_max_f32ILb1ELi512ELi512EfEvPKfPKT2_Pfiiffffj, address: 2275600
	->Name: _Z12soft_max_f32ILb1ELi512ELi512EfEvPKfPKT2_Pfiiffffj, address: 2210064, vaddr: 65536
Name: _Z12soft_max_f32ILb1ELi1024ELi1024EfEvPKfPKT2_Pfiiffffj, address: 2276000
	->Name: _Z12soft_max_f32ILb1ELi1024ELi1024EfEvPKfPKT2_Pfiiffffj, address: 2210464, vaddr: 65536
Name: _Z12soft_max_f32ILb1ELi2048ELi1024EfEvPKfPKT2_Pfiiffffj, address: 2276400
	->Name: _Z12soft_max_f32ILb1ELi2048ELi1024EfEvPKfPKT2_Pfiiffffj, address: 2210864, vaddr: 65536
Name: _Z12soft_max_f32ILb1ELi4096ELi1024EfEvPKfPKT2_Pfiiffffj, address: 2276800
	->Name: _Z12soft_max_f32ILb1ELi4096ELi1024EfEvPKfPKT2_Pfiiffffj, address: 2211264, vaddr: 65536
Name: _Z12soft_max_f32ILb1ELi0ELi0EfEvPKfPKT2_Pfiiffffj, address: 2277200
	->Name: _Z12soft_max_f32ILb1ELi0ELi0EfEvPKfPKT2_Pfiiffffj, address: 2211664, vaddr: 65536
Name: _Z12soft_max_f32ILb0ELi0ELi0EfEvPKfPKT2_Pfiiffffj, address: 2277600
	->Name: _Z12soft_max_f32ILb0ELi0ELi0EfEvPKfPKT2_Pfiiffffj, address: 2212064, vaddr: 65536
Name: _ZL24__sti____cudaRegisterAllv, address: 226336
	->Name: _ZL24__sti____cudaRegisterAllv, address: 160800, vaddr: 65536
Name: _ZL26__cudaUnregisterBinaryUtilv, address: 2289136
	->Name: _ZL26__cudaUnregisterBinaryUtilv, address: 2223600, vaddr: 65536
Name: _ZL14k_sum_rows_f32PKfPfi, address: 2289152
	->Name: _ZL14k_sum_rows_f32PKfPfi, address: 2223616, vaddr: 65536
Name: _ZL24__sti____cudaRegisterAllv, address: 227728
	->Name: _ZL24__sti____cudaRegisterAllv, address: 162192, vaddr: 65536
Name: _ZL26__cudaUnregisterBinaryUtilv, address: 2290064
	->Name: _ZL26__cudaUnregisterBinaryUtilv, address: 2224528, vaddr: 65536
Name: _ZL22timestep_embedding_f32PKfPfiii, address: 2290080
	->Name: _ZL22timestep_embedding_f32PKfPfiii, address: 2224544, vaddr: 65536
Name: _ZL24__sti____cudaRegisterAllv, address: 228240
	->Name: _ZL24__sti____cudaRegisterAllv, address: 162704, vaddr: 65536
Name: _ZL26__cudaUnregisterBinaryUtilv, address: 2291040
	->Name: _ZL26__cudaUnregisterBinaryUtilv, address: 2225504, vaddr: 65536
Name: _ZL14leaky_relu_f32PKfPfif, address: 2291056
	->Name: _ZL14leaky_relu_f32PKfPfif, address: 2225520, vaddr: 65536
Name: _ZL13hardswish_f32PKfPfi, address: 2291312
	->Name: _ZL13hardswish_f32PKfPfi, address: 2225776, vaddr: 65536
Name: _ZL14gelu_quick_f32PKfPfi, address: 2291536
	->Name: _ZL14gelu_quick_f32PKfPfi, address: 2226000, vaddr: 65536
Name: _ZL8silu_f32PKfPfi, address: 2291760
	->Name: _ZL8silu_f32PKfPfi, address: 2226224, vaddr: 65536
Name: _ZL8tanh_f32PKfPfi, address: 2291984
	->Name: _ZL8tanh_f32PKfPfi, address: 2226448, vaddr: 65536
Name: _ZL8relu_f32PKfPfi, address: 2292208
	->Name: _ZL8relu_f32PKfPfi, address: 2226672, vaddr: 65536
Name: _ZL8gelu_f32PKfPfi, address: 2292432
	->Name: _ZL8gelu_f32PKfPfi, address: 2226896, vaddr: 65536
Name: _ZL11sigmoid_f32PKfPfi, address: 2292656
	->Name: _ZL11sigmoid_f32PKfPfi, address: 2227120, vaddr: 65536
Name: _ZL15hardsigmoid_f32PKfPfi, address: 2292880
	->Name: _ZL15hardsigmoid_f32PKfPfi, address: 2227344, vaddr: 65536
Name: _ZL7sqr_f32PKfPfi, address: 2293104
	->Name: _ZL7sqr_f32PKfPfi, address: 2227568, vaddr: 65536
Name: _ZL24__sti____cudaRegisterAllv, address: 228752
	->Name: _ZL24__sti____cudaRegisterAllv, address: 163216, vaddr: 65536
Name: _ZL26__cudaUnregisterBinaryUtilv, address: 2299904
	->Name: _ZL26__cudaUnregisterBinaryUtilv, address: 2234368, vaddr: 65536
Name: _ZL11upscale_f32PKfPfiiiiiiiiffff, address: 2299920
	->Name: _ZL11upscale_f32PKfPfiiiiiiiiffff, address: 2234384, vaddr: 65536
Name: _ZL24__sti____cudaRegisterAllv, address: 229680
	->Name: _ZL24__sti____cudaRegisterAllv, address: 164144, vaddr: 65536
Name: _ZNSt8_Rb_treeIjSt4pairIKjjESt10_Select1stIS2_ESt4lessIjESaIS2_EE8_M_eraseEPSt13_Rb_tree_nodeIS2_E.isra.0, address: 2665824
	->Name: _ZNSt8_Rb_treeIjSt4pairIKjjESt10_Select1stIS2_ESt4lessIjESaIS2_EE8_M_eraseEPSt13_Rb_tree_nodeIS2_E.isra.0, address: 2600288, vaddr: 65536
Name: _ZNSt8_Rb_treeIDiSt4pairIKDiDiESt10_Select1stIS2_ESt4lessIDiESaIS2_EE8_M_eraseEPSt13_Rb_tree_nodeIS2_E.isra.0, address: 2666256
	->Name: _ZNSt8_Rb_treeIDiSt4pairIKDiDiESt10_Select1stIS2_ESt4lessIDiESaIS2_EE8_M_eraseEPSt13_Rb_tree_nodeIS2_E.isra.0, address: 2600720, vaddr: 65536
Name: _Z41__static_initialization_and_destruction_0ii.constprop.0, address: 230192
	->Name: _Z41__static_initialization_and_destruction_0ii.constprop.0, address: 164656, vaddr: 65536
Name: _GLOBAL__sub_I_unicode_data.cpp, address: 231056
	->Name: _GLOBAL__sub_I_unicode_data.cpp, address: 165520, vaddr: 65536
Name: deregister_tm_clones, address: 261584
	->Name: deregister_tm_clones, address: 196048, vaddr: 65536
Name: register_tm_clones, address: 261632
	->Name: register_tm_clones, address: 196096, vaddr: 65536
Name: __do_global_dtors_aux, address: 261696
	->Name: __do_global_dtors_aux, address: 196160, vaddr: 65536
Name: frame_dummy, address: 261760
	->Name: frame_dummy, address: 196224, vaddr: 65536
Name: _ZN12_GLOBAL__N_18tinyBLASILi8EDv8_fS1_fffE4gemmILi4ELi3EEEvllll, address: 1598272
	->Name: _ZN12_GLOBAL__N_18tinyBLASILi8EDv8_fS1_fffE4gemmILi4ELi3EEEvllll, address: 1532736, vaddr: 65536
Name: _ZN12_GLOBAL__N_18tinyBLASILi8EDv8_fS1_fffE4gemmILi3ELi4EEEvllll, address: 1599296
	->Name: _ZN12_GLOBAL__N_18tinyBLASILi8EDv8_fS1_fffE4gemmILi3ELi4EEEvllll, address: 1533760, vaddr: 65536
Name: _ZN12_GLOBAL__N_18tinyBLASILi8EDv8_fS1_fffE4gemmILi5ELi2EEEvllll, address: 1600384
	->Name: _ZN12_GLOBAL__N_18tinyBLASILi8EDv8_fS1_fffE4gemmILi5ELi2EEEvllll, address: 1534848, vaddr: 65536
Name: _ZN12_GLOBAL__N_18tinyBLASILi8EDv8_fS1_fffE4gemmILi3ELi3EEEvllll, address: 1601312
	->Name: _ZN12_GLOBAL__N_18tinyBLASILi8EDv8_fS1_fffE4gemmILi3ELi3EEEvllll, address: 1535776, vaddr: 65536
Name: _ZN12_GLOBAL__N_18tinyBLASILi8EDv8_fS1_fffE4gemmILi2ELi5EEEvllll, address: 1602192
	->Name: _ZN12_GLOBAL__N_18tinyBLASILi8EDv8_fS1_fffE4gemmILi2ELi5EEEvllll, address: 1536656, vaddr: 65536
Name: _ZN12_GLOBAL__N_18tinyBLASILi8EDv8_fS1_fffE4gemmILi4ELi2EEEvllll, address: 1603104
	->Name: _ZN12_GLOBAL__N_18tinyBLASILi8EDv8_fS1_fffE4gemmILi4ELi2EEEvllll, address: 1537568, vaddr: 65536
Name: _ZN12_GLOBAL__N_18tinyBLASILi8EDv8_fS1_fffE4gemmILi2ELi4EEEvllll, address: 1603856
	->Name: _ZN12_GLOBAL__N_18tinyBLASILi8EDv8_fS1_fffE4gemmILi2ELi4EEEvllll, address: 1538320, vaddr: 65536
Name: _ZN12_GLOBAL__N_18tinyBLASILi8EDv8_fS1_fffE4gemmILi3ELi2EEEvllll, address: 1604624
	->Name: _ZN12_GLOBAL__N_18tinyBLASILi8EDv8_fS1_fffE4gemmILi3ELi2EEEvllll, address: 1539088, vaddr: 65536
Name: _ZN12_GLOBAL__N_18tinyBLASILi8EDv8_fS1_fffE4gemmILi2ELi3EEEvllll, address: 1605328
	->Name: _ZN12_GLOBAL__N_18tinyBLASILi8EDv8_fS1_fffE4gemmILi2ELi3EEEvllll, address: 1539792, vaddr: 65536
Name: _ZN12_GLOBAL__N_18tinyBLASILi8EDv8_fS1_fffE4gemmILi5ELi1EEEvllll, address: 1606000
	->Name: _ZN12_GLOBAL__N_18tinyBLASILi8EDv8_fS1_fffE4gemmILi5ELi1EEEvllll, address: 1540464, vaddr: 65536
Name: _ZN12_GLOBAL__N_18tinyBLASILi8EDv8_fS1_fffE4gemmILi4ELi1EEEvllll, address: 1606608
	->Name: _ZN12_GLOBAL__N_18tinyBLASILi8EDv8_fS1_fffE4gemmILi4ELi1EEEvllll, address: 1541072, vaddr: 65536
Name: _ZN12_GLOBAL__N_18tinyBLASILi8EDv8_fS1_fffE4gemmILi2ELi2EEEvllll, address: 1607104
	->Name: _ZN12_GLOBAL__N_18tinyBLASILi8EDv8_fS1_fffE4gemmILi2ELi2EEEvllll, address: 1541568, vaddr: 65536
Name: _ZN12_GLOBAL__N_18tinyBLASILi8EDv8_fS1_fffE4gemmILi1ELi5EEEvllll, address: 1607632
	->Name: _ZN12_GLOBAL__N_18tinyBLASILi8EDv8_fS1_fffE4gemmILi1ELi5EEEvllll, address: 1542096, vaddr: 65536
Name: _ZN12_GLOBAL__N_18tinyBLASILi8EDv8_fS1_fffE4gemmILi1ELi4EEEvllll, address: 1609520
	->Name: _ZN12_GLOBAL__N_18tinyBLASILi8EDv8_fS1_fffE4gemmILi1ELi4EEEvllll, address: 1543984, vaddr: 65536
Name: _ZN12_GLOBAL__N_18tinyBLASILi8EDv8_fS1_fffE4gemmILi3ELi1EEEvllll, address: 1611088
	->Name: _ZN12_GLOBAL__N_18tinyBLASILi8EDv8_fS1_fffE4gemmILi3ELi1EEEvllll, address: 1545552, vaddr: 65536
Name: _ZN12_GLOBAL__N_18tinyBLASILi8EDv8_fS1_fffE4gemmILi1ELi3EEEvllll, address: 1611568
	->Name: _ZN12_GLOBAL__N_18tinyBLASILi8EDv8_fS1_fffE4gemmILi1ELi3EEEvllll, address: 1546032, vaddr: 65536
Name: _ZN12_GLOBAL__N_18tinyBLASILi8EDv8_fS1_fffE4gemmILi2ELi1EEEvllll, address: 1612896
	->Name: _ZN12_GLOBAL__N_18tinyBLASILi8EDv8_fS1_fffE4gemmILi2ELi1EEEvllll, address: 1547360, vaddr: 65536
Name: _ZN12_GLOBAL__N_18tinyBLASILi8EDv8_fS1_fffE4gemmILi1ELi2EEEvllll, address: 1613280
	->Name: _ZN12_GLOBAL__N_18tinyBLASILi8EDv8_fS1_fffE4gemmILi1ELi2EEEvllll, address: 1547744, vaddr: 65536
Name: _ZN12_GLOBAL__N_18tinyBLASILi8EDv8_fS1_fffE4gemmILi1ELi1EEEvllll, address: 1614320
	->Name: _ZN12_GLOBAL__N_18tinyBLASILi8EDv8_fS1_fffE4gemmILi1ELi1EEEvllll, address: 1548784, vaddr: 65536
Name: _ZN12_GLOBAL__N_18tinyBLASILi8EDv8_fS1_fffE6mnpackEllll, address: 1614576
	->Name: _ZN12_GLOBAL__N_18tinyBLASILi8EDv8_fS1_fffE6mnpackEllll, address: 1549040, vaddr: 65536
Name: _ZN12_GLOBAL__N_18tinyBLASILi8EDv8_fS1_tffE4gemmILi4ELi3EEEvllll, address: 1615840
	->Name: _ZN12_GLOBAL__N_18tinyBLASILi8EDv8_fS1_tffE4gemmILi4ELi3EEEvllll, address: 1550304, vaddr: 65536
Name: _ZN12_GLOBAL__N_18tinyBLASILi8EDv8_fS1_tffE4gemmILi3ELi4EEEvllll, address: 1616816
	->Name: _ZN12_GLOBAL__N_18tinyBLASILi8EDv8_fS1_tffE4gemmILi3ELi4EEEvllll, address: 1551280, vaddr: 65536
Name: _ZN12_GLOBAL__N_18tinyBLASILi8EDv8_fS1_tffE4gemmILi5ELi2EEEvllll, address: 1617856
	->Name: _ZN12_GLOBAL__N_18tinyBLASILi8EDv8_fS1_tffE4gemmILi5ELi2EEEvllll, address: 1552320, vaddr: 65536
Name: _ZN12_GLOBAL__N_18tinyBLASILi8EDv8_fS1_tffE4gemmILi3ELi3EEEvllll, address: 1618800
	->Name: _ZN12_GLOBAL__N_18tinyBLASILi8EDv8_fS1_tffE4gemmILi3ELi3EEEvllll, address: 1553264, vaddr: 65536
Name: _ZN12_GLOBAL__N_18tinyBLASILi8EDv8_fS1_tffE4gemmILi2ELi5EEEvllll, address: 1619664
	->Name: _ZN12_GLOBAL__N_18tinyBLASILi8EDv8_fS1_tffE4gemmILi2ELi5EEEvllll, address: 1554128, vaddr: 65536
Name: _ZN12_GLOBAL__N_18tinyBLASILi8EDv8_fS1_tffE4gemmILi4ELi2EEEvllll, address: 1620576
	->Name: _ZN12_GLOBAL__N_18tinyBLASILi8EDv8_fS1_tffE4gemmILi4ELi2EEEvllll, address: 1555040, vaddr: 65536
Name: _ZN12_GLOBAL__N_18tinyBLASILi8EDv8_fS1_tffE4gemmILi2ELi4EEEvllll, address: 1621328
	->Name: _ZN12_GLOBAL__N_18tinyBLASILi8EDv8_fS1_tffE4gemmILi2ELi4EEEvllll, address: 1555792, vaddr: 65536
Name: _ZN12_GLOBAL__N_18tinyBLASILi8EDv8_fS1_tffE4gemmILi3ELi2EEEvllll, address: 1622096
	->Name: _ZN12_GLOBAL__N_18tinyBLASILi8EDv8_fS1_tffE4gemmILi3ELi2EEEvllll, address: 1556560, vaddr: 65536
Name: _ZN12_GLOBAL__N_18tinyBLASILi8EDv8_fS1_tffE4gemmILi2ELi3EEEvllll, address: 1622784
	->Name: _ZN12_GLOBAL__N_18tinyBLASILi8EDv8_fS1_tffE4gemmILi2ELi3EEEvllll, address: 1557248, vaddr: 65536
Name: _ZN12_GLOBAL__N_18tinyBLASILi8EDv8_fS1_tffE4gemmILi5ELi1EEEvllll, address: 1623456
	->Name: _ZN12_GLOBAL__N_18tinyBLASILi8EDv8_fS1_tffE4gemmILi5ELi1EEEvllll, address: 1557920, vaddr: 65536
Name: _ZN12_GLOBAL__N_18tinyBLASILi8EDv8_fS1_tffE4gemmILi4ELi1EEEvllll, address: 1624080
	->Name: _ZN12_GLOBAL__N_18tinyBLASILi8EDv8_fS1_tffE4gemmILi4ELi1EEEvllll, address: 1558544, vaddr: 65536
Name: _ZN12_GLOBAL__N_18tinyBLASILi8EDv8_fS1_tffE4gemmILi2ELi2EEEvllll, address: 1624592
	->Name: _ZN12_GLOBAL__N_18tinyBLASILi8EDv8_fS1_tffE4gemmILi2ELi2EEEvllll, address: 1559056, vaddr: 65536
Name: _ZN12_GLOBAL__N_18tinyBLASILi8EDv8_fS1_tffE4gemmILi1ELi5EEEvllll, address: 1625120
	->Name: _ZN12_GLOBAL__N_18tinyBLASILi8EDv8_fS1_tffE4gemmILi1ELi5EEEvllll, address: 1559584, vaddr: 65536
Name: _ZN12_GLOBAL__N_18tinyBLASILi8EDv8_fS1_tffE4gemmILi1ELi4EEEvllll, address: 1627008
	->Name: _ZN12_GLOBAL__N_18tinyBLASILi8EDv8_fS1_tffE4gemmILi1ELi4EEEvllll, address: 1561472, vaddr: 65536
Name: _ZN12_GLOBAL__N_18tinyBLASILi8EDv8_fS1_tffE4gemmILi3ELi1EEEvllll, address: 1628576
	->Name: _ZN12_GLOBAL__N_18tinyBLASILi8EDv8_fS1_tffE4gemmILi3ELi1EEEvllll, address: 1563040, vaddr: 65536
Name: _ZN12_GLOBAL__N_18tinyBLASILi8EDv8_fS1_tffE4gemmILi1ELi3EEEvllll, address: 1629056
	->Name: _ZN12_GLOBAL__N_18tinyBLASILi8EDv8_fS1_tffE4gemmILi1ELi3EEEvllll, address: 1563520, vaddr: 65536
Name: _ZN12_GLOBAL__N_18tinyBLASILi8EDv8_fS1_tffE4gemmILi2ELi1EEEvllll, address: 1630368
	->Name: _ZN12_GLOBAL__N_18tinyBLASILi8EDv8_fS1_tffE4gemmILi2ELi1EEEvllll, address: 1564832, vaddr: 65536
Name: _ZN12_GLOBAL__N_18tinyBLASILi8EDv8_fS1_tffE4gemmILi1ELi2EEEvllll, address: 1630752
	->Name: _ZN12_GLOBAL__N_18tinyBLASILi8EDv8_fS1_tffE4gemmILi1ELi2EEEvllll, address: 1565216, vaddr: 65536
Name: _ZN12_GLOBAL__N_18tinyBLASILi8EDv8_fS1_tffE4gemmILi1ELi1EEEvllll, address: 1631792
	->Name: _ZN12_GLOBAL__N_18tinyBLASILi8EDv8_fS1_tffE4gemmILi1ELi1EEEvllll, address: 1566256, vaddr: 65536
Name: _ZN12_GLOBAL__N_18tinyBLASILi8EDv8_fS1_tffE6mnpackEllll, address: 1632048
	->Name: _ZN12_GLOBAL__N_18tinyBLASILi8EDv8_fS1_tffE6mnpackEllll, address: 1566512, vaddr: 65536
Name: _ZN12_GLOBAL__N_115tinyBLAS_Q0_AVXI10block_q8_0S1_fE4gemmILi4ELi2EEEvllll, address: 1633312
	->Name: _ZN12_GLOBAL__N_115tinyBLAS_Q0_AVXI10block_q8_0S1_fE4gemmILi4ELi2EEEvllll, address: 1567776, vaddr: 65536
Name: _ZN12_GLOBAL__N_115tinyBLAS_Q0_AVXI10block_q8_0S1_fE4gemmILi2ELi4EEEvllll, address: 1634528
	->Name: _ZN12_GLOBAL__N_115tinyBLAS_Q0_AVXI10block_q8_0S1_fE4gemmILi2ELi4EEEvllll, address: 1568992, vaddr: 65536
Name: _ZN12_GLOBAL__N_115tinyBLAS_Q0_AVXI10block_q8_0S1_fE4gemmILi3ELi2EEEvllll, address: 1635744
	->Name: _ZN12_GLOBAL__N_115tinyBLAS_Q0_AVXI10block_q8_0S1_fE4gemmILi3ELi2EEEvllll, address: 1570208, vaddr: 65536
Name: _ZN12_GLOBAL__N_115tinyBLAS_Q0_AVXI10block_q8_0S1_fE4gemmILi2ELi3EEEvllll, address: 1636752
	->Name: _ZN12_GLOBAL__N_115tinyBLAS_Q0_AVXI10block_q8_0S1_fE4gemmILi2ELi3EEEvllll, address: 1571216, vaddr: 65536
Name: _ZN12_GLOBAL__N_115tinyBLAS_Q0_AVXI10block_q8_0S1_fE4gemmILi4ELi1EEEvllll, address: 1637744
	->Name: _ZN12_GLOBAL__N_115tinyBLAS_Q0_AVXI10block_q8_0S1_fE4gemmILi4ELi1EEEvllll, address: 1572208, vaddr: 65536
Name: _ZN12_GLOBAL__N_115tinyBLAS_Q0_AVXI10block_q8_0S1_fE4gemmILi2ELi2EEEvllll, address: 1638464
	->Name: _ZN12_GLOBAL__N_115tinyBLAS_Q0_AVXI10block_q8_0S1_fE4gemmILi2ELi2EEEvllll, address: 1572928, vaddr: 65536
Name: _ZN12_GLOBAL__N_115tinyBLAS_Q0_AVXI10block_q8_0S1_fE4gemmILi1ELi4EEEvllll, address: 1639232
	->Name: _ZN12_GLOBAL__N_115tinyBLAS_Q0_AVXI10block_q8_0S1_fE4gemmILi1ELi4EEEvllll, address: 1573696, vaddr: 65536
Name: _ZN12_GLOBAL__N_115tinyBLAS_Q0_AVXI10block_q8_0S1_fE4gemmILi3ELi1EEEvllll, address: 1642096
	->Name: _ZN12_GLOBAL__N_115tinyBLAS_Q0_AVXI10block_q8_0S1_fE4gemmILi3ELi1EEEvllll, address: 1576560, vaddr: 65536
Name: _ZN12_GLOBAL__N_115tinyBLAS_Q0_AVXI10block_q8_0S1_fE4gemmILi1ELi3EEEvllll, address: 1642784
	->Name: _ZN12_GLOBAL__N_115tinyBLAS_Q0_AVXI10block_q8_0S1_fE4gemmILi1ELi3EEEvllll, address: 1577248, vaddr: 65536
Name: _ZN12_GLOBAL__N_115tinyBLAS_Q0_AVXI10block_q8_0S1_fE4gemmILi2ELi1EEEvllll, address: 1645168
	->Name: _ZN12_GLOBAL__N_115tinyBLAS_Q0_AVXI10block_q8_0S1_fE4gemmILi2ELi1EEEvllll, address: 1579632, vaddr: 65536
Name: _ZN12_GLOBAL__N_115tinyBLAS_Q0_AVXI10block_q8_0S1_fE4gemmILi1ELi2EEEvllll, address: 1645680
	->Name: _ZN12_GLOBAL__N_115tinyBLAS_Q0_AVXI10block_q8_0S1_fE4gemmILi1ELi2EEEvllll, address: 1580144, vaddr: 65536
Name: _ZN12_GLOBAL__N_115tinyBLAS_Q0_AVXI10block_q8_0S1_fE4gemmILi1ELi1EEEvllll, address: 1647472
	->Name: _ZN12_GLOBAL__N_115tinyBLAS_Q0_AVXI10block_q8_0S1_fE4gemmILi1ELi1EEEvllll, address: 1581936, vaddr: 65536
Name: _ZN12_GLOBAL__N_115tinyBLAS_Q0_AVXI10block_q4_010block_q8_0fE4gemmILi4ELi2EEEvllll, address: 1647856
	->Name: _ZN12_GLOBAL__N_115tinyBLAS_Q0_AVXI10block_q4_010block_q8_0fE4gemmILi4ELi2EEEvllll, address: 1582320, vaddr: 65536
Name: _ZN12_GLOBAL__N_115tinyBLAS_Q0_AVXI10block_q4_010block_q8_0fE4gemmILi2ELi4EEEvllll, address: 1649328
	->Name: _ZN12_GLOBAL__N_115tinyBLAS_Q0_AVXI10block_q4_010block_q8_0fE4gemmILi2ELi4EEEvllll, address: 1583792, vaddr: 65536
Name: _ZN12_GLOBAL__N_115tinyBLAS_Q0_AVXI10block_q4_010block_q8_0fE4gemmILi3ELi2EEEvllll, address: 1650624
	->Name: _ZN12_GLOBAL__N_115tinyBLAS_Q0_AVXI10block_q4_010block_q8_0fE4gemmILi3ELi2EEEvllll, address: 1585088, vaddr: 65536
Name: _ZN12_GLOBAL__N_115tinyBLAS_Q0_AVXI10block_q4_010block_q8_0fE4gemmILi2ELi3EEEvllll, address: 1651808
	->Name: _ZN12_GLOBAL__N_115tinyBLAS_Q0_AVXI10block_q4_010block_q8_0fE4gemmILi2ELi3EEEvllll, address: 1586272, vaddr: 65536
Name: _ZN12_GLOBAL__N_115tinyBLAS_Q0_AVXI10block_q4_010block_q8_0fE4gemmILi4ELi1EEEvllll, address: 1652896
	->Name: _ZN12_GLOBAL__N_115tinyBLAS_Q0_AVXI10block_q4_010block_q8_0fE4gemmILi4ELi1EEEvllll, address: 1587360, vaddr: 65536
Name: _ZN12_GLOBAL__N_115tinyBLAS_Q0_AVXI10block_q4_010block_q8_0fE4gemmILi2ELi2EEEvllll, address: 1653744
	->Name: _ZN12_GLOBAL__N_115tinyBLAS_Q0_AVXI10block_q4_010block_q8_0fE4gemmILi2ELi2EEEvllll, address: 1588208, vaddr: 65536
Name: _ZN12_GLOBAL__N_115tinyBLAS_Q0_AVXI10block_q4_010block_q8_0fE4gemmILi1ELi4EEEvllll, address: 1654576
	->Name: _ZN12_GLOBAL__N_115tinyBLAS_Q0_AVXI10block_q4_010block_q8_0fE4gemmILi1ELi4EEEvllll, address: 1589040, vaddr: 65536
Name: _ZN12_GLOBAL__N_115tinyBLAS_Q0_AVXI10block_q4_010block_q8_0fE4gemmILi3ELi1EEEvllll, address: 1657808
	->Name: _ZN12_GLOBAL__N_115tinyBLAS_Q0_AVXI10block_q4_010block_q8_0fE4gemmILi3ELi1EEEvllll, address: 1592272, vaddr: 65536
Name: _ZN12_GLOBAL__N_115tinyBLAS_Q0_AVXI10block_q4_010block_q8_0fE4gemmILi1ELi3EEEvllll, address: 1658560
	->Name: _ZN12_GLOBAL__N_115tinyBLAS_Q0_AVXI10block_q4_010block_q8_0fE4gemmILi1ELi3EEEvllll, address: 1593024, vaddr: 65536
Name: _ZN12_GLOBAL__N_115tinyBLAS_Q0_AVXI10block_q4_010block_q8_0fE4gemmILi2ELi1EEEvllll, address: 1661168
	->Name: _ZN12_GLOBAL__N_115tinyBLAS_Q0_AVXI10block_q4_010block_q8_0fE4gemmILi2ELi1EEEvllll, address: 1595632, vaddr: 65536
Name: _ZN12_GLOBAL__N_115tinyBLAS_Q0_AVXI10block_q4_010block_q8_0fE4gemmILi1ELi2EEEvllll, address: 1661760
	->Name: _ZN12_GLOBAL__N_115tinyBLAS_Q0_AVXI10block_q4_010block_q8_0fE4gemmILi1ELi2EEEvllll, address: 1596224, vaddr: 65536
Name: _ZN12_GLOBAL__N_115tinyBLAS_Q0_AVXI10block_q4_010block_q8_0fE4gemmILi1ELi1EEEvllll, address: 1663744
	->Name: _ZN12_GLOBAL__N_115tinyBLAS_Q0_AVXI10block_q4_010block_q8_0fE4gemmILi1ELi1EEEvllll, address: 1598208, vaddr: 65536
Name: _ZN12_GLOBAL__N_115tinyBLAS_Q0_AVXI10block_q4_010block_q8_0fE6mnpackEllll, address: 1664176
	->Name: _ZN12_GLOBAL__N_115tinyBLAS_Q0_AVXI10block_q4_010block_q8_0fE6mnpackEllll, address: 1598640, vaddr: 65536
Name: _ZN12_GLOBAL__N_115tinyBLAS_Q0_AVXI10block_q8_0S1_fE6mnpackEllll, address: 1667168
	->Name: _ZN12_GLOBAL__N_115tinyBLAS_Q0_AVXI10block_q8_0S1_fE6mnpackEllll, address: 1601632, vaddr: 65536
Name: ggml_gallocr_free_node.part.0, address: 2301536
	->Name: ggml_gallocr_free_node.part.0, address: 2236000, vaddr: 65536
Name: ggml_gallocr_allocate_node, address: 2302160
	->Name: ggml_gallocr_allocate_node, address: 2236624, vaddr: 65536
Name: alloc_tensor_range, address: 2303616
	->Name: alloc_tensor_range, address: 2238080, vaddr: 65536
Name: ggml_backend_cpu_buffer_name, address: 2310560
	->Name: ggml_backend_cpu_buffer_name, address: 2245024, vaddr: 65536
Name: ggml_backend_cpu_buffer_get_base, address: 2310576
	->Name: ggml_backend_cpu_buffer_get_base, address: 2245040, vaddr: 65536
Name: ggml_backend_cpu_buffer_type_get_alignment, address: 2310608
	->Name: ggml_backend_cpu_buffer_type_get_alignment, address: 2245072, vaddr: 65536
Name: ggml_backend_cpu_buffer_type_is_host, address: 2310624
	->Name: ggml_backend_cpu_buffer_type_is_host, address: 2245088, vaddr: 65536
Name: ggml_backend_multi_buffer_get_name, address: 2310640
	->Name: ggml_backend_multi_buffer_get_name, address: 2245104, vaddr: 65536
Name: ggml_backend_cpu_buffer_free_buffer, address: 2310656
	->Name: ggml_backend_cpu_buffer_free_buffer, address: 2245120, vaddr: 65536
Name: ggml_backend_cpu_graph_plan_free, address: 2310672
	->Name: ggml_backend_cpu_graph_plan_free, address: 2245136, vaddr: 65536
Name: ggml_backend_cpu_free, address: 2310704
	->Name: ggml_backend_cpu_free, address: 2245168, vaddr: 65536
Name: ggml_backend_cpu_buffer_clear, address: 2310768
	->Name: ggml_backend_cpu_buffer_clear, address: 2245232, vaddr: 65536
Name: ggml_backend_cpu_buffer_set_tensor, address: 2310800
	->Name: ggml_backend_cpu_buffer_set_tensor, address: 2245264, vaddr: 65536
Name: ggml_backend_cpu_buffer_get_tensor, address: 2310832
	->Name: ggml_backend_cpu_buffer_get_tensor, address: 2245296, vaddr: 65536
Name: ggml_backend_cpu_graph_plan_create, address: 2310864
	->Name: ggml_backend_cpu_graph_plan_create, address: 2245328, vaddr: 65536
Name: ggml_backend_cpu_graph_compute, address: 2311120
	->Name: ggml_backend_cpu_graph_compute, address: 2245584, vaddr: 65536
Name: ggml_backend_cpu_graph_plan_compute, address: 2311312
	->Name: ggml_backend_cpu_graph_plan_compute, address: 2245776, vaddr: 65536
Name: graph_copy_dup_tensor, address: 2311328
	->Name: graph_copy_dup_tensor, address: 2245792, vaddr: 65536
Name: ggml_backend_cpu_buffer_type_get_name, address: 2311888
	->Name: ggml_backend_cpu_buffer_type_get_name, address: 2246352, vaddr: 65536
Name: ggml_backend_cpu_supports_op, address: 2311904
	->Name: ggml_backend_cpu_supports_op, address: 2246368, vaddr: 65536
Name: ggml_backend_cpu_name, address: 2312064
	->Name: ggml_backend_cpu_name, address: 2246528, vaddr: 65536
Name: ggml_backend_cpu_buffer_type_alloc_buffer, address: 2312352
	->Name: ggml_backend_cpu_buffer_type_alloc_buffer, address: 2246816, vaddr: 65536
Name: ggml_backend_sched_backend_from_buffer, address: 2312544
	->Name: ggml_backend_sched_backend_from_buffer, address: 2247008, vaddr: 65536
Name: ggml_backend_multi_buffer_free_buffer, address: 2312832
	->Name: ggml_backend_multi_buffer_free_buffer, address: 2247296, vaddr: 65536
Name: ggml_backend_multi_buffer_clear, address: 2313072
	->Name: ggml_backend_multi_buffer_clear, address: 2247536, vaddr: 65536
Name: ggml_backend_cpu_buffer_cpy_tensor, address: 2313280
	->Name: ggml_backend_cpu_buffer_cpy_tensor, address: 2247744, vaddr: 65536
Name: ggml_backend_sched_backend_id_from_cur, address: 2315216
	->Name: ggml_backend_sched_backend_id_from_cur, address: 2249680, vaddr: 65536
Name: ggml_backend_sched_split_graph.part.0, address: 2315728
	->Name: ggml_backend_sched_split_graph.part.0, address: 2250192, vaddr: 65536
Name: ggml_backend_cpu_get_default_buffer_type, address: 2322800
	->Name: ggml_backend_cpu_get_default_buffer_type, address: 2257264, vaddr: 65536
Name: ggml_backend_reg_cpu_init, address: 2324304
	->Name: ggml_backend_reg_cpu_init, address: 2258768, vaddr: 65536
Name: ggml_backend_cpu_buffer_type_supports_backend, address: 2324368
	->Name: ggml_backend_cpu_buffer_type_supports_backend, address: 2258832, vaddr: 65536
Name: graph_copy_init_tensor, address: 2330080
	->Name: graph_copy_init_tensor, address: 2264544, vaddr: 65536
Name: iq1_sort_helper, address: 2331888
	->Name: iq1_sort_helper, address: 2266352, vaddr: 65536
Name: iq2_find_best_neighbour, address: 2331936
	->Name: iq2_find_best_neighbour, address: 2266400, vaddr: 65536
Name: iq3_find_best_neighbour, address: 2332640
	->Name: iq3_find_best_neighbour, address: 2267104, vaddr: 65536
Name: quantize_row_iq2_s_impl, address: 2333120
	->Name: quantize_row_iq2_s_impl, address: 2267584, vaddr: 65536
Name: iq2_compare_func, address: 2351472
	->Name: iq2_compare_func, address: 2285936, vaddr: 65536
Name: iq2_data_index.part.0, address: 2351520
	->Name: iq2_data_index.part.0, address: 2285984, vaddr: 65536
Name: iq3_data_index.part.0, address: 2351600
	->Name: iq3_data_index.part.0, address: 2286064, vaddr: 65536
Name: quantize_row_iq2_xs_impl, address: 2351680
	->Name: quantize_row_iq2_xs_impl, address: 2286144, vaddr: 65536
Name: iq1_find_best_neighbour2.constprop.0, address: 2365232
	->Name: iq1_find_best_neighbour2.constprop.0, address: 2299696, vaddr: 65536
Name: quantize_row_iq3_xxs_impl.constprop.0, address: 2367008
	->Name: quantize_row_iq3_xxs_impl.constprop.0, address: 2301472, vaddr: 65536
Name: quantize_row_iq3_xxs_impl.constprop.1, address: 2371952
	->Name: quantize_row_iq3_xxs_impl.constprop.1, address: 2306416, vaddr: 65536
Name: quantize_row_iq2_xxs_impl, address: 2377312
	->Name: quantize_row_iq2_xxs_impl, address: 2311776, vaddr: 65536
Name: make_qp_quants.constprop.1, address: 2385024
	->Name: make_qp_quants.constprop.1, address: 2319488, vaddr: 65536
Name: make_qp_quants.constprop.2, address: 2387168
	->Name: make_qp_quants.constprop.2, address: 2321632, vaddr: 65536
Name: make_qkx3_quants.constprop.0, address: 2391216
	->Name: make_qkx3_quants.constprop.0, address: 2325680, vaddr: 65536
Name: quantize_row_q5_K_impl, address: 2391920
	->Name: quantize_row_q5_K_impl, address: 2326384, vaddr: 65536
Name: quantize_row_q2_K_impl, address: 2394544
	->Name: quantize_row_q2_K_impl, address: 2329008, vaddr: 65536
Name: make_qx_quants.constprop.0, address: 2400736
	->Name: make_qx_quants.constprop.0, address: 2335200, vaddr: 65536
Name: make_qx_quants.constprop.1, address: 2403728
	->Name: make_qx_quants.constprop.1, address: 2338192, vaddr: 65536
Name: quantize_row_q3_K_impl, address: 2406512
	->Name: quantize_row_q3_K_impl, address: 2340976, vaddr: 65536
Name: quantize_row_q6_K_impl, address: 2413136
	->Name: quantize_row_q6_K_impl, address: 2347600, vaddr: 65536
Name: iq3_compare_func, address: 2416064
	->Name: iq3_compare_func, address: 2350528, vaddr: 65536
Name: quantize_row_q4_K_impl, address: 2416112
	->Name: quantize_row_q4_K_impl, address: 2350576, vaddr: 65536
Name: quantize_row_iq4_nl_impl.constprop.1, address: 2418560
	->Name: quantize_row_iq4_nl_impl.constprop.1, address: 2353024, vaddr: 65536
Name: atexit, address: 2679840
	->Name: atexit, address: 2614304, vaddr: 65536
Name: _ZNSt17_Function_handlerIFbcENSt8__detail11_AnyMatcherINSt7__cxx1112regex_traitsIcEELb1ELb0ELb0EEEE10_M_managerERSt9_Any_dataRKS8_St18_Manager_operation, address: 1258960
	->Name: _ZNSt17_Function_handlerIFbcENSt8__detail11_AnyMatcherINSt7__cxx1112regex_traitsIcEELb1ELb0ELb0EEEE10_M_managerERSt9_Any_dataRKS8_St18_Manager_operation, address: 1193424, vaddr: 65536
Name: ggml_map_custom3_inplace_f32, address: 484160
	->Name: ggml_map_custom3_inplace_f32, address: 418624, vaddr: 65536
Name: quantize_row_q8_0, address: 2423792
	->Name: quantize_row_q8_0, address: 2358256, vaddr: 65536
Name: _ZNSt8__detail9_CompilerINSt7__cxx1112regex_traitsIcEEE18_M_expression_termILb1ELb0EEEbRNS4_13_BracketStateERNS_15_BracketMatcherIS3_XT_EXT0_EEE, address: 1417008
	->Name: _ZNSt8__detail9_CompilerINSt7__cxx1112regex_traitsIcEEE18_M_expression_termILb1ELb0EEEbRNS4_13_BracketStateERNS_15_BracketMatcherIS3_XT_EXT0_EEE, address: 1351472, vaddr: 65536
Name: __printf_chk@GLIBC_2.3.4, address: 0
Name: ftell@GLIBC_2.2.5, address: 0
Name: _Znam@GLIBCXX_3.4, address: 0
Name: gguf_set_val_bool, address: 575552
	->Name: gguf_set_val_bool, address: 510016, vaddr: 65536
Name: _ZNSt11unique_lockISt5mutexE6unlockEv, address: 1094240
	->Name: _ZNSt11unique_lockISt5mutexE6unlockEv, address: 1028704, vaddr: 65536
Name: cuMemCreate, address: 0
Name: _ZNSt10_HashtableINSt7__cxx1112basic_stringIcSt11char_traitsIcESaIcEEESt4pairIKS5_18llama_sampler_typeESaIS9_ENSt8__detail10_Select1stESt8equal_toIS5_ESt4hashIS5_ENSB_18_Mod_range_hashingENSB_20_Default_ranged_hashENSB_20_Prime_rehash_policyENSB_17_Hashtable_traitsILb1ELb0ELb1EEEE4findERS7_, address: 1287216
	->Name: _ZNSt10_HashtableINSt7__cxx1112basic_stringIcSt11char_traitsIcESaIcEEESt4pairIKS5_18llama_sampler_typeESaIS9_ENSt8__detail10_Select1stESt8equal_toIS5_ESt4hashIS5_ENSB_18_Mod_range_hashingENSB_20_Default_ranged_hashENSB_20_Prime_rehash_policyENSB_17_Hashtable_traitsILb1ELb0ELb1EEEE4findERS7_, address: 1221680, vaddr: 65536
Name: _Z21launch_fattn_f16_implILi112ELi16ELi4ELi2EfEvPK11ggml_tensorS2_S2_PS0_S2_R14ggml_cuda_poolP11CUstream_st, address: 1941504
	->Name: _Z21launch_fattn_f16_implILi112ELi16ELi4ELi2EfEvPK11ggml_tensorS2_S2_PS0_S2_R14ggml_cuda_poolP11CUstream_st, address: 1875968, vaddr: 65536
Name: _ZN10gpt_paramsD1Ev, address: 1266768
	->Name: _ZN10gpt_paramsD1Ev, address: 1201232, vaddr: 65536
Name: quantize_q8_0, address: 2461904
	->Name: quantize_q8_0, address: 2396368, vaddr: 65536
Name: _ZNSt6vectorINSt7__cxx1112basic_stringIcSt11char_traitsIcESaIcEEESaIS5_EE12emplace_backIJRPcEEEvDpOT_, address: 1285296
	->Name: _ZNSt6vectorINSt7__cxx1112basic_stringIcSt11char_traitsIcESaIcEEESaIS5_EE12emplace_backIJRPcEEEvDpOT_, address: 1219760, vaddr: 65536
Name: ggml_map_custom2_f32, address: 483632
	->Name: ggml_map_custom2_f32, address: 418096, vaddr: 65536
Name: _ZNSo3putEc@GLIBCXX_3.4, address: 0
Name: _ZNSt17_Function_handlerIFbwENSt8__detail11_AnyMatcherINSt7__cxx1112regex_traitsIwEELb1ELb0ELb1EEEE10_M_managerERSt9_Any_dataRKS8_St18_Manager_operation, address: 2574608
	->Name: _ZNSt17_Function_handlerIFbwENSt8__detail11_AnyMatcherINSt7__cxx1112regex_traitsIwEELb1ELb0ELb1EEEE10_M_managerERSt9_Any_dataRKS8_St18_Manager_operation, address: 2509072, vaddr: 65536
Name: _ZNSt17_Function_handlerIFNSt7__cxx1112basic_stringIcSt11char_traitsIcESaIcEEERKSt6vectorIS5_SaIS5_EEbEZN15SchemaConverter18_build_object_ruleERKS6_ISt4pairIS5_N8nlohmann16json_abi_v3_11_310basic_jsonINSF_11ordered_mapES6_S5_blmdSaNSF_14adl_serializerES6_IhSaIhEEvEEESaISM_EERKSt13unordered_setIS5_St4hashIS5_ESt8equal_toIS5_ES7_ERKS5_RKSL_EUlSA_bE_E10_M_managerERSt9_Any_dataRKS15_St18_Manager_operation, address: 1488784
	->Name: _ZNSt17_Function_handlerIFNSt7__cxx1112basic_stringIcSt11char_traitsIcESaIcEEERKSt6vectorIS5_SaIS5_EEbEZN15SchemaConverter18_build_object_ruleERKS6_ISt4pairIS5_N8nlohmann16json_abi_v3_11_310basic_jsonINSF_11ordered_mapES6_S5_blmdSaNSF_14adl_serializerES6_IhSaIhEEvEEESaISM_EERKSt13unordered_setIS5_St4hashIS5_ESt8equal_toIS5_ES7_ERKS5_RKSL_EUlSA_bE_E10_M_managerERSt9_Any_dataRKS15_St18_Manager_operation, address: 1423248, vaddr: 65536
Name: _ZNSt23mersenne_twister_engineImLm32ELm624ELm397ELm31ELm2567483615ELm11ELm4294967295ELm7ELm2636928640ELm15ELm4022730752ELm18ELm1812433253EE11_M_gen_randEv, address: 1186000
	->Name: _ZNSt23mersenne_twister_engineImLm32ELm624ELm397ELm31ELm2567483615ELm11ELm4294967295ELm7ELm2636928640ELm15ELm4022730752ELm18ELm1812433253EE11_M_gen_randEv, address: 1120464, vaddr: 65536
Name: llama_load_model_from_file, address: 949328
	->Name: llama_load_model_from_file, address: 883792, vaddr: 65536
Name: _ZNSt8__detail8_ScannerIwE17_M_eat_escape_awkEv, address: 2585312
	->Name: _ZNSt8__detail8_ScannerIwE17_M_eat_escape_awkEv, address: 2519776, vaddr: 65536
Name: ggml_conv_2d_sk_p0, address: 472624
	->Name: ggml_conv_2d_sk_p0, address: 407088, vaddr: 65536
Name: _ZN8nlohmann16json_abi_v3_11_36detail21output_string_adapterIcNSt7__cxx1112basic_stringIcSt11char_traitsIcESaIcEEEED0Ev, address: 1488096
	->Name: _ZN8nlohmann16json_abi_v3_11_36detail21output_string_adapterIcNSt7__cxx1112basic_stringIcSt11char_traitsIcESaIcEEEED0Ev, address: 1422560, vaddr: 65536
Name: _ZNSt6vectorI16llama_token_dataSaIS0_EE17_M_realloc_insertIJRKS0_EEEvN9__gnu_cxx17__normal_iteratorIPS0_S2_EEDpOT_, address: 1127104
	->Name: _ZNSt6vectorI16llama_token_dataSaIS0_EE17_M_realloc_insertIJRKS0_EEEvN9__gnu_cxx17__normal_iteratorIPS0_S2_EEDpOT_, address: 1061568, vaddr: 65536
Name: _Z20launch_fattn_vec_f16ILi64ELi4ELi4EEvPK11ggml_tensorS2_S2_PS0_S2_R14ggml_cuda_poolP11CUstream_st, address: 2064064
	->Name: _Z20launch_fattn_vec_f16ILi64ELi4ELi4EEvPK11ggml_tensorS2_S2_PS0_S2_R14ggml_cuda_poolP11CUstream_st, address: 1998528, vaddr: 65536
Name: _ZNK6LLM_TNclE10llm_tensorRKNSt7__cxx1112basic_stringIcSt11char_traitsIcESaIcEEEi, address: 973072
	->Name: _ZNK6LLM_TNclE10llm_tensorRKNSt7__cxx1112basic_stringIcSt11char_traitsIcESaIcEEEi, address: 907536, vaddr: 65536
Name: ggml_is_empty, address: 373008
	->Name: ggml_is_empty, address: 307472, vaddr: 65536
Name: _ZNSt17_Function_handlerIFbcENSt8__detail11_AnyMatcherINSt7__cxx1112regex_traitsIcEELb1ELb1ELb1EEEE9_M_invokeERKSt9_Any_dataOc, address: 1261504
	->Name: _ZNSt17_Function_handlerIFbcENSt8__detail11_AnyMatcherINSt7__cxx1112regex_traitsIcEELb1ELb1ELb1EEEE9_M_invokeERKSt9_Any_dataOc, address: 1195968, vaddr: 65536
Name: quantize_row_q5_K_reference, address: 2448496
	->Name: quantize_row_q5_K_reference, address: 2382960, vaddr: 65536
Name: _ZNSt4pairINSt7__cxx1112basic_stringIcSt11char_traitsIcESaIcEEES5_ED1Ev, address: 1395744
	->Name: _ZNSt4pairINSt7__cxx1112basic_stringIcSt11char_traitsIcESaIcEEES5_ED1Ev, address: 1330208, vaddr: 65536
Name: __errno_location@GLIBC_2.2.5, address: 0
Name: _ZN8nlohmann16json_abi_v3_11_36detail28json_sax_dom_callback_parserINS0_10basic_jsonINS0_11ordered_mapESt6vectorNSt7__cxx1112basic_stringIcSt11char_traitsIcESaIcEEEblmdSaNS0_14adl_serializerES5_IhSaIhEEvEEE12handle_valueINS1_7value_tEEESt4pairIbPSF_EOT_b, address: 1306352
	->Name: _ZN8nlohmann16json_abi_v3_11_36detail28json_sax_dom_callback_parserINS0_10basic_jsonINS0_11ordered_mapESt6vectorNSt7__cxx1112basic_stringIcSt11char_traitsIcESaIcEEEblmdSaNS0_14adl_serializerES5_IhSaIhEEvEEE12handle_valueINS1_7value_tEEESt4pairIbPSF_EOT_b, address: 1240816, vaddr: 65536
Name: _ZNSt8__detail4_NFAINSt7__cxx1112regex_traitsIwEEE15_M_insert_dummyEv, address: 2590448
	->Name: _ZNSt8__detail4_NFAINSt7__cxx1112regex_traitsIwEEE15_M_insert_dummyEv, address: 2524912, vaddr: 65536
Name: _Z21launch_fattn_f16_implILi64ELi8ELi4ELi2E6__halfEvPK11ggml_tensorS3_S3_PS1_S3_R14ggml_cuda_poolP11CUstream_st, address: 1974784
	->Name: _Z21launch_fattn_f16_implILi64ELi8ELi4ELi2E6__halfEvPK11ggml_tensorS3_S3_PS1_S3_R14ggml_cuda_poolP11CUstream_st, address: 1909248, vaddr: 65536
Name: _ZNSt6vectorIS_IPK21llama_grammar_elementSaIS2_EESaIS4_EE12emplace_backIJRKS4_EEEvDpOT_, address: 1125408
	->Name: _ZNSt6vectorIS_IPK21llama_grammar_elementSaIS2_EESaIS4_EE12emplace_backIJRKS4_EEEvDpOT_, address: 1059872, vaddr: 65536
Name: _ZN17llm_build_context9build_mptEv, address: 1023856
	->Name: _ZN17llm_build_context9build_mptEv, address: 958320, vaddr: 65536
Name: _Z21ggml_get_to_fp16_cuda9ggml_type, address: 1821536
	->Name: _Z21ggml_get_to_fp16_cuda9ggml_type, address: 1756000, vaddr: 65536
Name: _ZNSt8__detail9_ExecutorIPKcSaINSt7__cxx119sub_matchIS2_EEENS3_12regex_traitsIcEELb1EE16_M_rep_once_moreENS9_11_Match_modeEl, address: 2622608
	->Name: _ZNSt8__detail9_ExecutorIPKcSaINSt7__cxx119sub_matchIS2_EEENS3_12regex_traitsIcEELb1EE16_M_rep_once_moreENS9_11_Match_modeEl, address: 2557072, vaddr: 65536
Name: _ZN8nlohmann16json_abi_v3_11_36detail11parse_error6createIDnLi0EEES2_iRKNS1_10position_tERKNSt7__cxx1112basic_stringIcSt11char_traitsIcESaIcEEET_, address: 1287728
	->Name: _ZN8nlohmann16json_abi_v3_11_36detail11parse_error6createIDnLi0EEES2_iRKNS1_10position_tERKNSt7__cxx1112basic_stringIcSt11char_traitsIcESaIcEEET_, address: 1222192, vaddr: 65536
Name: _ZNSt17_Function_handlerIFbcENSt8__detail11_AnyMatcherINSt7__cxx1112regex_traitsIcEELb1ELb0ELb1EEEE9_M_invokeERKSt9_Any_dataOc, address: 1259008
	->Name: _ZNSt17_Function_handlerIFbcENSt8__detail11_AnyMatcherINSt7__cxx1112regex_traitsIcEELb1ELb0ELb1EEEE9_M_invokeERKSt9_Any_dataOc, address: 1193472, vaddr: 65536
Name: ggml_backend_cuda_host_buffer_type, address: 1689568
	->Name: ggml_backend_cuda_host_buffer_type, address: 1624032, vaddr: 65536
Name: _ZNSt4pairIKNSt7__cxx1112basic_stringIcSt11char_traitsIcESaIcEEEN8nlohmann16json_abi_v3_11_310basic_jsonINS8_11ordered_mapESt6vectorS5_blmdSaNS8_14adl_serializerESB_IhSaIhEEvEEED2Ev, address: 1320400
	->Name: _ZNSt4pairIKNSt7__cxx1112basic_stringIcSt11char_traitsIcESaIcEEEN8nlohmann16json_abi_v3_11_310basic_jsonINS8_11ordered_mapESt6vectorS5_blmdSaNS8_14adl_serializerESB_IhSaIhEEvEEED2Ev, address: 1254864, vaddr: 65536
Name: cudaMalloc@libcudart.so.12, address: 0
Name: _ZNSt10_HashtableIcSt4pairIKcNSt7__cxx1112basic_stringIcSt11char_traitsIcESaIcEEEESaIS8_ENSt8__detail10_Select1stESt8equal_toIcESt4hashIcENSA_18_Mod_range_hashingENSA_20_Default_ranged_hashENSA_20_Prime_rehash_policyENSA_17_Hashtable_traitsILb0ELb0ELb1EEEEC1IPKS8_EET_SP_mRKSF_RKSD_RKS9_St17integral_constantIbLb1EE, address: 1537936
	->Name: _ZNSt10_HashtableIcSt4pairIKcNSt7__cxx1112basic_stringIcSt11char_traitsIcESaIcEEEESaIS8_ENSt8__detail10_Select1stESt8equal_toIcESt4hashIcENSA_18_Mod_range_hashingENSA_20_Default_ranged_hashENSA_20_Prime_rehash_policyENSA_17_Hashtable_traitsILb0ELb0ELb1EEEEC1IPKS8_EET_SP_mRKSF_RKSD_RKS9_St17integral_constantIbLb1EE, address: 1472400, vaddr: 65536
Name: _ZNSt6chrono3_V212system_clock3nowEv@GLIBCXX_3.4.19, address: 0
Name: _Z20launch_fattn_vec_f32ILi128ELi2ELi4EEvPK11ggml_tensorS2_S2_PS0_S2_R14ggml_cuda_poolP11CUstream_st, address: 2089088
	->Name: _Z20launch_fattn_vec_f32ILi128ELi2ELi4EEvPK11ggml_tensorS2_S2_PS0_S2_R14ggml_cuda_poolP11CUstream_st, address: 2023552, vaddr: 65536
Name: _ZNSt6thread11_State_implINS_8_InvokerISt5tupleIJMNSt13__future_base17_Async_state_implINS1_IS2_IJZN18llama_model_loader13load_all_dataEP12ggml_contextRSt13unordered_mapIjP19ggml_backend_bufferSt4hashIjESt8equal_toIjESaISt4pairIKjSA_EEEPSt6vectorISt10unique_ptrI11llama_mlockSt14default_deleteISN_EESaISQ_EEPFbfPvESU_EUlvE_EEEESF_IP11ggml_tensorbEEEFvvEPS13_EEEEE6_M_runEv, address: 959792
	->Name: _ZNSt6thread11_State_implINS_8_InvokerISt5tupleIJMNSt13__future_base17_Async_state_implINS1_IS2_IJZN18llama_model_loader13load_all_dataEP12ggml_contextRSt13unordered_mapIjP19ggml_backend_bufferSt4hashIjESt8equal_toIjESaISt4pairIKjSA_EEEPSt6vectorISt10unique_ptrI11llama_mlockSt14default_deleteISN_EESaISQ_EEPFbfPvESU_EUlvE_EEEESF_IP11ggml_tensorbEEEFvvEPS13_EEEEE6_M_runEv, address: 894256, vaddr: 65536
Name: _ZNSt8__detail4_NFAINSt7__cxx1112regex_traitsIcEEE15_M_insert_stateENS_6_StateIcEE, address: 1335296
	->Name: _ZNSt8__detail4_NFAINSt7__cxx1112regex_traitsIcEEE15_M_insert_stateENS_6_StateIcEE, address: 1269760, vaddr: 65536
Name: _ZN8nlohmann16json_abi_v3_11_310basic_jsonINS0_11ordered_mapESt6vectorNSt7__cxx1112basic_stringIcSt11char_traitsIcESaIcEEEblmdSaNS0_14adl_serializerES3_IhSaIhEEvE5parseIRPcEESD_OT_St8functionIFbiNS0_6detail13parse_event_tERSD_EEbb, address: 1371952
	->Name: _ZN8nlohmann16json_abi_v3_11_310basic_jsonINS0_11ordered_mapESt6vectorNSt7__cxx1112basic_stringIcSt11char_traitsIcESaIcEEEblmdSaNS0_14adl_serializerES3_IhSaIhEEvE5parseIRPcEESD_OT_St8functionIFbiNS0_6detail13parse_event_tERSD_EEbb, address: 1306416, vaddr: 65536
Name: llama_context_default_params, address: 634320
	->Name: llama_context_default_params, address: 568784, vaddr: 65536
Name: _ZNSt8__detail9_CompilerINSt7__cxx1112regex_traitsIwEEE22_M_insert_char_matcherILb1ELb1EEEvv, address: 2608176
	->Name: _ZNSt8__detail9_CompilerINSt7__cxx1112regex_traitsIwEEE22_M_insert_char_matcherILb1ELb1EEEvv, address: 2542640, vaddr: 65536
Name: _ZN10gpt_paramsC2Ev, address: 1299680
	->Name: _ZN10gpt_paramsC2Ev, address: 1234144, vaddr: 65536
Name: _ZNSt8__detail6_StateIcED2Ev, address: 1301936
	->Name: _ZNSt8__detail6_StateIcED2Ev, address: 1236400, vaddr: 65536
Name: _ZNSt17_Function_handlerIFbwENSt8__detail15_BracketMatcherINSt7__cxx1112regex_traitsIwEELb1ELb0EEEE9_M_invokeERKSt9_Any_dataOw, address: 2631904
	->Name: _ZNSt17_Function_handlerIFbwENSt8__detail15_BracketMatcherINSt7__cxx1112regex_traitsIwEELb1ELb0EEEE9_M_invokeERKSt9_Any_dataOw, address: 2566368, vaddr: 65536
Name: ggml_backend_compare_graph_backend, address: 2331488
	->Name: ggml_backend_compare_graph_backend, address: 2265952, vaddr: 65536
Name: isspace@GLIBC_2.2.5, address: 0
Name: _ZNSt8__detail9_CompilerINSt7__cxx1112regex_traitsIwEEE33_M_insert_character_class_matcherILb1ELb1EEEvv, address: 2626544
	->Name: _ZNSt8__detail9_CompilerINSt7__cxx1112regex_traitsIwEEE33_M_insert_character_class_matcherILb1ELb1EEEvv, address: 2561008, vaddr: 65536
Name: ggml_sum, address: 451904
	->Name: ggml_sum, address: 386368, vaddr: 65536
Name: ggml_unary_inplace, address: 482480
	->Name: ggml_unary_inplace, address: 416944, vaddr: 65536
Name: ggml_set_i32_1d, address: 434512
	->Name: ggml_set_i32_1d, address: 368976, vaddr: 65536
Name: _Z21launch_fattn_f16_implILi80ELi32ELi4ELi4E6__halfEvPK11ggml_tensorS3_S3_PS1_S3_R14ggml_cuda_poolP11CUstream_st, address: 2018976
	->Name: _Z21launch_fattn_f16_implILi80ELi32ELi4ELi4E6__halfEvPK11ggml_tensorS3_S3_PS1_S3_R14ggml_cuda_poolP11CUstream_st, address: 1953440, vaddr: 65536
Name: _ZNSt8__detail9_Map_baseINSt7__cxx1112basic_stringIcSt11char_traitsIcESaIcEEESt4pairIKS6_hESaIS9_ENS_10_Select1stESt8equal_toIS6_ESt4hashIS6_ENS_18_Mod_range_hashingENS_20_Default_ranged_hashENS_20_Prime_rehash_policyENS_17_Hashtable_traitsILb1ELb0ELb1EEELb1EEixEOS6_, address: 2582912
	->Name: _ZNSt8__detail9_Map_baseINSt7__cxx1112basic_stringIcSt11char_traitsIcESaIcEEESt4pairIKS6_hESaIS9_ENS_10_Select1stESt8equal_toIS6_ESt4hashIS6_ENS_18_Mod_range_hashingENS_20_Default_ranged_hashENS_20_Prime_rehash_policyENS_17_Hashtable_traitsILb1ELb0ELb1EEELb1EEixEOS6_, address: 2517376, vaddr: 65536
Name: _ZNSt15__exception_ptr13exception_ptr9_M_addrefEv@CXXABI_1.3.13, address: 0
Name: _ZNSt6vectorI7no_initIhESaIS1_EE17_M_default_appendEm, address: 1107760
	->Name: _ZNSt6vectorI7no_initIhESaIS1_EE17_M_default_appendEm, address: 1042224, vaddr: 65536
Name: _ZNSt10_HashtableINSt7__cxx1112basic_stringIcSt11char_traitsIcESaIcEEESt4pairIKS5_11BuiltinRuleESaIS9_ENSt8__detail10_Select1stESt8equal_toIS5_ESt4hashIS5_ENSB_18_Mod_range_hashingENSB_20_Default_ranged_hashENSB_20_Prime_rehash_policyENSB_17_Hashtable_traitsILb1ELb0ELb1EEEED1Ev, address: 1497824
	->Name: _ZNSt10_HashtableINSt7__cxx1112basic_stringIcSt11char_traitsIcESaIcEEESt4pairIKS5_11BuiltinRuleESaIS9_ENSt8__detail10_Select1stESt8equal_toIS5_ESt4hashIS5_ENSB_18_Mod_range_hashingENSB_20_Default_ranged_hashENSB_20_Prime_rehash_policyENSB_17_Hashtable_traitsILb1ELb0ELb1EEEED1Ev, address: 1432288, vaddr: 65536
Name: _Z21launch_fattn_f16_implILi128ELi8ELi4ELi4E6__halfEvPK11ggml_tensorS3_S3_PS1_S3_R14ggml_cuda_poolP11CUstream_st, address: 1981536
	->Name: _Z21launch_fattn_f16_implILi128ELi8ELi4ELi4E6__halfEvPK11ggml_tensorS3_S3_PS1_S3_R14ggml_cuda_poolP11CUstream_st, address: 1916000, vaddr: 65536
Name: cudaGetDevice@libcudart.so.12, address: 0
Name: _Z21ggml_get_to_fp32_cuda9ggml_type, address: 1821920
	->Name: _Z21ggml_get_to_fp32_cuda9ggml_type, address: 1756384, vaddr: 65536
Name: dequantize_row_iq2_s, address: 2463376
	->Name: dequantize_row_iq2_s, address: 2397840, vaddr: 65536
Name: ggml_new_tensor, address: 427664
	->Name: ggml_new_tensor, address: 362128, vaddr: 65536
Name: _ZN8nlohmann16json_abi_v3_11_36detail9dtoa_impl18compute_boundariesIdEENS2_10boundariesET_, address: 1539760
	->Name: _ZN8nlohmann16json_abi_v3_11_36detail9dtoa_impl18compute_boundariesIdEENS2_10boundariesET_, address: 1474224, vaddr: 65536
Name: ggml_hash_set_new, address: 520192
	->Name: ggml_hash_set_new, address: 454656, vaddr: 65536
Name: ggml_backend_buft_supports_backend, address: 2312192
	->Name: ggml_backend_buft_supports_backend, address: 2246656, vaddr: 65536
Name: _ZNSt13unordered_setIjSt4hashIjESt8equal_toIjESaIjEED2Ev, address: 2575600
	->Name: _ZNSt13unordered_setIjSt4hashIjESt8equal_toIjESaIjEED2Ev, address: 2510064, vaddr: 65536
Name: _ZNSt11_Deque_baseIlSaIlEED2Ev, address: 1358560
	->Name: _ZNSt11_Deque_baseIlSaIlEED2Ev, address: 1293024, vaddr: 65536
Name: _ZN8nlohmann16json_abi_v3_11_36detail6concatINSt7__cxx1112basic_stringIcSt11char_traitsIcESaIcEEEJRA29_KcPS9_EEET_DpOT0_, address: 1533280
	->Name: _ZN8nlohmann16json_abi_v3_11_36detail6concatINSt7__cxx1112basic_stringIcSt11char_traitsIcESaIcEEEJRA29_KcPS9_EEET_DpOT0_, address: 1467744, vaddr: 65536
Name: ggml_n_dims, address: 336736
	->Name: ggml_n_dims, address: 271200, vaddr: 65536
Name: ggml_view_3d, address: 462992
	->Name: ggml_view_3d, address: 397456, vaddr: 65536
Name: ggml_nbytes, address: 317616
	->Name: ggml_nbytes, address: 252080, vaddr: 65536
Name: _ZNSt8__detail6_StateIwED1Ev, address: 2583952
	->Name: _ZNSt8__detail6_StateIwED1Ev, address: 2518416, vaddr: 65536
Name: _ZNSt6vectorINSt7__cxx119sub_matchIPKwEESaIS4_EE14_M_fill_assignEmRKS4_, address: 2587520
	->Name: _ZNSt6vectorINSt7__cxx119sub_matchIPKwEESaIS4_EE14_M_fill_assignEmRKS4_, address: 2521984, vaddr: 65536
Name: _ZNSt23_Sp_counted_ptr_inplaceINSt13__future_base15_Deferred_stateINSt6thread8_InvokerISt5tupleIJZN18llama_model_loader13load_all_dataEP12ggml_contextRSt13unordered_mapIjP19ggml_backend_bufferSt4hashIjESt8equal_toIjESaISt4pairIKjSA_EEEPSt6vectorISt10unique_ptrI11llama_mlockSt14default_deleteISN_EESaISQ_EEPFbfPvESU_EUlvE0_EEEESF_IP11ggml_tensorbEEESaIS13_ELN9__gnu_cxx12_Lock_policyE2EED0Ev, address: 960064
	->Name: _ZNSt23_Sp_counted_ptr_inplaceINSt13__future_base15_Deferred_stateINSt6thread8_InvokerISt5tupleIJZN18llama_model_loader13load_all_dataEP12ggml_contextRSt13unordered_mapIjP19ggml_backend_bufferSt4hashIjESt8equal_toIjESaISt4pairIKjSA_EEEPSt6vectorISt10unique_ptrI11llama_mlockSt14default_deleteISN_EESaISQ_EEPFbfPvESU_EUlvE0_EEEESF_IP11ggml_tensorbEEESaIS13_ELN9__gnu_cxx12_Lock_policyE2EED0Ev, address: 894528, vaddr: 65536
Name: ggml_reshape, address: 460752
	->Name: ggml_reshape, address: 395216, vaddr: 65536
Name: _ZN14grammar_parser13print_grammarEP8_IO_FILERKNS_11parse_stateE, address: 1462464
	->Name: _ZN14grammar_parser13print_grammarEP8_IO_FILERKNS_11parse_stateE, address: 1396928, vaddr: 65536
Name: ggml_vec_dot_iq2_s_q8_K, address: 2484208
	->Name: ggml_vec_dot_iq2_s_q8_K, address: 2418672, vaddr: 65536
Name: ggml_step_inplace, address: 482592
	->Name: ggml_step_inplace, address: 417056, vaddr: 65536
Name: cudaMemset@libcudart.so.12, address: 0
Name: quantize_row_q5_0, address: 2422576
	->Name: quantize_row_q5_0, address: 2357040, vaddr: 65536
Name: quantize_row_iq3_xxs, address: 2506672
	->Name: quantize_row_iq3_xxs, address: 2441136, vaddr: 65536
Name: _ZNK8nlohmann16json_abi_v3_11_36detail9iter_implIKNS0_10basic_jsonINS0_11ordered_mapESt6vectorNSt7__cxx1112basic_stringIcSt11char_traitsIcESaIcEEEblmdSaNS0_14adl_serializerES5_IhSaIhEEvEEEeqISH_LDnEEEbRKT_, address: 1510336
	->Name: _ZNK8nlohmann16json_abi_v3_11_36detail9iter_implIKNS0_10basic_jsonINS0_11ordered_mapESt6vectorNSt7__cxx1112basic_stringIcSt11char_traitsIcESaIcEEEblmdSaNS0_14adl_serializerES5_IhSaIhEEvEEEeqISH_LDnEEEbRKT_, address: 1444800, vaddr: 65536
Name: _ZNSt17_Function_handlerIFbwENSt8__detail11_AnyMatcherINSt7__cxx1112regex_traitsIwEELb0ELb1ELb1EEEE10_M_managerERSt9_Any_dataRKS8_St18_Manager_operation, address: 2574528
	->Name: _ZNSt17_Function_handlerIFbwENSt8__detail11_AnyMatcherINSt7__cxx1112regex_traitsIwEELb0ELb1ELb1EEEE10_M_managerERSt9_Any_dataRKS8_St18_Manager_operation, address: 2508992, vaddr: 65536
Name: strtoll@GLIBC_2.2.5, address: 0
Name: _ZNSt17_Function_handlerIFbwENSt8__detail12_CharMatcherINSt7__cxx1112regex_traitsIwEELb0ELb1EEEE9_M_invokeERKSt9_Any_dataOw, address: 2574224
	->Name: _ZNSt17_Function_handlerIFbwENSt8__detail12_CharMatcherINSt7__cxx1112regex_traitsIwEELb0ELb1EEEE9_M_invokeERKSt9_Any_dataOw, address: 2508688, vaddr: 65536
Name: ggml_silu, address: 482432
	->Name: ggml_silu, address: 416896, vaddr: 65536
Name: _ZNSt8_Rb_treeI10llm_tensorSt4pairIKS0_NSt7__cxx1112basic_stringIcSt11char_traitsIcESaIcEEEESt10_Select1stIS9_ESt4lessIS0_ESaIS9_EEC1ERKSF_, address: 1098032
	->Name: _ZNSt8_Rb_treeI10llm_tensorSt4pairIKS0_NSt7__cxx1112basic_stringIcSt11char_traitsIcESaIcEEEESt10_Select1stIS9_ESt4lessIS0_ESaIS9_EEC1ERKSF_, address: 1032496, vaddr: 65536
Name: _Z21launch_fattn_f16_implILi128ELi16ELi4ELi4E6__halfEvPK11ggml_tensorS3_S3_PS1_S3_R14ggml_cuda_poolP11CUstream_st, address: 2006496
	->Name: _Z21launch_fattn_f16_implILi128ELi16ELi4ELi4E6__halfEvPK11ggml_tensorS3_S3_PS1_S3_R14ggml_cuda_poolP11CUstream_st, address: 1940960, vaddr: 65536
Name: llama_add_eos_token, address: 648256
	->Name: llama_add_eos_token, address: 582720, vaddr: 65536
Name: _Z20launch_fattn_vec_f32ILi64ELi4ELi4EEvPK11ggml_tensorS2_S2_PS0_S2_R14ggml_cuda_poolP11CUstream_st, address: 2090672
	->Name: _Z20launch_fattn_vec_f32ILi64ELi4ELi4EEvPK11ggml_tensorS2_S2_PS0_S2_R14ggml_cuda_poolP11CUstream_st, address: 2025136, vaddr: 65536
Name: _ZNSt13__future_base7_ResultISt4pairIP11ggml_tensorbEE10_M_destroyEv, address: 962240
	->Name: _ZNSt13__future_base7_ResultISt4pairIP11ggml_tensorbEE10_M_destroyEv, address: 896704, vaddr: 65536
Name: _ZZNSt9once_flag18_Prepare_executionC4IZSt9call_onceIMSt6threadFvvEJPS3_EEvRS_OT_DpOT0_EUlvE_EERS8_ENUlvE_4_FUNEv, address: 962176
	->Name: _ZZNSt9once_flag18_Prepare_executionC4IZSt9call_onceIMSt6threadFvvEJPS3_EEvRS_OT_DpOT0_EUlvE_EERS8_ENUlvE_4_FUNEv, address: 896640, vaddr: 65536
Name: _Z26llama_init_from_gpt_paramsR10gpt_params, address: 1214496
	->Name: _Z26llama_init_from_gpt_paramsR10gpt_params, address: 1148960, vaddr: 65536
Name: llama_state_get_data, address: 727104
	->Name: llama_state_get_data, address: 661568, vaddr: 65536
Name: ggml_backend_free, address: 2313552
	->Name: ggml_backend_free, address: 2248016, vaddr: 65536
Name: _ZN8nlohmann16json_abi_v3_11_36detail6concatINSt7__cxx1112basic_stringIcSt11char_traitsIcESaIcEEEJRA51_KcPS9_EEET_DpOT0_, address: 1504096
	->Name: _ZN8nlohmann16json_abi_v3_11_36detail6concatINSt7__cxx1112basic_stringIcSt11char_traitsIcESaIcEEEJRA51_KcPS9_EEET_DpOT0_, address: 1438560, vaddr: 65536
Name: _ZSt29_Rb_tree_insert_and_rebalancebPSt18_Rb_tree_node_baseS0_RS_@GLIBCXX_3.4, address: 0
Name: _ZNSt8__detail8_ScannerIwE14_M_scan_normalEv, address: 2586096
	->Name: _ZNSt8__detail8_ScannerIwE14_M_scan_normalEv, address: 2520560, vaddr: 65536
Name: _ZN8nlohmann16json_abi_v3_11_36detail6parserINS0_10basic_jsonINS0_11ordered_mapESt6vectorNSt7__cxx1112basic_stringIcSt11char_traitsIcESaIcEEEblmdSaNS0_14adl_serializerES5_IhSaIhEEvEENS1_22iterator_input_adapterIPKcEEE18sax_parse_internalINS1_28json_sax_dom_callback_parserISF_EEEEbPT_, address: 1362832
	->Name: _ZN8nlohmann16json_abi_v3_11_36detail6parserINS0_10basic_jsonINS0_11ordered_mapESt6vectorNSt7__cxx1112basic_stringIcSt11char_traitsIcESaIcEEEblmdSaNS0_14adl_serializerES5_IhSaIhEEvEENS1_22iterator_input_adapterIPKcEEE18sax_parse_internalINS1_28json_sax_dom_callback_parserISF_EEEEbPT_, address: 1297296, vaddr: 65536
Name: ggml_get_mem_size, address: 427648
	->Name: ggml_get_mem_size, address: 362112, vaddr: 65536
Name: _ZN18ggml_cuda_pool_vmmD1Ev, address: 1723312
	->Name: _ZN18ggml_cuda_pool_vmmD1Ev, address: 1657776, vaddr: 65536
Name: llama_beam_search, address: 744624
	->Name: llama_beam_search, address: 679088, vaddr: 65536
Name: ggml_get_f32_nd, address: 435312
	->Name: ggml_get_f32_nd, address: 369776, vaddr: 65536
Name: _ZNSt6vectorIiSaIiEE9push_backERKi, address: 1121264
	->Name: _ZNSt6vectorIiSaIiEE9push_backERKi, address: 1055728, vaddr: 65536
Name: _ZN8nlohmann16json_abi_v3_11_36detail9iter_implIKNS0_10basic_jsonINS0_11ordered_mapESt6vectorNSt7__cxx1112basic_stringIcSt11char_traitsIcESaIcEEEblmdSaNS0_14adl_serializerES5_IhSaIhEEvEEE9set_beginEv, address: 1512176
	->Name: _ZN8nlohmann16json_abi_v3_11_36detail9iter_implIKNS0_10basic_jsonINS0_11ordered_mapESt6vectorNSt7__cxx1112basic_stringIcSt11char_traitsIcESaIcEEEblmdSaNS0_14adl_serializerES5_IhSaIhEEvEEE9set_beginEv, address: 1446640, vaddr: 65536
Name: _ZNSt13__future_base15_Deferred_stateINSt6thread8_InvokerISt5tupleIJZN18llama_model_loader13load_all_dataEP12ggml_contextRSt13unordered_mapIjP19ggml_backend_bufferSt4hashIjESt8equal_toIjESaISt4pairIKjS9_EEEPSt6vectorISt10unique_ptrI11llama_mlockSt14default_deleteISM_EESaISP_EEPFbfPvEST_EUlvE_EEEESE_IP11ggml_tensorbEED0Ev, address: 963872
	->Name: _ZNSt13__future_base15_Deferred_stateINSt6thread8_InvokerISt5tupleIJZN18llama_model_loader13load_all_dataEP12ggml_contextRSt13unordered_mapIjP19ggml_backend_bufferSt4hashIjESt8equal_toIjESaISt4pairIKjS9_EEEPSt6vectorISt10unique_ptrI11llama_mlockSt14default_deleteISM_EESaISP_EEPFbfPvEST_EUlvE_EEEESE_IP11ggml_tensorbEED0Ev, address: 898336, vaddr: 65536
Name: _ZNSt10_HashtableIjSt4pairIKjP19ggml_backend_bufferESaIS4_ENSt8__detail10_Select1stESt8equal_toIjESt4hashIjENS6_18_Mod_range_hashingENS6_20_Default_ranged_hashENS6_20_Prime_rehash_policyENS6_17_Hashtable_traitsILb0ELb0ELb1EEEED1Ev, address: 1093232
	->Name: _ZNSt10_HashtableIjSt4pairIKjP19ggml_backend_bufferESaIS4_ENSt8__detail10_Select1stESt8equal_toIjESt4hashIjENS6_18_Mod_range_hashingENS6_20_Default_ranged_hashENS6_20_Prime_rehash_policyENS6_17_Hashtable_traitsILb0ELb0ELb1EEEED1Ev, address: 1027696, vaddr: 65536
Name: _ZSt7getlineIcSt11char_traitsIcESaIcEERSt13basic_istreamIT_T0_ES7_RNSt7__cxx1112basic_stringIS4_S5_T1_EE@GLIBCXX_3.4.21, address: 0
Name: _ZNSt8__detail4_NFAINSt7__cxx1112regex_traitsIwEEE17_M_insert_matcherESt8functionIFbwEE, address: 2594432
	->Name: _ZNSt8__detail4_NFAINSt7__cxx1112regex_traitsIwEEE17_M_insert_matcherESt8functionIFbwEE, address: 2528896, vaddr: 65536
Name: _ZNSt8__detail8_ScannerIwE18_M_scan_in_bracketEv, address: 2588800
	->Name: _ZNSt8__detail8_ScannerIwE18_M_scan_in_bracketEv, address: 2523264, vaddr: 65536
Name: _ZN17llm_build_context12build_refactEv, address: 1013136
	->Name: _ZN17llm_build_context12build_refactEv, address: 947600, vaddr: 65536
Name: _Z21launch_fattn_f16_implILi112ELi32ELi4ELi2E6__halfEvPK11ggml_tensorS3_S3_PS1_S3_R14ggml_cuda_poolP11CUstream_st, address: 2028864
	->Name: _Z21launch_fattn_f16_implILi112ELi32ELi4ELi2E6__halfEvPK11ggml_tensorS3_S3_PS1_S3_R14ggml_cuda_poolP11CUstream_st, address: 1963328, vaddr: 65536
Name: _ZNKSt8__detail9_ExecutorIN9__gnu_cxx17__normal_iteratorIPKcNSt7__cxx1112basic_stringIcSt11char_traitsIcESaIcEEEEESaINS5_9sub_matchISB_EEENS5_12regex_traitsIcEELb1EE21_M_is_line_terminatorEc, address: 1399376
	->Name: _ZNKSt8__detail9_ExecutorIN9__gnu_cxx17__normal_iteratorIPKcNSt7__cxx1112basic_stringIcSt11char_traitsIcESaIcEEEEESaINS5_9sub_matchISB_EEENS5_12regex_traitsIcEELb1EE21_M_is_line_terminatorEc, address: 1333840, vaddr: 65536
Name: _ZNK18llama_model_loader19require_tensor_metaEPKc, address: 977776
	->Name: _ZNK18llama_model_loader19require_tensor_metaEPKc, address: 912240, vaddr: 65536
Name: ggml_cont_1d, address: 460672
	->Name: ggml_cont_1d, address: 395136, vaddr: 65536
Name: ggml_scale, address: 456368
	->Name: ggml_scale, address: 390832, vaddr: 65536
Name: _ZN8nlohmann16json_abi_v3_11_36detail10serializerINS0_10basic_jsonINS0_11ordered_mapESt6vectorNSt7__cxx1112basic_stringIcSt11char_traitsIcESaIcEEEblmdSaNS0_14adl_serializerES5_IhSaIhEEvEEED1Ev, address: 1499680
	->Name: _ZN8nlohmann16json_abi_v3_11_36detail10serializerINS0_10basic_jsonINS0_11ordered_mapESt6vectorNSt7__cxx1112basic_stringIcSt11char_traitsIcESaIcEEEblmdSaNS0_14adl_serializerES5_IhSaIhEEvEEED1Ev, address: 1434144, vaddr: 65536
Name: quantize_iq1_m, address: 2518608
	->Name: quantize_iq1_m, address: 2453072, vaddr: 65536
Name: ggml_cpu_has_vulkan, address: 579664
	->Name: ggml_cpu_has_vulkan, address: 514128, vaddr: 65536
Name: ggml_view_tensor, address: 445136
	->Name: ggml_view_tensor, address: 379600, vaddr: 65536
Name: ggml_free, address: 427312
	->Name: ggml_free, address: 361776, vaddr: 65536
Name: cublasGetStatusString@libcublas.so.12, address: 0
Name: _ZSt11_Hash_bytesPKvmm@CXXABI_1.3.5, address: 0
Name: ggml_vec_dot_iq3_s_q8_K, address: 2486688
	->Name: ggml_vec_dot_iq3_s_q8_K, address: 2421152, vaddr: 65536
Name: ggml_rope_xpos_inplace, address: 469408
	->Name: ggml_rope_xpos_inplace, address: 403872, vaddr: 65536
Name: _ZNSt6vectorISt4pairINSt7__cxx1112basic_stringIcSt11char_traitsIcESaIcEEEP11ggml_tensorESaIS9_EE17_M_realloc_insertIJPKcRS8_EEEvN9__gnu_cxx17__normal_iteratorIPS9_SB_EEDpOT_, address: 1116832
	->Name: _ZNSt6vectorISt4pairINSt7__cxx1112basic_stringIcSt11char_traitsIcESaIcEEEP11ggml_tensorESaIS9_EE17_M_realloc_insertIJPKcRS8_EEEvN9__gnu_cxx17__normal_iteratorIPS9_SB_EEDpOT_, address: 1051296, vaddr: 65536
Name: _Z16launch_fattn_f16ILi128ELi32ELi4EfEvPK11ggml_tensorS2_S2_PS0_S2_iR14ggml_cuda_poolP11CUstream_st, address: 1972192
	->Name: _Z16launch_fattn_f16ILi128ELi32ELi4EfEvPK11ggml_tensorS2_S2_PS0_S2_iR14ggml_cuda_poolP11CUstream_st, address: 1906656, vaddr: 65536
Name: _ZNSt8_Rb_treeINSt7__cxx1112basic_stringIcSt11char_traitsIcESaIcEEESt4pairIKS5_S6_IiiEESt10_Select1stIS9_ESt4lessIS5_ESaIS9_EE4findERS7_, address: 1121312
	->Name: _ZNSt8_Rb_treeINSt7__cxx1112basic_stringIcSt11char_traitsIcESaIcEEESt4pairIKS5_S6_IiiEESt10_Select1stIS9_ESt4lessIS5_ESaIS9_EE4findERS7_, address: 1055776, vaddr: 65536
Name: _ZNSt10_HashtableIcSt4pairIKc18llama_sampler_typeESaIS3_ENSt8__detail10_Select1stESt8equal_toIcESt4hashIcENS5_18_Mod_range_hashingENS5_20_Default_ranged_hashENS5_20_Prime_rehash_policyENS5_17_Hashtable_traitsILb0ELb0ELb1EEEEC2IPKS3_EET_SK_mRKSA_RKS8_RKS4_St17integral_constantIbLb1EE, address: 1327424
	->Name: _ZNSt10_HashtableIcSt4pairIKc18llama_sampler_typeESaIS3_ENSt8__detail10_Select1stESt8equal_toIcESt4hashIcENS5_18_Mod_range_hashingENS5_20_Default_ranged_hashENS5_20_Prime_rehash_policyENS5_17_Hashtable_traitsILb0ELb0ELb1EEEEC2IPKS3_EET_SK_mRKSA_RKS8_RKS4_St17integral_constantIbLb1EE, address: 1261888, vaddr: 65536
Name: _Z32ggml_cuda_flash_attn_ext_vec_f32R25ggml_backend_cuda_contextP11ggml_tensor, address: 2079744
	->Name: _Z32ggml_cuda_flash_attn_ext_vec_f32R25ggml_backend_cuda_contextP11ggml_tensor, address: 2014208, vaddr: 65536
Name: ggml_time_init, address: 302528
	->Name: ggml_time_init, address: 236992, vaddr: 65536
Name: _ZNSt8__detail8_ScannerIcE10_M_advanceEv, address: 1319024
	->Name: _ZNSt8__detail8_ScannerIcE10_M_advanceEv, address: 1253488, vaddr: 65536
Name: _ZNSt8__detail9_CompilerINSt7__cxx1112regex_traitsIwEEE25_M_insert_bracket_matcherILb0ELb1EEEvb, address: 2655968
	->Name: _ZNSt8__detail9_CompilerINSt7__cxx1112regex_traitsIwEEE25_M_insert_bracket_matcherILb0ELb1EEEvb, address: 2590432, vaddr: 65536
Name: quantize_iq3_xxs, address: 2506416
	->Name: quantize_iq3_xxs, address: 2440880, vaddr: 65536
Name: _ZNSt10_HashtableINSt7__cxx1112basic_stringIcSt11char_traitsIcESaIcEEESt4pairIKS5_N8nlohmann16json_abi_v3_11_310basic_jsonINS9_11ordered_mapESt6vectorS5_blmdSaNS9_14adl_serializerESC_IhSaIhEEvEEESaISH_ENSt8__detail10_Select1stESt8equal_toIS5_ESt4hashIS5_ENSJ_18_Mod_range_hashingENSJ_20_Default_ranged_hashENSJ_20_Prime_rehash_policyENSJ_17_Hashtable_traitsILb1ELb0ELb1EEEE12_Scoped_nodeD1Ev, address: 1518592
	->Name: _ZNSt10_HashtableINSt7__cxx1112basic_stringIcSt11char_traitsIcESaIcEEESt4pairIKS5_N8nlohmann16json_abi_v3_11_310basic_jsonINS9_11ordered_mapESt6vectorS5_blmdSaNS9_14adl_serializerESC_IhSaIhEEvEEESaISH_ENSt8__detail10_Select1stESt8equal_toIS5_ESt4hashIS5_ENSJ_18_Mod_range_hashingENSJ_20_Default_ranged_hashENSJ_20_Prime_rehash_policyENSJ_17_Hashtable_traitsILb1ELb0ELb1EEEE12_Scoped_nodeD1Ev, address: 1453056, vaddr: 65536
Name: _ZNSt13unordered_setIcSt4hashIcESt8equal_toIcESaIcEED1Ev, address: 1489232
	->Name: _ZNSt13unordered_setIcSt4hashIcESt8equal_toIcESaIcEED1Ev, address: 1423696, vaddr: 65536
Name: llama_get_embeddings_seq, address: 642432
	->Name: llama_get_embeddings_seq, address: 576896, vaddr: 65536
Name: _ZN8nlohmann16json_abi_v3_11_36detail9iter_implINS0_10basic_jsonINS0_11ordered_mapESt6vectorNSt7__cxx1112basic_stringIcSt11char_traitsIcESaIcEEEblmdSaNS0_14adl_serializerES5_IhSaIhEEvEEEC2EPSF_, address: 1503744
	->Name: _ZN8nlohmann16json_abi_v3_11_36detail9iter_implINS0_10basic_jsonINS0_11ordered_mapESt6vectorNSt7__cxx1112basic_stringIcSt11char_traitsIcESaIcEEEblmdSaNS0_14adl_serializerES5_IhSaIhEEvEEEC2EPSF_, address: 1438208, vaddr: 65536
Name: _ZNSt6vectorI10llama_beamSaIS0_EED1Ev, address: 1093904
	->Name: _ZNSt6vectorI10llama_beamSaIS0_EED1Ev, address: 1028368, vaddr: 65536
Name: ggml_cpu_has_cuda, address: 579632
	->Name: ggml_cpu_has_cuda, address: 514096, vaddr: 65536
Name: cudaGraphExecUpdate@libcudart.so.12, address: 0
Name: _ZNSt13unordered_mapIjiSt4hashIjESt8equal_toIjESaISt4pairIKjiEEED2Ev, address: 2575472
	->Name: _ZNSt13unordered_mapIjiSt4hashIjESt8equal_toIjESaISt4pairIKjiEEED2Ev, address: 2509936, vaddr: 65536
Name: _ZNSt8__detail15_BracketMatcherINSt7__cxx1112regex_traitsIcEELb0ELb1EE8_M_readyEv, address: 1351200
	->Name: _ZNSt8__detail15_BracketMatcherINSt7__cxx1112regex_traitsIcEELb0ELb1EE8_M_readyEv, address: 1285664, vaddr: 65536
Name: _ZN21llama_sampling_paramsD2Ev, address: 1266544
	->Name: _ZN21llama_sampling_paramsD2Ev, address: 1201008, vaddr: 65536
Name: ggml_time_ms, address: 302544
	->Name: ggml_time_ms, address: 237008, vaddr: 65536
Name: ggml_cpu_has_matmul_int8, address: 579840
	->Name: ggml_cpu_has_matmul_int8, address: 514304, vaddr: 65536
Name: cudaLaunchKernel@libcudart.so.12, address: 0
Name: _ZNSolsEPSt15basic_streambufIcSt11char_traitsIcEE@GLIBCXX_3.4, address: 0
Name: cudaStreamDestroy@libcudart.so.12, address: 0
Name: cudaGraphKernelNodeSetParams@libcudart.so.12, address: 0
Name: ggml_backend_buffer_set_usage, address: 2325376
	->Name: ggml_backend_buffer_set_usage, address: 2259840, vaddr: 65536
Name: ggml_vec_dot_q4_0_q8_0, address: 2474816
	->Name: ggml_vec_dot_q4_0_q8_0, address: 2409280, vaddr: 65536
Name: llama_dump_timing_info_yaml, address: 669104
	->Name: llama_dump_timing_info_yaml, address: 603568, vaddr: 65536
Name: _ZNSt7codecvtIwc11__mbstate_tEC2Em@GLIBCXX_3.4, address: 0
Name: _ZNSt23_Sp_counted_ptr_inplaceIN8nlohmann16json_abi_v3_11_36detail21output_string_adapterIcNSt7__cxx1112basic_stringIcSt11char_traitsIcESaIcEEEEESaISA_ELN9__gnu_cxx12_Lock_policyE2EED2Ev, address: 1488032
	->Name: _ZNSt23_Sp_counted_ptr_inplaceIN8nlohmann16json_abi_v3_11_36detail21output_string_adapterIcNSt7__cxx1112basic_stringIcSt11char_traitsIcESaIcEEEEESaISA_ELN9__gnu_cxx12_Lock_policyE2EED2Ev, address: 1422496, vaddr: 65536
Name: ggml_bf16_to_fp32_row, address: 262112
	->Name: ggml_bf16_to_fp32_row, address: 196576, vaddr: 65536
Name: _ZSt20__throw_future_errori@GLIBCXX_3.4.14, address: 0
Name: _Z22llama_sampling_prepareP22llama_sampling_contextP13llama_contextS2_ibPSt6vectorIfSaIfEE, address: 1443872
	->Name: _Z22llama_sampling_prepareP22llama_sampling_contextP13llama_contextS2_ibPSt6vectorIfSaIfEE, address: 1378336, vaddr: 65536
Name: _ZN17llm_tokenizer_spmD1Ev, address: 1087120
	->Name: _ZN17llm_tokenizer_spmD1Ev, address: 1021584, vaddr: 65536
Name: _ZNSt17_Function_handlerIFbcENSt8__detail15_BracketMatcherINSt7__cxx1112regex_traitsIcEELb0ELb0EEEE9_M_invokeERKSt9_Any_dataOc, address: 1259072
	->Name: _ZNSt17_Function_handlerIFbcENSt8__detail15_BracketMatcherINSt7__cxx1112regex_traitsIcEELb0ELb0EEEE9_M_invokeERKSt9_Any_dataOc, address: 1193536, vaddr: 65536
Name: _ZN8nlohmann16json_abi_v3_11_36detail28json_sax_dom_callback_parserINS0_10basic_jsonINS0_11ordered_mapESt6vectorNSt7__cxx1112basic_stringIcSt11char_traitsIcESaIcEEEblmdSaNS0_14adl_serializerES5_IhSaIhEEvEEE10end_objectEv, address: 1361680
	->Name: _ZN8nlohmann16json_abi_v3_11_36detail28json_sax_dom_callback_parserINS0_10basic_jsonINS0_11ordered_mapESt6vectorNSt7__cxx1112basic_stringIcSt11char_traitsIcESaIcEEEblmdSaNS0_14adl_serializerES5_IhSaIhEEvEEE10end_objectEv, address: 1296144, vaddr: 65536
Name: cuMemAddressReserve, address: 0
Name: _ZStplIcSt11char_traitsIcESaIcEENSt7__cxx1112basic_stringIT_T0_T1_EEOS8_PKS5_, address: 1464416
	->Name: _ZStplIcSt11char_traitsIcESaIcEENSt7__cxx1112basic_stringIT_T0_T1_EEOS8_PKS5_, address: 1398880, vaddr: 65536
Name: _ZNSt6vectorIS_IPK21llama_grammar_elementSaIS2_EESaIS4_EED1Ev, address: 1093792
	->Name: _ZNSt6vectorIS_IPK21llama_grammar_elementSaIS2_EESaIS4_EED1Ev, address: 1028256, vaddr: 65536
Name: ggml_soft_max_back, address: 467072
	->Name: ggml_soft_max_back, address: 401536, vaddr: 65536
Name: _Z20llama_grammar_acceptRKSt6vectorIS_I21llama_grammar_elementSaIS0_EESaIS2_EERKS_IS_IPKS0_SaIS8_EESaISA_EEjRSC_, address: 737248
	->Name: _Z20llama_grammar_acceptRKSt6vectorIS_I21llama_grammar_elementSaIS0_EESaIS2_EERKS_IS_IPKS0_SaIS8_EESaISA_EEjRSC_, address: 671712, vaddr: 65536
Name: ggml_backend_sched_graph_compute_async, address: 2328688
	->Name: ggml_backend_sched_graph_compute_async, address: 2263152, vaddr: 65536
Name: _ZNSt6vectorI21llama_grammar_elementSaIS0_EE17_M_default_appendEm, address: 1465968
	->Name: _ZNSt6vectorI21llama_grammar_elementSaIS0_EE17_M_default_appendEm, address: 1400432, vaddr: 65536
Name: ggml_argsort, address: 475056
	->Name: ggml_argsort, address: 409520, vaddr: 65536
Name: _ZNSt8__detail9_CompilerINSt7__cxx1112regex_traitsIwEEE14_M_disjunctionEv, address: 2660016
	->Name: _ZNSt8__detail9_CompilerINSt7__cxx1112regex_traitsIwEEE14_M_disjunctionEv, address: 2594480, vaddr: 65536
Name: _ZNKSt7__cxx1112regex_traitsIwE16lookup_classnameIPKwEENS1_10_RegexMaskET_S6_b, address: 2598672
	->Name: _ZNKSt7__cxx1112regex_traitsIwE16lookup_classnameIPKwEENS1_10_RegexMaskET_S6_b, address: 2533136, vaddr: 65536
Name: _ZN8nlohmann16json_abi_v3_11_36detail5lexerINS0_10basic_jsonINS0_11ordered_mapESt6vectorNSt7__cxx1112basic_stringIcSt11char_traitsIcESaIcEEEblmdSaNS0_14adl_serializerES5_IhSaIhEEvEENS1_22iterator_input_adapterIPKcEEE4scanEv, address: 1332256
	->Name: _ZN8nlohmann16json_abi_v3_11_36detail5lexerINS0_10basic_jsonINS0_11ordered_mapESt6vectorNSt7__cxx1112basic_stringIcSt11char_traitsIcESaIcEEEblmdSaNS0_14adl_serializerES5_IhSaIhEEvEENS1_22iterator_input_adapterIPKcEEE4scanEv, address: 1266720, vaddr: 65536
Name: _ZNSt13basic_filebufIcSt11char_traitsIcEE5closeEv@GLIBCXX_3.4, address: 0
Name: _ZNKSt12__basic_fileIcE7is_openEv@GLIBCXX_3.4, address: 0
Name: _ZNSt10_HashtableINSt7__cxx1112basic_stringIcSt11char_traitsIcESaIcEEESt4pairIKS5_11BuiltinRuleESaIS9_ENSt8__detail10_Select1stESt8equal_toIS5_ESt4hashIS5_ENSB_18_Mod_range_hashingENSB_20_Default_ranged_hashENSB_20_Prime_rehash_policyENSB_17_Hashtable_traitsILb1ELb0ELb1EEEED2Ev, address: 1497824
	->Name: _ZNSt10_HashtableINSt7__cxx1112basic_stringIcSt11char_traitsIcESaIcEEESt4pairIKS5_11BuiltinRuleESaIS9_ENSt8__detail10_Select1stESt8equal_toIS5_ESt4hashIS5_ENSB_18_Mod_range_hashingENSB_20_Default_ranged_hashENSB_20_Prime_rehash_policyENSB_17_Hashtable_traitsILb1ELb0ELb1EEEED2Ev, address: 1432288, vaddr: 65536
Name: _ZNSt8__detail9_CompilerINSt7__cxx1112regex_traitsIcEEE33_M_insert_character_class_matcherILb1ELb1EEEvv, address: 1395056
	->Name: _ZNSt8__detail9_CompilerINSt7__cxx1112regex_traitsIcEEE33_M_insert_character_class_matcherILb1ELb1EEEvv, address: 1329520, vaddr: 65536
Name: _ZNSt8__detail15_BracketMatcherINSt7__cxx1112regex_traitsIwEELb1ELb0EED1Ev, address: 2592976
	->Name: _ZNSt8__detail15_BracketMatcherINSt7__cxx1112regex_traitsIwEELb1ELb0EED1Ev, address: 2527440, vaddr: 65536
Name: _ZNSt3mapISt5arrayIfLm16EE24ggml_backend_buffer_typeSt4lessIS1_ESaISt4pairIKS1_S2_EEED1Ev, address: 1722528
	->Name: _ZNSt3mapISt5arrayIfLm16EE24ggml_backend_buffer_typeSt4lessIS1_ESaISt4pairIKS1_S2_EEED1Ev, address: 1656992, vaddr: 65536
Name: _ZNSt6vectorISt4pairINSt7__cxx1112basic_stringIcSt11char_traitsIcESaIcEEEN8nlohmann16json_abi_v3_11_310basic_jsonINS8_11ordered_mapES_S6_blmdSaNS8_14adl_serializerES_IhSaIhEEvEEESaISF_EED2Ev, address: 1519872
	->Name: _ZNSt6vectorISt4pairINSt7__cxx1112basic_stringIcSt11char_traitsIcESaIcEEEN8nlohmann16json_abi_v3_11_310basic_jsonINS8_11ordered_mapES_S6_blmdSaNS8_14adl_serializerES_IhSaIhEEvEEESaISF_EED2Ev, address: 1454336, vaddr: 65536
Name: ggml_build_backward_expand, address: 522944
	->Name: ggml_build_backward_expand, address: 457408, vaddr: 65536
Name: ggml_gelu_quick_inplace, address: 482688
	->Name: ggml_gelu_quick_inplace, address: 417152, vaddr: 65536
Name: ggml_cpu_has_avx, address: 579408
	->Name: ggml_cpu_has_avx, address: 513872, vaddr: 65536
Name: ggml_cpu_has_vsx, address: 579824
	->Name: ggml_cpu_has_vsx, address: 514288, vaddr: 65536
Name: _ZNSt8__detail9_CompilerINSt7__cxx1112regex_traitsIcEEE25_M_insert_bracket_matcherILb1ELb0EEEvb, address: 1419024
	->Name: _ZNSt8__detail9_CompilerINSt7__cxx1112regex_traitsIcEEE25_M_insert_bracket_matcherILb1ELb0EEEvb, address: 1353488, vaddr: 65536
Name: _ZNSt17_Function_handlerIFbwENSt8__detail11_AnyMatcherINSt7__cxx1112regex_traitsIwEELb1ELb1ELb1EEEE9_M_invokeERKSt9_Any_dataOw, address: 2576560
	->Name: _ZNSt17_Function_handlerIFbwENSt8__detail11_AnyMatcherINSt7__cxx1112regex_traitsIwEELb1ELb1ELb1EEEE9_M_invokeERKSt9_Any_dataOw, address: 2511024, vaddr: 65536
Name: _ZNSt8__detail15_BracketMatcherINSt7__cxx1112regex_traitsIcEELb1ELb0EED2Ev, address: 1337488
	->Name: _ZNSt8__detail15_BracketMatcherINSt7__cxx1112regex_traitsIcEELb1ELb0EED2Ev, address: 1271952, vaddr: 65536
Name: _ZN8nlohmann16json_abi_v3_11_36detail10serializerINS0_10basic_jsonINS0_11ordered_mapESt6vectorNSt7__cxx1112basic_stringIcSt11char_traitsIcESaIcEEEblmdSaNS0_14adl_serializerES5_IhSaIhEEvEEE4dumpERKSF_bbjj, address: 1542544
	->Name: _ZN8nlohmann16json_abi_v3_11_36detail10serializerINS0_10basic_jsonINS0_11ordered_mapESt6vectorNSt7__cxx1112basic_stringIcSt11char_traitsIcESaIcEEEblmdSaNS0_14adl_serializerES5_IhSaIhEEvEEE4dumpERKSF_bbjj, address: 1477008, vaddr: 65536
Name: _ZNSt6vectorINSt7__cxx1112basic_stringIcSt11char_traitsIcESaIcEEESaIS5_EEC2ESt16initializer_listIS5_ERKS6_, address: 1494912
	->Name: _ZNSt6vectorINSt7__cxx1112basic_stringIcSt11char_traitsIcESaIcEEESaIS5_EEC2ESt16initializer_listIS5_ERKS6_, address: 1429376, vaddr: 65536
Name: ggml_cont, address: 460304
	->Name: ggml_cont, address: 394768, vaddr: 65536
Name: _ZN8nlohmann16json_abi_v3_11_36detail8to_charsIdEEPcS3_PKcT_, address: 1541440
	->Name: _ZN8nlohmann16json_abi_v3_11_36detail8to_charsIdEEPcS3_PKcT_, address: 1475904, vaddr: 65536
Name: cudaMemcpy3DPeerAsync@libcudart.so.12, address: 0
Name: _Z16launch_fattn_f16ILi256ELi32ELi4E6__halfEvPK11ggml_tensorS3_S3_PS1_S3_iR14ggml_cuda_poolP11CUstream_st, address: 2038752
	->Name: _Z16launch_fattn_f16ILi256ELi32ELi4E6__halfEvPK11ggml_tensorS3_S3_PS1_S3_iR14ggml_cuda_poolP11CUstream_st, address: 1973216, vaddr: 65536
Name: _Z19llama_sampling_initRK21llama_sampling_params, address: 1446720
	->Name: _Z19llama_sampling_initRK21llama_sampling_params, address: 1381184, vaddr: 65536
Name: _ZNSt7__cxx1119basic_ostringstreamIcSt11char_traitsIcESaIcEED1Ev@GLIBCXX_3.4.21, address: 0
Name: llama_sample_token_mirostat, address: 957488
	->Name: llama_sample_token_mirostat, address: 891952, vaddr: 65536
Name: ggml_log, address: 451728
	->Name: ggml_log, address: 386192, vaddr: 65536
Name: ggml_group_norm_inplace, address: 454480
	->Name: ggml_group_norm_inplace, address: 388944, vaddr: 65536
Name: _ZNSt14basic_ifstreamIcSt11char_traitsIcEED1Ev@GLIBCXX_3.4, address: 0
Name: _ZN15SchemaConverter12resolve_refsERN8nlohmann16json_abi_v3_11_310basic_jsonINS1_11ordered_mapESt6vectorNSt7__cxx1112basic_stringIcSt11char_traitsIcESaIcEEEblmdSaNS1_14adl_serializerES4_IhSaIhEEvEERKSA_, address: 1493040
	->Name: _ZN15SchemaConverter12resolve_refsERN8nlohmann16json_abi_v3_11_310basic_jsonINS1_11ordered_mapESt6vectorNSt7__cxx1112basic_stringIcSt11char_traitsIcESaIcEEEblmdSaNS1_14adl_serializerES4_IhSaIhEEvEERKSA_, address: 1427504, vaddr: 65536
Name: _ZNSt8__detail8_ScannerIcEC2EPKcS3_NSt15regex_constants18syntax_option_typeESt6locale, address: 1319136
	->Name: _ZNSt8__detail8_ScannerIcEC2EPKcS3_NSt15regex_constants18syntax_option_typeESt6locale, address: 1253600, vaddr: 65536
Name: _ZZN15SchemaConverter14_visit_patternERKNSt7__cxx1112basic_stringIcSt11char_traitsIcESaIcEEES7_ENKUlvE0_clB5cxx11Ev, address: 1565440
	->Name: _ZZN15SchemaConverter14_visit_patternERKNSt7__cxx1112basic_stringIcSt11char_traitsIcESaIcEEES7_ENKUlvE0_clB5cxx11Ev, address: 1499904, vaddr: 65536
Name: _Z20launch_fattn_vec_f16ILi128ELi2ELi4EEvPK11ggml_tensorS2_S2_PS0_S2_R14ggml_cuda_poolP11CUstream_st, address: 2062480
	->Name: _Z20launch_fattn_vec_f16ILi128ELi2ELi4EEvPK11ggml_tensorS2_S2_PS0_S2_R14ggml_cuda_poolP11CUstream_st, address: 1996944, vaddr: 65536
Name: quantize_row_q4_1, address: 2421744
	->Name: quantize_row_q4_1, address: 2356208, vaddr: 65536
Name: llama_n_batch, address: 635504
	->Name: llama_n_batch, address: 569968, vaddr: 65536
Name: ggml_cpu_has_arm_fma, address: 579536
	->Name: ggml_cpu_has_arm_fma, address: 514000, vaddr: 65536
Name: _Z20ggml_cuda_op_upscaleR25ggml_backend_cuda_contextP11ggml_tensor, address: 2300416
	->Name: _Z20ggml_cuda_op_upscaleR25ggml_backend_cuda_contextP11ggml_tensor, address: 2234880, vaddr: 65536
Name: _Z18get_math_cpu_countv, address: 1220272
	->Name: _Z18get_math_cpu_countv, address: 1154736, vaddr: 65536
Name: _ZNSt13__future_base13_State_baseV2D0Ev, address: 959968
	->Name: _ZNSt13__future_base13_State_baseV2D0Ev, address: 894432, vaddr: 65536
Name: ggml_backend_reg_get_default_buffer_type, address: 2323248
	->Name: ggml_backend_reg_get_default_buffer_type, address: 2257712, vaddr: 65536
Name: _Z20llama_sampling_printB5cxx11RK21llama_sampling_params, address: 1442784
	->Name: _Z20llama_sampling_printB5cxx11RK21llama_sampling_params, address: 1377248, vaddr: 65536
Name: _Z18ggml_cuda_op_clampR25ggml_backend_cuda_contextP11ggml_tensor, address: 1796672
	->Name: _Z18ggml_cuda_op_clampR25ggml_backend_cuda_contextP11ggml_tensor, address: 1731136, vaddr: 65536
Name: fork@GLIBC_2.2.5, address: 0
Name: _ZZZN15SchemaConverter14_visit_patternERKNSt7__cxx1112basic_stringIcSt11char_traitsIcESaIcEEES7_ENKUlvE0_clB5cxx11EvENKUlvE0_clEv, address: 1506400
	->Name: _ZZZN15SchemaConverter14_visit_patternERKNSt7__cxx1112basic_stringIcSt11char_traitsIcESaIcEEES7_ENKUlvE0_clB5cxx11EvENKUlvE0_clEv, address: 1440864, vaddr: 65536
Name: ggml_sigmoid, address: 482384
	->Name: ggml_sigmoid, address: 416848, vaddr: 65536
Name: _ZNSt3mapI8llm_archS_I10llm_tensorNSt7__cxx1112basic_stringIcSt11char_traitsIcESaIcEEESt4lessIS1_ESaISt4pairIKS1_S7_EEES8_IS0_ESaISA_IKS0_SE_EEED2Ev, address: 969520
	->Name: _ZNSt3mapI8llm_archS_I10llm_tensorNSt7__cxx1112basic_stringIcSt11char_traitsIcESaIcEEESt4lessIS1_ESaISt4pairIKS1_S7_EEES8_IS0_ESaISA_IKS0_SE_EEED2Ev, address: 903984, vaddr: 65536
Name: _ZNSt6vectorINSt7__cxx1112basic_stringIcSt11char_traitsIcESaIcEEESaIS5_EE17_M_realloc_insertIJRA19_KcEEEvN9__gnu_cxx17__normal_iteratorIPS5_S7_EEDpOT_, address: 2677072
	->Name: _ZNSt6vectorINSt7__cxx1112basic_stringIcSt11char_traitsIcESaIcEEESaIS5_EE17_M_realloc_insertIJRA19_KcEEEvN9__gnu_cxx17__normal_iteratorIPS5_S7_EEDpOT_, address: 2611536, vaddr: 65536
Name: _ZNSt8__detail9_CompilerINSt7__cxx1112regex_traitsIwEEE25_M_insert_bracket_matcherILb0ELb0EEEvb, address: 2641904
	->Name: _ZNSt8__detail9_CompilerINSt7__cxx1112regex_traitsIwEEE25_M_insert_bracket_matcherILb0ELb0EEEvb, address: 2576368, vaddr: 65536
Name: cublasSgemm_v2@libcublas.so.12, address: 0
Name: _Z16launch_fattn_f16ILi112ELi32ELi4E6__halfEvPK11ggml_tensorS3_S3_PS1_S3_iR14ggml_cuda_poolP11CUstream_st, address: 2030432
	->Name: _Z16launch_fattn_f16ILi112ELi32ELi4E6__halfEvPK11ggml_tensorS3_S3_PS1_S3_iR14ggml_cuda_poolP11CUstream_st, address: 1964896, vaddr: 65536
Name: cuMemUnmap, address: 0
Name: dequantize_row_q8_0, address: 2427952
	->Name: dequantize_row_q8_0, address: 2362416, vaddr: 65536
Name: _ZSt9terminatev@GLIBCXX_3.4, address: 0
Name: _ZN18llama_model_loaderC1ERKNSt7__cxx1112basic_stringIcSt11char_traitsIcESaIcEEEbbPK23llama_model_kv_override, address: 1173696
	->Name: _ZN18llama_model_loaderC1ERKNSt7__cxx1112basic_stringIcSt11char_traitsIcESaIcEEEbbPK23llama_model_kv_override, address: 1108160, vaddr: 65536
Name: _ZNKSt7__cxx1112basic_stringIcSt11char_traitsIcESaIcEE7compareEPKc@GLIBCXX_3.4.21, address: 0
Name: _ZN9__gnu_cxx6__stoaIffcJEEET0_PFT_PKT1_PPS3_DpT2_EPKcS5_PmS9_, address: 1268208
	->Name: _ZN9__gnu_cxx6__stoaIffcJEEET0_PFT_PKT1_PPS3_DpT2_EPKcS5_PmS9_, address: 1202672, vaddr: 65536
Name: ggml_cpu_has_avx2, address: 579440
	->Name: ggml_cpu_has_avx2, address: 513904, vaddr: 65536
Name: _ZNSt6vectorIP24ggml_backend_buffer_typeSaIS1_EE17_M_realloc_insertIJS1_EEEvN9__gnu_cxx17__normal_iteratorIPS1_S3_EEDpOT_, address: 1168240
	->Name: _ZNSt6vectorIP24ggml_backend_buffer_typeSaIS1_EE17_M_realloc_insertIJS1_EEEvN9__gnu_cxx17__normal_iteratorIPS1_S3_EEDpOT_, address: 1102704, vaddr: 65536
Name: gguf_set_val_i64, address: 575232
	->Name: gguf_set_val_i64, address: 509696, vaddr: 65536
Name: _Z21ggml_cuda_op_get_rowsR25ggml_backend_cuda_contextP11ggml_tensor, address: 2100992
	->Name: _Z21ggml_cuda_op_get_rowsR25ggml_backend_cuda_contextP11ggml_tensor, address: 2035456, vaddr: 65536
Name: _ZNSt3mapINSt7__cxx1112basic_stringIcSt11char_traitsIcESaIcEEEiSt4lessIS5_ESaISt4pairIKS5_iEEED2Ev, address: 2577088
	->Name: _ZNSt3mapINSt7__cxx1112basic_stringIcSt11char_traitsIcESaIcEEEiSt4lessIS5_ESaISt4pairIKS5_iEEED2Ev, address: 2511552, vaddr: 65536
Name: gguf_get_val_i32, address: 571920
	->Name: gguf_get_val_i32, address: 506384, vaddr: 65536
Name: _ZNSt19__codecvt_utf8_baseIwED2Ev@GLIBCXX_3.4.21, address: 0
Name: ggml_is_contiguous, address: 337296
	->Name: ggml_is_contiguous, address: 271760, vaddr: 65536
Name: execlp@GLIBC_2.2.5, address: 0
Name: _ZNKSt19__codecvt_utf8_baseIwE6do_outER11__mbstate_tPKwS4_RS4_PcS6_RS6_@GLIBCXX_3.4.21, address: 0
Name: quantize_iq2_s, address: 2532000
	->Name: quantize_iq2_s, address: 2466464, vaddr: 65536
Name: _ZNSt8ios_baseC2Ev@GLIBCXX_3.4, address: 0
Name: llama_kv_cache_seq_div, address: 640016
	->Name: llama_kv_cache_seq_div, address: 574480, vaddr: 65536
Name: _ZNSt23_Sp_counted_ptr_inplaceIN8nlohmann16json_abi_v3_11_36detail21output_string_adapterIcNSt7__cxx1112basic_stringIcSt11char_traitsIcESaIcEEEEESaISA_ELN9__gnu_cxx12_Lock_policyE2EE10_M_disposeEv, address: 1488048
	->Name: _ZNSt23_Sp_counted_ptr_inplaceIN8nlohmann16json_abi_v3_11_36detail21output_string_adapterIcNSt7__cxx1112basic_stringIcSt11char_traitsIcESaIcEEEEESaISA_ELN9__gnu_cxx12_Lock_policyE2EE10_M_disposeEv, address: 1422512, vaddr: 65536
Name: _ZNSt8__detail9_StateSeqINSt7__cxx1112regex_traitsIcEEE8_M_cloneEv, address: 1375568
	->Name: _ZNSt8__detail9_StateSeqINSt7__cxx1112regex_traitsIcEEE8_M_cloneEv, address: 1310032, vaddr: 65536
Name: _ZNSt6vectorI10llm_symbolSaIS0_EE17_M_realloc_insertIJRS0_EEEvN9__gnu_cxx17__normal_iteratorIPS0_S2_EEDpOT_, address: 1120528
	->Name: _ZNSt6vectorI10llm_symbolSaIS0_EE17_M_realloc_insertIJRS0_EEEvN9__gnu_cxx17__normal_iteratorIPS0_S2_EEDpOT_, address: 1054992, vaddr: 65536
Name: ggml_add1_inplace, address: 448448
	->Name: ggml_add1_inplace, address: 382912, vaddr: 65536
Name: _ZNSt10_HashtableIjSt4pairIKjiESaIS2_ENSt8__detail10_Select1stESt8equal_toIjESt4hashIjENS4_18_Mod_range_hashingENS4_20_Default_ranged_hashENS4_20_Prime_rehash_policyENS4_17_Hashtable_traitsILb0ELb0ELb1EEEE9_M_rehashEmRKm, address: 2580992
	->Name: _ZNSt10_HashtableIjSt4pairIKjiESaIS2_ENSt8__detail10_Select1stESt8equal_toIjESt4hashIjENS4_18_Mod_range_hashingENS4_20_Default_ranged_hashENS4_20_Prime_rehash_policyENS4_17_Hashtable_traitsILb0ELb0ELb1EEEE9_M_rehashEmRKm, address: 2515456, vaddr: 65536
Name: ggml_backend_event_wait, address: 2322464
	->Name: ggml_backend_event_wait, address: 2256928, vaddr: 65536
Name: _ZNSt13__future_base15_Deferred_stateINSt6thread8_InvokerISt5tupleIJZN18llama_model_loader13load_all_dataEP12ggml_contextRSt13unordered_mapIjP19ggml_backend_bufferSt4hashIjESt8equal_toIjESaISt4pairIKjS9_EEEPSt6vectorISt10unique_ptrI11llama_mlockSt14default_deleteISM_EESaISP_EEPFbfPvEST_EUlvE0_EEEESE_IP11ggml_tensorbEE17_M_complete_asyncEv, address: 966544
	->Name: _ZNSt13__future_base15_Deferred_stateINSt6thread8_InvokerISt5tupleIJZN18llama_model_loader13load_all_dataEP12ggml_contextRSt13unordered_mapIjP19ggml_backend_bufferSt4hashIjESt8equal_toIjESaISt4pairIKjS9_EEEPSt6vectorISt10unique_ptrI11llama_mlockSt14default_deleteISM_EESaISP_EEPFbfPvEST_EUlvE0_EEEESE_IP11ggml_tensorbEE17_M_complete_asyncEv, address: 901008, vaddr: 65536
Name: _ZNKSt8__detail9_ExecutorIPKwSaINSt7__cxx119sub_matchIS2_EEENS3_12regex_traitsIwEELb1EE21_M_is_line_terminatorEw, address: 2612016
	->Name: _ZNKSt8__detail9_ExecutorIPKwSaINSt7__cxx119sub_matchIS2_EEENS3_12regex_traitsIwEELb1EE21_M_is_line_terminatorEw, address: 2546480, vaddr: 65536
Name: ggml_backend_sched_alloc_graph, address: 2327008
	->Name: ggml_backend_sched_alloc_graph, address: 2261472, vaddr: 65536
Name: _ZNSt6vectorISt4pairIjjESaIS1_EED1Ev, address: 2666688
	->Name: _ZNSt6vectorISt4pairIjjESaIS1_EED1Ev, address: 2601152, vaddr: 65536
Name: ggml_cont_2d, address: 460704
	->Name: ggml_cont_2d, address: 395168, vaddr: 65536
Name: ggml_dup, address: 446720
	->Name: ggml_dup, address: 381184, vaddr: 65536
Name: ggml_sgn, address: 482288
	->Name: ggml_sgn, address: 416752, vaddr: 65536
Name: cublasSetStream_v2@libcublas.so.12, address: 0
Name: gguf_get_arr_type, address: 565648
	->Name: gguf_get_arr_type, address: 500112, vaddr: 65536
Name: ggml_backend_buft_alloc_buffer, address: 2312096
	->Name: ggml_backend_buft_alloc_buffer, address: 2246560, vaddr: 65536
Name: _ZNSt7__cxx1112basic_stringIcSt11char_traitsIcESaIcEE6resizeEmc@GLIBCXX_3.4.21, address: 0
Name: _ZNSt17_Function_handlerIFbcENSt8__detail12_CharMatcherINSt7__cxx1112regex_traitsIcEELb0ELb1EEEE10_M_managerERSt9_Any_dataRKS8_St18_Manager_operation, address: 1260720
	->Name: _ZNSt17_Function_handlerIFbcENSt8__detail12_CharMatcherINSt7__cxx1112regex_traitsIcEELb0ELb1EEEE10_M_managerERSt9_Any_dataRKS8_St18_Manager_operation, address: 1195184, vaddr: 65536
Name: llama_n_ctx_train, address: 636400
	->Name: llama_n_ctx_train, address: 570864, vaddr: 65536
Name: _ZNSt6vectorISt10unique_ptrI11llama_mlockSt14default_deleteIS1_EESaIS4_EE17_M_realloc_insertIJS4_EEEvN9__gnu_cxx17__normal_iteratorIPS4_S6_EEDpOT_, address: 1103952
	->Name: _ZNSt6vectorISt10unique_ptrI11llama_mlockSt14default_deleteIS1_EESaIS4_EE17_M_realloc_insertIJS4_EEEvN9__gnu_cxx17__normal_iteratorIPS4_S6_EEDpOT_, address: 1038416, vaddr: 65536
Name: llama_token_bos, address: 642944
	->Name: llama_token_bos, address: 577408, vaddr: 65536
Name: _ZNSt4pairINSt7__cxx1112basic_stringIwSt11char_traitsIwESaIwEEES5_ED1Ev, address: 2628464
	->Name: _ZNSt4pairINSt7__cxx1112basic_stringIwSt11char_traitsIwESaIwEEES5_ED1Ev, address: 2562928, vaddr: 65536
Name: _ZNSt8__detail9_CompilerINSt7__cxx1112regex_traitsIcEEE25_M_insert_bracket_matcherILb0ELb0EEEvb, address: 1416240
	->Name: _ZNSt8__detail9_CompilerINSt7__cxx1112regex_traitsIcEEE25_M_insert_bracket_matcherILb0ELb0EEEvb, address: 1350704, vaddr: 65536
Name: _ZN17llm_build_context10build_qwenEv, address: 1031168
	->Name: _ZN17llm_build_context10build_qwenEv, address: 965632, vaddr: 65536
Name: _ZNSt8__detail8_ScannerIwE10_M_advanceEv, address: 2589360
	->Name: _ZNSt8__detail8_ScannerIwE10_M_advanceEv, address: 2523824, vaddr: 65536
Name: _ZN8nlohmann16json_abi_v3_11_36detail16invalid_iteratorD2Ev, address: 1259744
	->Name: _ZN8nlohmann16json_abi_v3_11_36detail16invalid_iteratorD2Ev, address: 1194208, vaddr: 65536
Name: gguf_write_to_file, address: 578720
	->Name: gguf_write_to_file, address: 513184, vaddr: 65536
Name: _Z23LOG_TOKENS_TOSTR_PRETTYIP13llama_contextSt6vectorIiSaIiEEENSt7__cxx1112basic_stringIcSt11char_traitsIcESaIcEEERKT_RKT0_, address: 2672656
	->Name: _Z23LOG_TOKENS_TOSTR_PRETTYIP13llama_contextSt6vectorIiSaIiEEENSt7__cxx1112basic_stringIcSt11char_traitsIcESaIcEEERKT_RKT0_, address: 2607120, vaddr: 65536
Name: _ZNSt17_Function_handlerIFbcENSt8__detail15_BracketMatcherINSt7__cxx1112regex_traitsIcEELb0ELb1EEEE9_M_invokeERKSt9_Any_dataOc, address: 1259120
	->Name: _ZNSt17_Function_handlerIFbcENSt8__detail15_BracketMatcherINSt7__cxx1112regex_traitsIcEELb0ELb1EEEE9_M_invokeERKSt9_Any_dataOc, address: 1193584, vaddr: 65536
Name: _ZNSt7__cxx1112basic_stringIcSt11char_traitsIcESaIcEE9_M_appendEPKcm@GLIBCXX_3.4.21, address: 0
Name: _ZNSt23_Sp_counted_ptr_inplaceINSt13__future_base15_Deferred_stateINSt6thread8_InvokerISt5tupleIJZN18llama_model_loader13load_all_dataEP12ggml_contextRSt13unordered_mapIjP19ggml_backend_bufferSt4hashIjESt8equal_toIjESaISt4pairIKjSA_EEEPSt6vectorISt10unique_ptrI11llama_mlockSt14default_deleteISN_EESaISQ_EEPFbfPvESU_EUlvE0_EEEESF_IP11ggml_tensorbEEESaIS13_ELN9__gnu_cxx12_Lock_policyE2EED1Ev, address: 959840
	->Name: _ZNSt23_Sp_counted_ptr_inplaceINSt13__future_base15_Deferred_stateINSt6thread8_InvokerISt5tupleIJZN18llama_model_loader13load_all_dataEP12ggml_contextRSt13unordered_mapIjP19ggml_backend_bufferSt4hashIjESt8equal_toIjESaISt4pairIKjSA_EEEPSt6vectorISt10unique_ptrI11llama_mlockSt14default_deleteISN_EESaISQ_EEPFbfPvESU_EUlvE0_EEEESF_IP11ggml_tensorbEEESaIS13_ELN9__gnu_cxx12_Lock_policyE2EED1Ev, address: 894304, vaddr: 65536
Name: dequantize_row_iq4_xs, address: 2468960
	->Name: dequantize_row_iq4_xs, address: 2403424, vaddr: 65536
Name: _Z17ggml_cuda_op_reluR25ggml_backend_cuda_contextP11ggml_tensor, address: 2295952
	->Name: _Z17ggml_cuda_op_reluR25ggml_backend_cuda_contextP11ggml_tensor, address: 2230416, vaddr: 65536
Name: _ZNSt4pairIKNSt7__cxx1112basic_stringIcSt11char_traitsIcESaIcEEE11BuiltinRuleED2Ev, address: 1492816
	->Name: _ZNSt4pairIKNSt7__cxx1112basic_stringIcSt11char_traitsIcESaIcEEE11BuiltinRuleED2Ev, address: 1427280, vaddr: 65536
Name: _ZSt19__throw_regex_errorNSt15regex_constants10error_typeE@GLIBCXX_3.4.15, address: 0
Name: _Z16gpt_params_parseiPPcR10gpt_params, address: 1251008
	->Name: _Z16gpt_params_parseiPPcR10gpt_params, address: 1185472, vaddr: 65536
Name: __cudaUnregisterFatBinary@libcudart.so.12, address: 0
Name: strtoul@GLIBC_2.2.5, address: 0
Name: _ZNSt8__detail9_CompilerINSt7__cxx1112regex_traitsIcEEE22_M_insert_char_matcherILb1ELb1EEEvv, address: 1391568
	->Name: _ZNSt8__detail9_CompilerINSt7__cxx1112regex_traitsIcEEE22_M_insert_char_matcherILb1ELb1EEEvv, address: 1326032, vaddr: 65536
Name: gguf_get_val_bool, address: 572800
	->Name: gguf_get_val_bool, address: 507264, vaddr: 65536
Name: llama_split_prefix, address: 651152
	->Name: llama_split_prefix, address: 585616, vaddr: 65536
Name: _ZN8nlohmann16json_abi_v3_11_36detail9dtoa_impl16grisu2_digit_genEPcRiS4_NS2_5diyfpES5_S5_, address: 1490496
	->Name: _ZN8nlohmann16json_abi_v3_11_36detail9dtoa_impl16grisu2_digit_genEPcRiS4_NS2_5diyfpES5_S5_, address: 1424960, vaddr: 65536
Name: llama_sample_token_mirostat_v2, address: 958464
	->Name: llama_sample_token_mirostat_v2, address: 892928, vaddr: 65536
Name: _ZNSt6vectorISt4pairINSt7__cxx1112basic_stringIcSt11char_traitsIcESaIcEEEbESaIS7_EE17_M_realloc_insertIJS6_bEEEvN9__gnu_cxx17__normal_iteratorIPS7_S9_EEDpOT_, address: 1501792
	->Name: _ZNSt6vectorISt4pairINSt7__cxx1112basic_stringIcSt11char_traitsIcESaIcEEEbESaIS7_EE17_M_realloc_insertIJS6_bEEEvN9__gnu_cxx17__normal_iteratorIPS7_S9_EEDpOT_, address: 1436256, vaddr: 65536
Name: _ZN14grammar_parser16parse_alternatesERNS_11parse_stateEPKcRKNSt7__cxx1112basic_stringIcSt11char_traitsIcESaIcEEEjb, address: 1460624
	->Name: _ZN14grammar_parser16parse_alternatesERNS_11parse_stateEPKcRKNSt7__cxx1112basic_stringIcSt11char_traitsIcESaIcEEEjb, address: 1395088, vaddr: 65536
Name: llama_sample_temp, address: 633584
	->Name: llama_sample_temp, address: 568048, vaddr: 65536
Name: _ZNSt10_HashtableINSt7__cxx1112basic_stringIcSt11char_traitsIcESaIcEEES5_SaIS5_ENSt8__detail9_IdentityESt8equal_toIS5_ESt4hashIS5_ENS7_18_Mod_range_hashingENS7_20_Default_ranged_hashENS7_20_Prime_rehash_policyENS7_17_Hashtable_traitsILb1ELb1ELb1EEEED2Ev, address: 1498896
	->Name: _ZNSt10_HashtableINSt7__cxx1112basic_stringIcSt11char_traitsIcESaIcEEES5_SaIS5_ENSt8__detail9_IdentityESt8equal_toIS5_ESt4hashIS5_ENS7_18_Mod_range_hashingENS7_20_Default_ranged_hashENS7_20_Prime_rehash_policyENS7_17_Hashtable_traitsILb1ELb1ELb1EEEED2Ev, address: 1433360, vaddr: 65536
Name: quantize_row_q8_K_reference, address: 2470224
	->Name: quantize_row_q8_K_reference, address: 2404688, vaddr: 65536
Name: ggml_graph_compute_with_ctx, address: 536304
	->Name: ggml_graph_compute_with_ctx, address: 470768, vaddr: 65536
Name: _ZNSt3mapISt5arrayIfLm16EE24ggml_backend_buffer_typeSt4lessIS1_ESaISt4pairIKS1_S2_EEED2Ev, address: 1722528
	->Name: _ZNSt3mapISt5arrayIfLm16EE24ggml_backend_buffer_typeSt4lessIS1_ESaISt4pairIKS1_S2_EEED2Ev, address: 1656992, vaddr: 65536
Name: _ZN18ggml_cuda_pool_legD0Ev, address: 1724592
	->Name: _ZN18ggml_cuda_pool_legD0Ev, address: 1659056, vaddr: 65536
Name: ggml_backend_event_new, address: 2322208
	->Name: ggml_backend_event_new, address: 2256672, vaddr: 65536
Name: _ZNSt8ios_baseD2Ev@GLIBCXX_3.4, address: 0
Name: ggml_backend_alloc_ctx_tensors_from_buft, address: 2309872
	->Name: ggml_backend_alloc_ctx_tensors_from_buft, address: 2244336, vaddr: 65536
Name: strerror@GLIBC_2.2.5, address: 0
Name: _Z20launch_fattn_vec_f16ILi256ELi1ELi4EEvPK11ggml_tensorS2_S2_PS0_S2_R14ggml_cuda_poolP11CUstream_st, address: 2059072
	->Name: _Z20launch_fattn_vec_f16ILi256ELi1ELi4EEvPK11ggml_tensorS2_S2_PS0_S2_R14ggml_cuda_poolP11CUstream_st, address: 1993536, vaddr: 65536
Name: _ZNSt6vectorIjSaIjEE17_M_realloc_insertIJjEEEvN9__gnu_cxx17__normal_iteratorIPjS1_EEDpOT_, address: 1157824
	->Name: _ZNSt6vectorIjSaIjEE17_M_realloc_insertIJjEEEvN9__gnu_cxx17__normal_iteratorIPjS1_EEDpOT_, address: 1092288, vaddr: 65536
Name: _Z21launch_fattn_f16_implILi128ELi32ELi4ELi2E6__halfEvPK11ggml_tensorS3_S3_PS1_S3_R14ggml_cuda_poolP11CUstream_st, address: 2033024
	->Name: _Z21launch_fattn_f16_implILi128ELi32ELi4ELi2E6__halfEvPK11ggml_tensorS3_S3_PS1_S3_R14ggml_cuda_poolP11CUstream_st, address: 1967488, vaddr: 65536
Name: _ZNSt13unordered_setIjSt4hashIjESt8equal_toIjESaIjEED1Ev, address: 2575600
	->Name: _ZNSt13unordered_setIjSt4hashIjESt8equal_toIjESaIjEED1Ev, address: 2510064, vaddr: 65536
Name: _Z19ggml_cuda_op_pool2dR25ggml_backend_cuda_contextP11ggml_tensor, address: 2258064
	->Name: _Z19ggml_cuda_op_pool2dR25ggml_backend_cuda_contextP11ggml_tensor, address: 2192528, vaddr: 65536
Name: ggml_fp32_to_fp16, address: 302352
	->Name: ggml_fp32_to_fp16, address: 236816, vaddr: 65536
Name: dequantize_row_q5_0, address: 2426752
	->Name: dequantize_row_q5_0, address: 2361216, vaddr: 65536
Name: _ZNSt7__cxx1115basic_stringbufIwSt11char_traitsIwESaIwEED2Ev, address: 2596912
	->Name: _ZNSt7__cxx1115basic_stringbufIwSt11char_traitsIwESaIwEED2Ev, address: 2531376, vaddr: 65536
Name: _Z26ggml_cuda_op_mul_mat_vec_qR25ggml_backend_cuda_contextPK11ggml_tensorS3_PS1_PKcPKfS6_PfllllP11CUstream_st, address: 2234272
	->Name: _Z26ggml_cuda_op_mul_mat_vec_qR25ggml_backend_cuda_contextPK11ggml_tensorS3_PS1_PKcPKfS6_PfllllP11CUstream_st, address: 2168736, vaddr: 65536
Name: _ZNSt23_Sp_counted_ptr_inplaceINSt8__detail4_NFAINSt7__cxx1112regex_traitsIwEEEESaIS5_ELN9__gnu_cxx12_Lock_policyE2EE14_M_get_deleterERKSt9type_info, address: 2575392
	->Name: _ZNSt23_Sp_counted_ptr_inplaceINSt8__detail4_NFAINSt7__cxx1112regex_traitsIwEEEESaIS5_ELN9__gnu_cxx12_Lock_policyE2EE14_M_get_deleterERKSt9type_info, address: 2509856, vaddr: 65536
Name: ggml_win_unpart, address: 480272
	->Name: ggml_win_unpart, address: 414736, vaddr: 65536
Name: _ZNSt8__detail9_CompilerINSt7__cxx1112regex_traitsIcEEE26_M_insert_any_matcher_ecmaILb1ELb1EEEvv, address: 1389024
	->Name: _ZNSt8__detail9_CompilerINSt7__cxx1112regex_traitsIcEEE26_M_insert_any_matcher_ecmaILb1ELb1EEEvv, address: 1323488, vaddr: 65536
Name: ggml_cast, address: 460192
	->Name: ggml_cast, address: 394656, vaddr: 65536
Name: _ZNSt6vectorI23llama_grammar_candidateSaIS0_EE7reserveEm, address: 1093568
	->Name: _ZNSt6vectorI23llama_grammar_candidateSaIS0_EE7reserveEm, address: 1028032, vaddr: 65536
Name: _ZN18llama_model_loaderD2Ev, address: 977168
	->Name: _ZN18llama_model_loaderD2Ev, address: 911632, vaddr: 65536
Name: _ZNSt8__detail9_ExecutorIPKwSaINSt7__cxx119sub_matchIS2_EEENS3_12regex_traitsIwEELb0EED2Ev, address: 2580544
	->Name: _ZNSt8__detail9_ExecutorIPKwSaINSt7__cxx119sub_matchIS2_EEENS3_12regex_traitsIwEELb0EED2Ev, address: 2515008, vaddr: 65536
Name: _Z39ggml_cuda_flash_attn_ext_vec_f16_no_mmaR25ggml_backend_cuda_contextP11ggml_tensor, address: 2051280
	->Name: _Z39ggml_cuda_flash_attn_ext_vec_f16_no_mmaR25ggml_backend_cuda_contextP11ggml_tensor, address: 1985744, vaddr: 65536
Name: _ZN8nlohmann16json_abi_v3_11_310basic_jsonINS0_11ordered_mapESt6vectorNSt7__cxx1112basic_stringIcSt11char_traitsIcESaIcEEEblmdSaNS0_14adl_serializerES3_IhSaIhEEvEaSESD_, address: 1294672
	->Name: _ZN8nlohmann16json_abi_v3_11_310basic_jsonINS0_11ordered_mapESt6vectorNSt7__cxx1112basic_stringIcSt11char_traitsIcESaIcEEEblmdSaNS0_14adl_serializerES3_IhSaIhEEvEaSESD_, address: 1229136, vaddr: 65536
Name: _Z36llama_context_params_from_gpt_paramsRK10gpt_params, address: 1203568
	->Name: _Z36llama_context_params_from_gpt_paramsRK10gpt_params, address: 1138032, vaddr: 65536
Name: ggml_repeat_back, address: 452960
	->Name: ggml_repeat_back, address: 387424, vaddr: 65536
Name: _ZNSt10_HashtableIjSt4pairIKjP19ggml_backend_bufferESaIS4_ENSt8__detail10_Select1stESt8equal_toIjESt4hashIjENS6_18_Mod_range_hashingENS6_20_Default_ranged_hashENS6_20_Prime_rehash_policyENS6_17_Hashtable_traitsILb0ELb0ELb1EEEE9_M_rehashEmRKm, address: 1170080
	->Name: _ZNSt10_HashtableIjSt4pairIKjP19ggml_backend_bufferESaIS4_ENSt8__detail10_Select1stESt8equal_toIjESt4hashIjENS6_18_Mod_range_hashingENS6_20_Default_ranged_hashENS6_20_Prime_rehash_policyENS6_17_Hashtable_traitsILb0ELb0ELb1EEEE9_M_rehashEmRKm, address: 1104544, vaddr: 65536
Name: _ZNSt6vectorINSt7__cxx1112regex_traitsIcE10_RegexMaskESaIS3_EE17_M_realloc_insertIJRKS3_EEEvN9__gnu_cxx17__normal_iteratorIPS3_S5_EEDpOT_, address: 1392656
	->Name: _ZNSt6vectorINSt7__cxx1112regex_traitsIcE10_RegexMaskESaIS3_EE17_M_realloc_insertIJRKS3_EEEvN9__gnu_cxx17__normal_iteratorIPS3_S5_EEDpOT_, address: 1327120, vaddr: 65536
Name: _ZNSt6vectorISt4pairINSt7__cxx1112basic_stringIcSt11char_traitsIcESaIcEEES6_ESaIS7_EED1Ev, address: 1351056
	->Name: _ZNSt6vectorISt4pairINSt7__cxx1112basic_stringIcSt11char_traitsIcESaIcEEES6_ESaIS7_EED1Ev, address: 1285520, vaddr: 65536
Name: _ZN8nlohmann16json_abi_v3_11_36detail19json_sax_dom_parserINS0_10basic_jsonINS0_11ordered_mapESt6vectorNSt7__cxx1112basic_stringIcSt11char_traitsIcESaIcEEEblmdSaNS0_14adl_serializerES5_IhSaIhEEvEEE12handle_valueIRbEEPSF_OT_, address: 1316608
	->Name: _ZN8nlohmann16json_abi_v3_11_36detail19json_sax_dom_parserINS0_10basic_jsonINS0_11ordered_mapESt6vectorNSt7__cxx1112basic_stringIcSt11char_traitsIcESaIcEEEblmdSaNS0_14adl_serializerES5_IhSaIhEEvEEE12handle_valueIRbEEPSF_OT_, address: 1251072, vaddr: 65536
Name: _ZSt17__throw_bad_allocv@GLIBCXX_3.4, address: 0
Name: _Z35ggml_cuda_op_dequantize_mul_mat_vecR25ggml_backend_cuda_contextPK11ggml_tensorS3_PS1_PKcPKfS6_PfllllP11CUstream_st, address: 1842272
	->Name: _Z35ggml_cuda_op_dequantize_mul_mat_vecR25ggml_backend_cuda_contextPK11ggml_tensorS3_PS1_PKcPKfS6_PfllllP11CUstream_st, address: 1776736, vaddr: 65536
Name: _ZNSt6vectorIPK21llama_grammar_elementSaIS2_EE17_M_realloc_insertIJRKS2_EEEvN9__gnu_cxx17__normal_iteratorIPS2_S4_EEDpOT_, address: 1125664
	->Name: _ZNSt6vectorIPK21llama_grammar_elementSaIS2_EE17_M_realloc_insertIJRKS2_EEEvN9__gnu_cxx17__normal_iteratorIPS2_S4_EEDpOT_, address: 1060128, vaddr: 65536
Name: _ZNSt7__cxx119to_stringEm, address: 1263296
	->Name: _ZNSt7__cxx119to_stringEm, address: 1197760, vaddr: 65536
Name: ggml_backend_synchronize, address: 2314784
	->Name: ggml_backend_synchronize, address: 2249248, vaddr: 65536
Name: _ZN17llm_build_context12build_xverseEv, address: 988752
	->Name: _ZN17llm_build_context12build_xverseEv, address: 923216, vaddr: 65536
Name: dequantize_row_iq2_xxs, address: 2461984
	->Name: dequantize_row_iq2_xxs, address: 2396448, vaddr: 65536
Name: strchr@GLIBC_2.2.5, address: 0
Name: ggml_graph_dup, address: 522208
	->Name: ggml_graph_dup, address: 456672, vaddr: 65536
Name: _ZSt25__throw_bad_function_callv@GLIBCXX_3.4.14, address: 0
Name: _ZN8nlohmann16json_abi_v3_11_36detail10serializerINS0_10basic_jsonINS0_11ordered_mapESt6vectorNSt7__cxx1112basic_stringIcSt11char_traitsIcESaIcEEEblmdSaNS0_14adl_serializerES5_IhSaIhEEvEEE12dump_integerImLi0EEEvT_, address: 1508784
	->Name: _ZN8nlohmann16json_abi_v3_11_36detail10serializerINS0_10basic_jsonINS0_11ordered_mapESt6vectorNSt7__cxx1112basic_stringIcSt11char_traitsIcESaIcEEEblmdSaNS0_14adl_serializerES5_IhSaIhEEvEEE12dump_integerImLi0EEEvT_, address: 1443248, vaddr: 65536
Name: ggml_backend_sched_set_eval_callback, address: 2327504
	->Name: ggml_backend_sched_set_eval_callback, address: 2261968, vaddr: 65536
Name: cudaStreamCreateWithFlags@libcudart.so.12, address: 0
Name: cuMemSetAccess, address: 0
Name: _ZNSt3mapI8llm_archS_I10llm_tensorNSt7__cxx1112basic_stringIcSt11char_traitsIcESaIcEEESt4lessIS1_ESaISt4pairIKS1_S7_EEES8_IS0_ESaISA_IKS0_SE_EEED1Ev, address: 969520
	->Name: _ZNSt3mapI8llm_archS_I10llm_tensorNSt7__cxx1112basic_stringIcSt11char_traitsIcESaIcEEESt4lessIS1_ESaISt4pairIKS1_S7_EEES8_IS0_ESaISA_IKS0_SE_EEED1Ev, address: 903984, vaddr: 65536
Name: _ZNKSt19__codecvt_utf8_baseIDiE6do_outER11__mbstate_tPKDiS4_RS4_PcS6_RS6_@GLIBCXX_3.4.21, address: 0
Name: _ZNSt6vectorI21llama_grammar_elementSaIS0_EE17_M_realloc_insertIJS0_EEEvN9__gnu_cxx17__normal_iteratorIPS0_S2_EEDpOT_, address: 1158912
	->Name: _ZNSt6vectorI21llama_grammar_elementSaIS0_EE17_M_realloc_insertIJS0_EEEvN9__gnu_cxx17__normal_iteratorIPS0_S2_EEDpOT_, address: 1093376, vaddr: 65536
Name: llama_state_seq_load_file, address: 691568
	->Name: llama_state_seq_load_file, address: 626032, vaddr: 65536
Name: _ZNSt7__cxx1111basic_regexIcNS_12regex_traitsIcEEED1Ev, address: 1279888
	->Name: _ZNSt7__cxx1111basic_regexIcNS_12regex_traitsIcEEED1Ev, address: 1214352, vaddr: 65536
Name: _Z19ggml_cuda_op_repeatR25ggml_backend_cuda_contextP11ggml_tensor, address: 1794288
	->Name: _Z19ggml_cuda_op_repeatR25ggml_backend_cuda_contextP11ggml_tensor, address: 1728752, vaddr: 65536
Name: gguf_get_val_u64, address: 572272
	->Name: gguf_get_val_u64, address: 506736, vaddr: 65536
Name: _ZN8nlohmann16json_abi_v3_11_36detail28json_sax_dom_callback_parserINS0_10basic_jsonINS0_11ordered_mapESt6vectorNSt7__cxx1112basic_stringIcSt11char_traitsIcESaIcEEEblmdSaNS0_14adl_serializerES5_IhSaIhEEvEEE9end_arrayEv, address: 1321616
	->Name: _ZN8nlohmann16json_abi_v3_11_36detail28json_sax_dom_callback_parserINS0_10basic_jsonINS0_11ordered_mapESt6vectorNSt7__cxx1112basic_stringIcSt11char_traitsIcESaIcEEEblmdSaNS0_14adl_serializerES5_IhSaIhEEvEEE9end_arrayEv, address: 1256080, vaddr: 65536
Name: _ZN22llama_beam_search_data36fill_next_beams_by_top_probabilitiesER10llama_beam, address: 1160704
	->Name: _ZN22llama_beam_search_data36fill_next_beams_by_top_probabilitiesER10llama_beam, address: 1095168, vaddr: 65536
Name: _ZNKSt3mapINSt7__cxx1112basic_stringIcSt11char_traitsIcESaIcEEEiSt4lessIS5_ESaISt4pairIKS5_iEEE2atERS9_, address: 2579584
	->Name: _ZNKSt3mapINSt7__cxx1112basic_stringIcSt11char_traitsIcESaIcEEEiSt4lessIS5_ESaISt4pairIKS5_iEEE2atERS9_, address: 2514048, vaddr: 65536
Name: _ZNSt6vectorISt6futureISt4pairIP11ggml_tensorbEESaIS5_EED1Ev, address: 1092640
	->Name: _ZNSt6vectorISt6futureISt4pairIP11ggml_tensorbEESaIS5_EED1Ev, address: 1027104, vaddr: 65536
Name: _ZN25ggml_backend_cuda_context19new_pool_for_deviceEi, address: 1680880
	->Name: _ZN25ggml_backend_cuda_context19new_pool_for_deviceEi, address: 1615344, vaddr: 65536
Name: ggml_get_rows, address: 464544
	->Name: ggml_get_rows, address: 399008, vaddr: 65536
Name: _ZNSt8__detail9_CompilerINSt7__cxx1112regex_traitsIwEEE14_M_alternativeEv, address: 2659008
	->Name: _ZNSt8__detail9_CompilerINSt7__cxx1112regex_traitsIwEEE14_M_alternativeEv, address: 2593472, vaddr: 65536
Name: _ZNSt6vectorISt4pairIlS_INSt7__cxx119sub_matchIPKwEESaIS5_EEESaIS8_EED2Ev, address: 2583728
	->Name: _ZNSt6vectorISt4pairIlS_INSt7__cxx119sub_matchIPKwEESaIS5_EEESaIS8_EED2Ev, address: 2518192, vaddr: 65536
Name: llama_model_meta_key_by_index, address: 637168
	->Name: llama_model_meta_key_by_index, address: 571632, vaddr: 65536
Name: _ZNSt6vectorIwSaIwEE17_M_realloc_insertIJwEEEvN9__gnu_cxx17__normal_iteratorIPwS1_EEDpOT_, address: 2635152
	->Name: _ZNSt6vectorIwSaIwEE17_M_realloc_insertIJwEEEvN9__gnu_cxx17__normal_iteratorIPwS1_EEDpOT_, address: 2569616, vaddr: 65536
Name: ggml_get_first_tensor, address: 446368
	->Name: ggml_get_first_tensor, address: 380832, vaddr: 65536
Name: _ZNSt6vectorIiSaIiEE17_M_realloc_insertIJRKiEEEvN9__gnu_cxx17__normal_iteratorIPiS1_EEDpOT_, address: 1120912
	->Name: _ZNSt6vectorIiSaIiEE17_M_realloc_insertIJRKiEEEvN9__gnu_cxx17__normal_iteratorIPiS1_EEDpOT_, address: 1055376, vaddr: 65536
Name: _ZNSt13runtime_errorC1EPKc@GLIBCXX_3.4.21, address: 0
Name: _ZNSt8__detail9_CompilerINSt7__cxx1112regex_traitsIcEEE27_M_insert_any_matcher_posixILb1ELb0EEEvv, address: 1385280
	->Name: _ZNSt8__detail9_CompilerINSt7__cxx1112regex_traitsIcEEE27_M_insert_any_matcher_posixILb1ELb0EEEvv, address: 1319744, vaddr: 65536
Name: _ZNSt8_Rb_treeIiSt4pairIKiiESt10_Select1stIS2_ESt4lessIiESaIS2_EE24_M_get_insert_unique_posERS1_, address: 2584896
	->Name: _ZNSt8_Rb_treeIiSt4pairIKiiESt10_Select1stIS2_ESt4lessIiESaIS2_EE24_M_get_insert_unique_posERS1_, address: 2519360, vaddr: 65536
Name: _ZNK8nlohmann16json_abi_v3_11_310basic_jsonINS0_11ordered_mapESt6vectorNSt7__cxx1112basic_stringIcSt11char_traitsIcESaIcEEEblmdSaNS0_14adl_serializerES3_IhSaIhEEvEixIKcEERKSD_PT_, address: 1509488
	->Name: _ZNK8nlohmann16json_abi_v3_11_310basic_jsonINS0_11ordered_mapESt6vectorNSt7__cxx1112basic_stringIcSt11char_traitsIcESaIcEEEblmdSaNS0_14adl_serializerES3_IhSaIhEEvEixIKcEERKSD_PT_, address: 1443952, vaddr: 65536
Name: _ZNSt8__detail8_ScannerIwE19_M_eat_escape_posixEv, address: 2585840
	->Name: _ZNSt8__detail8_ScannerIwE19_M_eat_escape_posixEv, address: 2520304, vaddr: 65536
Name: ggml_get_i32_1d, address: 433472
	->Name: ggml_get_i32_1d, address: 367936, vaddr: 65536
Name: _ZNKSt7__cxx1112regex_traitsIwE18lookup_collatenameIPKwEENS_12basic_stringIwSt11char_traitsIwESaIwEEET_SA_, address: 2628528
	->Name: _ZNKSt7__cxx1112regex_traitsIwE18lookup_collatenameIPKwEENS_12basic_stringIwSt11char_traitsIwESaIwEEET_SA_, address: 2562992, vaddr: 65536
Name: _Z20launch_fattn_vec_f32ILi128ELi4ELi4EEvPK11ggml_tensorS2_S2_PS0_S2_R14ggml_cuda_poolP11CUstream_st, address: 2092240
	->Name: _Z20launch_fattn_vec_f32ILi128ELi4ELi4EEvPK11ggml_tensorS2_S2_PS0_S2_R14ggml_cuda_poolP11CUstream_st, address: 2026704, vaddr: 65536
Name: _ZN8nlohmann16json_abi_v3_11_310basic_jsonINS0_11ordered_mapESt6vectorNSt7__cxx1112basic_stringIcSt11char_traitsIcESaIcEEEblmdSaNS0_14adl_serializerES3_IhSaIhEEvEC1ESt16initializer_listINS0_6detail8json_refISD_EEEbNSF_7value_tE, address: 1529664
	->Name: _ZN8nlohmann16json_abi_v3_11_310basic_jsonINS0_11ordered_mapESt6vectorNSt7__cxx1112basic_stringIcSt11char_traitsIcESaIcEEEblmdSaNS0_14adl_serializerES3_IhSaIhEEvEC1ESt16initializer_listINS0_6detail8json_refISD_EEEbNSF_7value_tE, address: 1464128, vaddr: 65536
Name: _ZNSt3mapI6llm_kvPKcSt4lessIS0_ESaISt4pairIKS0_S2_EEEC1ESt16initializer_listIS7_ERKS4_RKS8_, address: 1088528
	->Name: _ZNSt3mapI6llm_kvPKcSt4lessIS0_ESaISt4pairIKS0_S2_EEEC1ESt16initializer_listIS7_ERKS4_RKS8_, address: 1022992, vaddr: 65536
Name: _Z20unicode_utf8_to_byteRKNSt7__cxx1112basic_stringIcSt11char_traitsIcESaIcEEE, address: 2553808
	->Name: _Z20unicode_utf8_to_byteRKNSt7__cxx1112basic_stringIcSt11char_traitsIcESaIcEEE, address: 2488272, vaddr: 65536
